TMS340 COFF Macro Assembler Version 6.10     Tue Dec 19 01:45:12 2023
 Copyright (c) 1985-1991  Texas Instruments Incorporated 

                                                                     PAGE    1

       1                            .file   "attract.asm"
       3                            .width  132
       4                            .option b,d,l,t
       5                            .mnolist
       6                    
       7                    
       8                            .include        "mproc.equ"
       9                            .include        "disp.equ"
      10                            .include        "sys.equ"
      11                            .include        "gsp.equ"
      12                            .include        "mac2.asm"
      13                            .include        "imgtbl.glo"
      14                            .include        "bgndtbl.glo"
      15                            .include        "game.equ"
      16                            .include        "audit.equ"
      17                            .include        "shawn.hdr"
      18                            .include        "link.equ"
      19                    
      20                    
      21                            .ref    musicoff_snd,ALLOFF,QSNDRST
      22                    
      23 00000000     fc80  bounce_snd      .word   0fc80H,10,08129H,0      ;Ball bounce
      24 00000040     f3ff  tuneend_snd     .word   0f3ffH,8,08009H,0               ;End game time tune
      25 00000080     f3ff  tuneend1_snd    .word   0f3ffH,08H,0800aH,0     ;End quarter 1 tune
      26                    
      27                    
      28                    
      29                            .def    COLTAB
      30                    
      31                    
      32                            .ref    ball101
      33                            .ref    MRK_TURM,SHA_LIPM,TON_GOSM,JON_CARM,SAL_DIVM
      34                            .ref    JON_HEYM,JAM_RIVM
      35                            .ref    drw_chicks
      36                            .ref    TWOPLAYERS                      ;0 = NO, 1 = YES 2 players
      37                    
      38                            .ref    COLTAB2
      39                            .ref    get_all_buttons_down
      40                            .ref    get_all_buttons_cur2
      41                            .ref    fade_up
      42                            .ref    fade_down
      43                    
      44                            .ref    special_heads
      45                            .ref    our_heads,our_names
      46                    
      47                            .ref    get_opponent_team
      48                            .ref    winningteam
      49                    
      50                            .ref    credits2,credits3
      51                            .ref    show_hiscore,WNDWOFF
      52                            .ref    player1_data,player2_data,player3_data,player4_data
      53                            .ref    player_names,player_heads
      54                            .ref    gndstat
      55                            .ref    FRANIMQ
      56                            .ref    GAMSTATE,HALT,KILBGND
TMS340 COFF Macro Assembler Version 6.10     Tue Dec 19 01:45:12 2023
 Copyright (c) 1985-1991  Texas Instruments Incorporated 

attract mode                                                         PAGE    2

      57                            .ref    process_init
      58                    
      59                            .ref    tvpanelon
      60                    
      61                            .ref    BAKMODS,BGND_UD1
      62                            .ref    CLR_SCRN
      63                    
      64                            .ref    CR_CONTP,P_CONT,CR_STRTP,P_START,SOUNDSUP,WSPEED
      65                            .ref    WNDWON,CRD_SCRN2,IRQSKYE
      66                            .ref    pal_clean,pal_getf,dmaq_wait,display_init,AUD1
      67                            .ref    GET_ADJ,CYCLE_TABLE
      68                            .ref    conttimers
      69                            .ref    GETHIGH,pal_set,PALFRAM
      70                            .ref    COLRPRC
      71                            .ref    COLCYC
      72                            .ref    anim_script,anim_killall
      73                            .ref    RNDRNGS
      74                            .ref    GET_AUD,DEF_PAGE
      75                            .ref    PSTATUS,PSTATUS2
      76                            .ref    dirq_wait
      77                            .ref    dirqtimer
      78                            .ref    dpageflip,dpageflip_off
      79                            .ref    WIPEOUT
      80                            .ref    demogame_start
      81                            .ref    system_savegame,system_restoregame
      82                    
      83                            .ref    scores
      84                            .ref    print_string,print_string2,print_string_C,print_string_C2
      85                            .ref    message_palette
      86                            .ref    message_ascii
      87                            .ref    mess_spacing
      88                            .ref    mess_objid
      89                            .ref    mess_cursx
      90                            .ref    mess_cursy
      91                            .ref    lgmd_ascii,osgemd_ascii,sgmd8_ascii,omlgmd_ascii,ogmd10_ascii
      92                            .ref    osgmd8_ascii
      93                            .ref    setup_message
      94                            .ref    message_buffer
      95                            .ref    get_initials_string
      96                            .ref    dec_to_asc,dec_to_pct
      97                            .ref    copy_string,copy_rom_string
      98                            .ref    concat_string,concat_rom_string
      99                            .ref    print_string_R,print_string_R2
     100                            .ref    FADERAM
     101                    
     102                            .ref    player_stats
     103                            .ref    RNDRNG0
     104                    
     105                    
     106 000000c0                   BSSX    ENTERON         ,16     ;INITIALS BEING ENTERD FLAG
     107                    
     108 000000c0                   BSSX    hisclong        ,16     ;!0=Show hiscore table longer
     109                    
     110                    
     111 00000020                   .bss    cycram          ,8*2*16 ;Palette cycle mem
TMS340 COFF Macro Assembler Version 6.10     Tue Dec 19 01:45:12 2023
 Copyright (c) 1985-1991  Texas Instruments Incorporated 

attract mode                                                         PAGE    3

     112                    
     113              0020- RAMLST  .equ    cycram
     114                    
     115 00000120                   .bss    cycram2         ,8*2*16 ;^
     116 00000220                   .bss    cycram3         ,7*2*16 ;^
     117 00000300                   .bss    cycram4         ,7*2*16 ;^
     118 000003e0                   .bss    cycram5         ,7*2*16 ;^
     119 000004c0                   .bss    cycram6         ,7*2*16 ;^
     120 000005a0                   .bss    cycram7         ,9*2*16 ;^
     121                    
     122 000006c0                   .bss    team_cnts       ,32     ;left team cnt, +16=rgt team cnt
     123 000006e0                   .bss    stick           ,32     ;stick ram for team selection
     124                    
     125 00000700                   .bss    loop            ,16     ;
     126                    
     127                    
     128                    
     129 000000c0                   .text
     130                    
     131                    
     132                            .ref    p1taps,p2taps,p3taps,p4taps
     133                    
     134 000000c0           cqyxslp SLEEPK  1
     135                    
     136 00000100            SUBR   amode_start
     137                    
     138 00000100     09e0          movi    ACTIVE,a0               ;>Look for indestructables
         00000110 00000000! 
     139 00000130     c003          jruc    cqyxnxt
     140                    
     141 00000140     b400  cqyxilp move    *a0(PROCID),a0
         00000150     0020  
     142 00000160     cef5          jrn     cqyxslp                 ;Found?
     143 00000170     8600  cqyxnxt move    *a0,a0,L
     144 00000180     cbfb          jrnz    cqyxilp
     145                    
     146 00000190     0d5f          calla   process_init            ;Init process list
         000001a0 00000000! 
     147                    
     148 000001c0     07ad          move    @FREE,a13,L             ;Get 1st free
         000001d0 00000000! 
     149 000001f0     87a0          move    *a13,a0,L
     150 00000200     0780          move    a0,@FREE,L
         00000210 00000000! 
     151 00000230     5600          clr     a0
     152 00000240     820d          move    a0,*a13,L
     153 00000250     078d          move    a13,@ACTIVE,L           ;Put me on active list
         00000260 00000000! 
     154                    
     155 00000280     4dac          move    a13,a12
     156 00000290     0b0c          addi    PRCSIZ,a12
         000002a0     05b0  
     157                    
     158 000002b0     09c0          movi    AMODE_PID,a0
         000002c0     0100  
TMS340 COFF Macro Assembler Version 6.10     Tue Dec 19 01:45:12 2023
 Copyright (c) 1985-1991  Texas Instruments Incorporated 

attract mode                                                         PAGE    4

     159 000002d0     b00d          move    a0,*a13(PROCID)
         000002e0     0020  
     160                    
     161                    
     162                    
     163 000002f0     09c0          movi    -1,a0
         00000300     ffff  
     164 00000310     0580          move    a0,@winningteam
         00000320 00000000! 
     165                    
     166 00000340     1820          movk    1,a0
     167 00000350     0580          move    a0,@dpageflip
         00000360 00000000! 
     168                    
     169                    
     170 00000380     1820          movk    INAMODE,a0
     171 00000390     0580          move    a0,@GAMSTATE
         000003a0 00000000! 
     172 000003c0     0d5f          calla   COLRPRC
         000003d0 00000000! 
     173 000003f0     09c1          movi    AMODE_PID,a1
         00000400     0100  
     174 00000410     09e7          movi    amode,a7
         00000420 000005a0' 
     175 00000440     0d5f          calla   GETPRC
         00000450 00000000! 
     176                    
     177 00000470     5600          clr     a0
     178 00000480     0580          move    a0,@HALT
         00000490 00000000! 
     179 000004b0     0580          move    a0,@ENTERON
         000004c0 00000000- 
     180 000004e0     0580          move    a0,@p1taps
         000004f0 00000000! 
     181 00000510     0580          move    a0,@p2taps
         00000520 00000000! 
     182 00000540     0580          move    a0,@p3taps
         00000550 00000000! 
     183 00000570     0580          move    a0,@p4taps
         00000580 00000000! 
     184                    
     185                    
     186                    
     187                            .ref    result_screen
     188                            .ref    kp_team1,kp_scores,kp_team2
     189                    
     190 000005a0            SUBRP  amode
     191                    
     192 000005a0           cqyxlp
     193 000005a0     09c0          movi    AMODE_PID,a0
         000005b0     0100  
     194 000005c0     b00d          move    a0,*a13(PROCID)
         000005d0     0020  
     195                    
     196                    
TMS340 COFF Macro Assembler Version 6.10     Tue Dec 19 01:45:12 2023
 Copyright (c) 1985-1991  Texas Instruments Incorporated 

attract mode                                                         PAGE    5

     197 000005e0     07a0          move    @kp_scores,a0,L
         000005f0 00000000! 
     198 00000610     0780          move    a0,@scores,L
         00000620 00000000! 
     199 00000640     05a0          move    @scores,a0
         00000650 00000000! 
     200 00000670     05ae          move    @scores+16,a14
         00000680 00000010! 
     201 000006a0     400e          add     a0,a14
     202 000006b0     0b4e          cmpi    40,a14
         000006c0     ffd7  
     203 000006d0     c41a          jrlt    cqyxnog
     204 000006e0     05a0          move    @kp_team1,a0
         000006f0 00000000! 
     205 00000710     0580          move    a0,@team1
         00000720 00000000! 
     206 00000740     05a0          move    @kp_team2,a0
         00000750 00000000! 
     207 00000770     0580          move    a0,@team2
         00000780 00000000! 
     208 000007a0                   JSRP    result_screen
     209 00000810                   JSRP    drw_chicks
     210 00000880           cqyxnog
     211 00000880                   JSRP    new_page
     212 000008f0                   JSRP    show_title
     213 00000960                   JSRP    creditscreen
     214 000009d0                   JSRP    demogame
     215 00000a40     0d5f          calla   QSNDRST
         00000a50 00000000! 
     216 00000a70     09e0          movi    musicoff_snd,a0
         00000a80 00000000! 
     217 00000aa0     0d5f          calla   snd_play1ovr
         00000ab0 00000000! 
     218 00000ad0                   JSRP    show_hiscore
     219                    
     220 00000b40                   JSRP    drw_stars
     221 00000bb0                   JSRP    creditscreen
     222 00000c20                   JSRP    demogame
     223 00000c90     09e0          movi    musicoff_snd,a0
         00000ca0 00000000! 
     224 00000cc0     0d5f          calla   snd_play1ovr
         00000cd0 00000000! 
     225 00000cf0                   JSRP    new_page
     226 00000d60                   JSRP    show_title
     227 00000dd0                   JSRP    show_copyright
     228 00000e40                   JSRP    creditscreen
     229 00000eb0                   JSRP    show_operatormsg
     230                    
     231 00000f20                   JSRP    demogame
     232 00000f90     09e0          movi    musicoff_snd,a0
         00000fa0 00000000! 
     233 00000fc0     0d5f          calla   snd_play1ovr
         00000fd0 00000000! 
     234 00000ff0                   JSRP    drw_chicks
     235 00001060                   JSRP    drw_ladder
TMS340 COFF Macro Assembler Version 6.10     Tue Dec 19 01:45:12 2023
 Copyright (c) 1985-1991  Texas Instruments Incorporated 

attract mode                                                         PAGE    6

     236                    
     237 000010d0     05a0          move    @loop,a0
         000010e0 00000700- 
     238 00001100     1020          inc     a0
     239 00001110     0580          move    a0,@loop
         00001120 00000700- 
     240 00001140                   ANDK    3,a0
     241 00001160     cb00          jrnz    cqyxlp
         00001170     ff42  
     242                    
     243 00001180                   JSRP    show_designteam
     244                    
     245 000011f0     c000          jruc    cqyxlp
         00001200     ff39  
     246                    
     247                    
     248                    
     249                    
     250                    
     251                    
     252 00001210           show_title
     253                    
     254 00001210     5600          clr     a0
     255 00001220     0580          move    a0,@IRQSKYE             ;background color
         00001230 00000000! 
     256                    
     257 00001250     0d5f          calla   display_blank
         00001260 00000000! 
     258 00001280     0d5f          calla   WIPEOUT
         00001290 00000000! 
     259                    
     260 000012b0     1820          movk    1,a0
     261 000012c0     0580          move    a0,@dpageflip
         000012d0 00000000! 
     262 000012f0     0d5f          calla   display_2dsclmodeon
         00001300 00000000! 
     263                    
     264 00001320     1940          movk    10,a0
     265 00001330     0580          move    a0,@WORLDTLX+16
         00001340 00000010! 
     266 00001360     09c0          movi    1000,a0
         00001370     03e8  
     267 00001380     0580          move    a0,@WORLDTLY+16
         00001390 00000010! 
     268                    
     269 000013b0                   SLEEPK  2
     270 000013f0     09e0          movi    ttl_t,a0
         00001400 00001ff0' 
     271 00001420     0780          move    a0,@BAKMODS,L
         00001430 00000000! 
     272 00001450     0d5f          calla   BGND_UD1
         00001460 00000000! 
     273 00001480                   JSRP    scrn_scaleininit
     274 000014f0                   SLEEPK  2
     275                    
TMS340 COFF Macro Assembler Version 6.10     Tue Dec 19 01:45:12 2023
 Copyright (c) 1985-1991  Texas Instruments Incorporated 

attract mode                                                         PAGE    7

     276 00001530     09e8          movi    STATIC_p,a8
         00001540 00000000! 
     277 00001560     09e9          movi    cycram,a9
         00001570 00000020- 
     278 00001590     09ea          movi    [1,8],a10               ;1st,last color
         000015a0 00010008  
     279 000015c0     184b          movk    2,a11                   ;Rate
     280 000015d0                   CREATE  CYCPID,COLCYC
     281                    
     282                    
     283                    
     284 00001650     09e8          movi    P_STATIC,a8
         00001660 00000000! 
     285 00001680     09e9          movi    cycram2,a9
         00001690 00000120- 
     286 000016b0     09ea          movi    [21,27],a10             ;1st,last color
         000016c0 0015001b  
     287 000016e0     184b          movk    2,a11                   ;Rate
     288 000016f0                   CREATE  CYCPID,COLCYC
     289                    
     290 00001770     09e8          movi    P_STATIC,a8
         00001780 00000000! 
     291 000017a0     09e9          movi    cycram3,a9
         000017b0 00000220- 
     292 000017d0     09ea          movi    [28,34],a10             ;1st,last color
         000017e0 001c0022  
     293 00001800     184b          movk    2,a11                   ;Rate
     294 00001810                   CREATE  CYCPID,COLCYC
     295                    
     296 00001890     09e8          movi    P_STATIC,a8
         000018a0 00000000! 
     297 000018c0     09e9          movi    cycram4,a9
         000018d0 00000300- 
     298 000018f0     09ea          movi    [35,41],a10             ;1st,last color
         00001900 00230029  
     299 00001920     184b          movk    2,a11                   ;Rate
     300 00001930                   CREATE  CYCPID,COLCYC
     301                    
     302 000019b0     09e8          movi    P_STATIC,a8
         000019c0 00000000! 
     303 000019e0     09e9          movi    cycram5,a9
         000019f0 000003e0- 
     304 00001a10     09ea          movi    [42,48],a10             ;1st,last color
         00001a20 002a0030  
     305 00001a40     184b          movk    2,a11                   ;Rate
     306 00001a50                   CREATE  CYCPID,COLCYC
     307                    
     308 00001ad0     09e8          movi    P_STATIC,a8
         00001ae0 00000000! 
     309 00001b00     09e9          movi    cycram6,a9
         00001b10 000004c0- 
     310 00001b30     09ea          movi    [49,55],a10             ;1st,last color
         00001b40 00310037  
     311 00001b60     184b          movk    2,a11                   ;Rate
     312 00001b70                   CREATE  CYCPID,COLCYC
TMS340 COFF Macro Assembler Version 6.10     Tue Dec 19 01:45:12 2023
 Copyright (c) 1985-1991  Texas Instruments Incorporated 

attract mode                                                         PAGE    8

     313                    
     314 00001bf0     09e8          movi    P_STATIC,a8
         00001c00 00000000! 
     315 00001c20     09e9          movi    cycram7,a9
         00001c30 000005a0- 
     316 00001c50     09ea          movi    [56,63],a10             ;1st,last color
         00001c60 0038003f  
     317 00001c80     184b          movk    2,a11                   ;Rate
     318 00001c90                   CREATE  CYCPID,COLCYC
     319                    
     320                    
     321 00001d10                   JSRP    scrn_scalein
     322                    
     323                    
     324                            .if 0
     325                    
     326                            clr     a0
     327                            clr     a1
     328                            movi    SUBLOGO,a2
     329                            movi    500,a3                  ;Z
     330                            movi    DMAWNZ|M_NOCOLL|M_SCRNREL,a4
     331                            movi    CLSDEAD,a5
     332                            clr     a6
     333                            clr     a7
     334                            calla   BEGINOBJ2
     335                    
     336                            movi    [0400H,0400H],a10
     337                    gzjzuplp
     338                            callr   ttl_setscl
     339                            SLEEPK  1
     340                            subi    [020H,020H],a10
     341                            cmpi    [0a0H,0a0H],a10
     342                            jrgt    gzjzuplp
     343                    
     344                    gzjzdnlp
     345                            callr   ttl_setscl
     346                            SLEEPK  1
     347                            addi    [010H,010H],a10
     348                            cmpi    [0110H,0110H],a10
     349                            jrlt    gzjzdnlp
     350                            
     351                            .endif
     352                    
     353 00001d80     09ca          movi    6*TSEC,a10
         00001d90     013e  
     354 00001da0           gzjzlp  SLEEPK  1
     355 00001de0     0d5f          calla   get_all_buttons_cur2
         00001df0 00000000! 
     356 00001e10     ca0f          jrz     gzjznob
     357 00001e20     5600          clr     a0
     358 00001e30     0580          move    a0,@SOUNDSUP            ;turn all sounds on
         00001e40 00000000! 
     359 00001e60                   SOUND1  bounce_snd
     360 00001ec0     1820          movk    1,a0
     361                            .ref    SOUNDSUP
TMS340 COFF Macro Assembler Version 6.10     Tue Dec 19 01:45:12 2023
 Copyright (c) 1985-1991  Texas Instruments Incorporated 

attract mode                                                         PAGE    9

     362 00001ed0     0580          move    a0,@SOUNDSUP            ;turn all sounds off
         00001ee0 00000000! 
     363 00001f00     c001          jruc    gzjzxb
     364 00001f10           gzjznob 
     365 00001f10     3f0a          dsj     a10,gzjzlp
     366 00001f20           gzjzxb
     367                    
     368 00001f20                   JSRP    scrn_scaleout
     369                    
     370 00001f90     0d5f          calla   WIPEOUT
         00001fa0 00000000! 
     371                    
     372 00001fc0                   RETP
     373                    
     374 00001ff0           ttl_t
     375 00001ff0 00000000!         .long   trnedBMOD
     376 00002010     ffdb          .word   -37,03b1H
     377 00002030 00000000          .long   0
     378                    
     379                    
     380 00002050           ttl_setscl
     381 00002050     b702          move    *a8(OIMG),a2,L
         00002060     0170  
     382 00002070     09e3          movi    [0100H,0],a3
         00002080 01000000  
     383 000020a0     57ce          clr     a14
     384 000020b0     ed4e          movx    a10,a14
     385 000020c0     5bc3          divu    a14,a3
     386 000020d0     09c1          movi    -106,a1
         000020e0     ff96  
     387 000020f0     5c61          mpys    a3,a1
     388 00002100     2a01          sra     16,a1
     389 00002110     0b01          addi    200,a1                  ;X base
         00002120     00c8  
     390 00002130     b028          move    a1,*a8(OXPOS)
         00002140     0090  
     391 00002150     09c1          movi    -98,a1
         00002160     ff9e  
     392 00002170     5c61          mpys    a3,a1
     393 00002180     2a01          sra     16,a1
     394 00002190     0b01          addi    124,a1                  ;Y base
         000021a0     007c  
     395 000021b0     b028          move    a1,*a8(OYPOS)
         000021c0     00b0  
     396                    
     397 000021d0     b348          move    a10,*a8(ODATA_p),L      ;Set scale value
         000021e0     01c0  
     398 000021f0     0960          rets
     399                    
     400                    
     401                            .if     0
     402                    
     403                    
     404                     SUBRP  show_title2
     405                    
TMS340 COFF Macro Assembler Version 6.10     Tue Dec 19 01:45:12 2023
 Copyright (c) 1985-1991  Texas Instruments Incorporated 

attract mode                                                         PAGE   10

     406                            calla   display_blank
     407                            calla   WIPEOUT
     408                    
     409                            clr     a0
     410                            move    a0,@dtype               ;2D
     411                    
     412                            movk    1,a0                    ;page flipping on
     413                            move    a0,@dpageflip
     414                    
     415                            movi    SCRNEND,a0              ;[256,405]
     416                            move    a0,@SCRNLR,L
     417                    
     418                            clr     a0
     419                            move    a0,@WORLDTLX,L
     420                            move    a0,@WORLDTLY,L
     421                            move    a0,@IRQSKYE
     422                    
     423                            SLEEPK  2
     424                    
     425                            movi    ftgfttl_t,a0
     426                            move    a0,@BAKMODS,L
     427                            calla   BGND_UD1
     428                    
     429                            CREATE0 startcyc
     430                    
     431                            clr     a10
     432                            movk    16,a11
     433                            CREATE0 fade_up
     434                    
     435                            movk    1,a0
     436                            move    a0,@DISPLAYON
     437                    
     438                            SLEEPK  2
     439                            calla   display_unblank
     440                    
     441                            SLEEP   1*TSEC+30
     442                    
     443                            movi    7*TSEC,a10
     444                    ftgflp  SLEEPK  1
     445                            calla   get_all_buttons_cur2
     446                            jrz     ftgfnob
     447                            clr     a0
     448                            move    a0,@SOUNDSUP            ;turn all sounds on
     449                            SOUND1  bounce_snd
     450                            movk    1,a0
     451                            move    a0,@SOUNDSUP            ;turn all sounds off
     452                            jruc    ftgfxb
     453                    ftgfnob 
     454                            dsj     a10,ftgflp
     455                    ftgfxb
     456                            movi    CYCPID,a0
     457                            calla   KIL1C
     458                    
     459                            clr     a10
     460                            movk    8,a11
TMS340 COFF Macro Assembler Version 6.10     Tue Dec 19 01:45:12 2023
 Copyright (c) 1985-1991  Texas Instruments Incorporated 

attract mode                                                         PAGE   11

     461                            CREATE0 fade_down
     462                    
     463                            SLEEP   40
     464                    
     465                            RETP
     466                    
     467                    ftgfttl_t
     468                            .long   ttitleBMOD
     469                            .word   23,25
     470                            .long   0
     471                    
     472                    startcyc
     473                            SLEEPK  9
     474                            movi    STATIC_p,a8
     475                            movi    cycram,a9
     476                            movi    [1,8],a10               ;1st,last color
     477                            movk    2,a11                   ;Rate
     478                            CREATE  CYCPID,COLCYC
     479                            DIE
     480                    
     481                            .endif
     482                    
     483                    
     484                    
     485                            .ref    STRCNRMO_1
     486                            .ref    STRCNRMO
     487                            .ref    ADJ_PAGE,RC_BYTEI
     488                    
     489 00002200                   STRUCTPD
     490 00002200                   WORD    som_string
     491                    
     492                    
     493 00002200            SUBR   show_operatormsg
     494                    
     495                    
     496 00002200     0d5f          calla   ADJ_PAGE
         00002210 00000000! 
     497 00002230     1862          movk    CMESS_LINES,a2          ;0CHheck for a message
     498 00002240     09e7          movi    CUSTOM_MESSAGE,a7
         00002250 01404740  
     499 00002270           tdfdcmlp
     500 00002270     0d5f          calla   RC_BYTEI
         00002280 00000000! 
     501 000022a0     cb05          jrnz    tdfdmsg
     502 000022b0     0b07          addi    CMESS_LINE_SIZE,a7
         000022c0     01a0  
     503 000022d0     3ce2          dsj     a2,tdfdcmlp
     504 000022e0     c000          jruc    tdfdx
         000022f0     0081  
     505 00002300           tdfdmsg
     506 00002300     0d5f          calla   display_blank
         00002310 00000000! 
     507 00002330     0d5f          calla   WIPEOUT
         00002340 00000000! 
     508                    
TMS340 COFF Macro Assembler Version 6.10     Tue Dec 19 01:45:12 2023
 Copyright (c) 1985-1991  Texas Instruments Incorporated 

attract mode                                                         PAGE   12

     509 00002360     1820          movk    1,a0
     510 00002370     0580          move    a0,@dpageflip
         00002380 00000000! 
     511 000023a0     0580          move    a0,@DISPLAYON
         000023b0 00000000! 
     512 000023d0     0d5f          calla   display_2dsclstarmodeon
         000023e0 00000000! 
     513                    
     514 00002400     1940          movk    10,a0
     515 00002410     0580          move    a0,@WORLDTLX+16
         00002420 00000010! 
     516 00002440     09c0          movi    1000,a0
         00002450     03e8  
     517 00002460     0580          move    a0,@WORLDTLY+16
         00002470 00000010! 
     518                    
     519 00002490                   SLEEPK  2
     520                    
     521 000024d0     0d5f          calla   display_unblank
         000024e0 00000000! 
     522                    
     523 00002500                   CREATE0 showdt_scl
     524                    
     525                    
     526 00002570     1862          movk    CMESS_LINES,a2          ;0CHheck for a message
     527 00002580     09e7          movi    CUSTOM_MESSAGE,a7
         00002590 01404740  
     528 000025b0     09e9          movi    [50,200],a9
         000025c0 003200c8  
     529 000025e0           tdfdprtlp
     530 000025e0                   PUSHP   a2,a7
     531                    
     532 00002600     0d5f          calla   ADJ_PAGE
         00002610 00000000! 
     533                    
     534 00002630     4da2          move    a13,a2
     535 00002640     0b02          addi    som_string,a2
         00002650     0100  
     536 00002660     0d5f  tdfdgetlp       calla   RC_BYTEI
         00002670 00000000! 
     537 00002690     8c02          movb    a0,*a2
     538 000026a0     1102          addk    8,a2
     539 000026b0     4c00          move    a0,a0
     540 000026c0     cbf9          jrnz    tdfdgetlp
     541                    
     542                    
     543 000026d0     09e0          movi    GOLD,a0
         000026e0 00000000! 
     544 00002700     0d5f          calla   pal_getf
         00002710 00000000! 
     545 00002730     4c06          move    a0,a6
     546                    
     547 00002740     4da8          move    a13,a8
     548 00002750     0b08          addi    som_string,a8
         00002760     0100  
TMS340 COFF Macro Assembler Version 6.10     Tue Dec 19 01:45:12 2023
 Copyright (c) 1985-1991  Texas Instruments Incorporated 

attract mode                                                         PAGE   13

     549 00002770     5600          clr     a0
     550 00002780     182a          movk    1,a10
     551 00002790     09eb          movi    osgfont_t,a11
         000027a0 00009450' 
     552 000027c0                   PUSHP   a9
     553 000027d0                   JSRP    STRCNRMO_1
     554 00002840                   PULLP   a9
     555                    
     556 00002850     09ee          movi    OBJLST,a14
         00002860 00000000! 
     557                    
     558 00002880     87ce  tdfdolp move    *a14,a14,L      ;A14=*Next
     559 00002890     ca09          jrz     tdfdoend
     560 000028a0     b7c0          move    *a14(ODATA_p),a0,L
         000028b0     01c0  
     561 000028c0     cbfb          jrnz    tdfdolp
     562 000028d0     09e1          movi    [0320H,0320H],a1
         000028e0 03200320  
     563 00002900     b22e          move    a1,*a14(ODATA_p),L
         00002910     01c0  
     564 00002920     c0f5          jruc    tdfdolp
     565 00002930           tdfdoend
     566                    
     567 00002930                   PUSHP   a6
     568 00002940                   SLEEPK  30
     569 00002980                   PULLP   a6
     570 00002990                   PULLP   a2,a7
     571 000029b0           tdfdnxt
     572 000029b0     0b29          addi    [45,0],a9
         000029c0 002d0000  
     573                    
     574 000029e0     0b07          addi    CMESS_LINE_SIZE,a7
         000029f0     01a0  
     575 00002a00     0d82          dsj     a2,tdfdprtlp
         00002a10     ffbc  
     576                    
     577                    
     578                    
     579 00002a20                   SLEEP   TSEC*6
     580                    
     581                    
     582 00002a70                   JSRP    scrn_scaleout
     583                    
     584 00002ae0     0d5f          calla   WIPEOUT
         00002af0 00000000! 
     585                    
     586 00002b10           tdfdx   RETP
     587                    
     588                    
     589 00002b40            SUBRP  show_copyright
     590                    
     591 00002b40     0d5f          calla   display_blank
         00002b50 00000000! 
     592 00002b70     0d5f          calla   WIPEOUT
         00002b80 00000000! 
TMS340 COFF Macro Assembler Version 6.10     Tue Dec 19 01:45:12 2023
 Copyright (c) 1985-1991  Texas Instruments Incorporated 

attract mode                                                         PAGE   14

     593                    
     594 00002ba0     5600          clr     a0
     595 00002bb0     0580          move    a0,@dtype               ;2D
         00002bc0 00000000! 
     596                    
     597 00002be0     1820          movk    1,a0                    ;page flipping on
     598 00002bf0     0580          move    a0,@dpageflip
         00002c00 00000000! 
     599                    
     600 00002c20     09e0          movi    SCRNEND,a0              ;[256,405]
         00002c30 00fe01b0  
     601 00002c50     0780          move    a0,@SCRNLR,L
         00002c60 00000000! 
     602                    
     603 00002c80     5600          clr     a0
     604 00002c90     0780          move    a0,@WORLDTLX,L
         00002ca0 00000000! 
     605 00002cc0     0780          move    a0,@WORLDTLY,L
         00002cd0 00000000! 
     606 00002cf0     0580          move    a0,@IRQSKYE
         00002d00 00000000! 
     607                    
     608 00002d20                   SLEEPK  2
     609                    
     610                    
     611                            .ref    RD7FONT
     612 00002d60     09e0          movi    textp,a0
         00002d70 00000000! 
     613 00002d90     0d5f          calla   pal_getf
         00002da0 00000000! 
     614 00002dc0     4c06          move    a0,a6
     615                    
     616 00002dd0     5600          clr     a0
     617 00002de0     56c6          clr     a6
     618 00002df0     09e8          movi    hztnln1,a8
         00002e00 00003b50' 
     619 00002e20     09e9          movi    [50+65,200],a9
         00002e30 007300c8  
     620 00002e50     182a          movk    1,a10
     621 00002e60     09eb          movi    RD7FONT,a11
         00002e70 00000000! 
     622 00002e90                   JSRP    STRCNRMO_1
     623                    
     624 00002f00     5600          clr     a0
     625 00002f10     09e8          movi    hztnln2,a8
         00002f20 00003bf8' 
     626 00002f40     09e9          movi    [62+65,200],a9
         00002f50 007f00c8  
     627 00002f70     182a          movk    1,a10
     628 00002f80     09eb          movi    RD7FONT,a11
         00002f90 00000000! 
     629 00002fb0                   JSRP    STRCNRMO_1
     630                    
     631 00003020     5600          clr     a0
     632 00003030     09e8          movi    hztnln3,a8
TMS340 COFF Macro Assembler Version 6.10     Tue Dec 19 01:45:12 2023
 Copyright (c) 1985-1991  Texas Instruments Incorporated 

attract mode                                                         PAGE   15

         00003040 00003d88' 
     633 00003060     09e9          movi    [74+65,200],a9
         00003070 008b00c8  
     634 00003090     182a          movk    1,a10
     635 000030a0     09eb          movi    RD7FONT,a11
         000030b0 00000000! 
     636 000030d0                   JSRP    STRCNRMO_1
     637                    
     638 00003140     5600          clr     a0
     639 00003150     09e8          movi    hztnln4,a8
         00003160 00003f08' 
     640 00003180     09e9          movi    [86+65,200],a9
         00003190 009700c8  
     641 000031b0     182a          movk    1,a10
     642 000031c0     09eb          movi    RD7FONT,a11
         000031d0 00000000! 
     643 000031f0                   JSRP    STRCNRMO_1
     644                    
     645 00003260     5600          clr     a0
     646 00003270     09e8          movi    hztnln5,a8
         00003280 00004070' 
     647 000032a0     09e9          movi    [98+65,200],a9
         000032b0 00a300c8  
     648 000032d0     182a          movk    1,a10
     649 000032e0     09eb          movi    RD7FONT,a11
         000032f0 00000000! 
     650 00003310                   JSRP    STRCNRMO_1
     651                    
     652 00003380     5600          clr     a0
     653 00003390     09e8          movi    hztnln6,a8
         000033a0 00004188' 
     654 000033c0     09e9          movi    [110+65,200],a9
         000033d0 00af00c8  
     655 000033f0     182a          movk    1,a10
     656 00003400     09eb          movi    RD7FONT,a11
         00003410 00000000! 
     657 00003430                   JSRP    STRCNRMO_1
     658                    
     659 000034a0     5600          clr     a0
     660 000034b0     09e8          movi    hztnln7,a8
         000034c0 00004278' 
     661 000034e0     09e9          movi    [122+65,200],a9
         000034f0 00bb00c8  
     662 00003510     182a          movk    1,a10
     663 00003520     09eb          movi    RD7FONT,a11
         00003530 00000000! 
     664 00003550                   JSRP    STRCNRMO_1
     665                    
     666 000035c0     09e0          movi    [200,0],a0
         000035d0 00c80000  
     667 000035f0     09e1          movi    [35+20,0],a1
         00003600 00370000  
     668 00003620     09e2          movi    TSMLOGO,a2                      ;* image
         00003630 00000000! 
     669 00003650     09c3          movi    20000,a3
TMS340 COFF Macro Assembler Version 6.10     Tue Dec 19 01:45:12 2023
 Copyright (c) 1985-1991  Texas Instruments Incorporated 

attract mode                                                         PAGE   16

         00003660     4e20  
     670 00003670     09e4          movi    DMAWNZ|M_NOCOLL,a4
         00003680 00008802  
     671 000036a0     09c5          movi    CLSDEAD,a5
         000036b0     2000  
     672 000036c0     56c6          clr     a6
     673 000036d0     56e7          clr     a7
     674 000036e0     0d5f          calla   BEGINOBJ2
         000036f0 00000000! 
     675                    
     676 00003710     574a          clr     a10
     677 00003720     190b          movk    8,a11
     678 00003730                   CREATE0 fade_up
     679                    
     680 000037a0     1820          movk    1,a0
     681 000037b0     0580          move    a0,@DISPLAYON
         000037c0 00000000! 
     682                    
     683 000037e0                   SLEEPK  2
     684 00003820     0d5f          calla   display_unblank
         00003830 00000000! 
     685                    
     686 00003850                   SLEEP   1*TSEC+30
     687                    
     688 000038a0     09ca          movi    6*TSEC,a10
         000038b0     013e  
     689 000038c0           hztnlp  SLEEPK  1
     690 00003900     0d5f          calla   get_all_buttons_cur2
         00003910 00000000! 
     691 00003930     ca0f          jrz     hztnnob
     692 00003940     5600          clr     a0
     693 00003950     0580          move    a0,@SOUNDSUP            ;turn all sounds on
         00003960 00000000! 
     694 00003980                   SOUND1  bounce_snd
     695 000039e0     1820          movk    1,a0
     696 000039f0     0580          move    a0,@SOUNDSUP            ;turn all sounds off
         00003a00 00000000! 
     697 00003a20     c001          jruc    hztnxb
     698 00003a30           hztnnob 
     699 00003a30     3f0a          dsj     a10,hztnlp
     700 00003a40           hztnxb
     701 00003a40     574a          clr     a10
     702 00003a50     190b          movk    8,a11
     703 00003a60                   CREATE0 fade_down
     704                    
     705 00003ad0                   SLEEP   40
     706 00003b20                   RETP
     707                    
     708                            
     709 00003b50       43  hztnln1 .string "COPYRIGHT 1993, 1994",0
     710 00003bf8       4d  hztnln2 .string "MIDWAY IS A TRADEMARK OF MIDWAY MANUFACTURING CO.",0
     711 00003d88       54  hztnln3 .string "THE NBA AND NBA TEAM TRADEMARKS USED HEREIN ARE",0
     712 00003f08       55  hztnln4 .string "USED UNDER LICENSE FROM NBA PROPERTIES, INC.",0
     713 00004070       4e  hztnln5 .string "NBA JAM SESSION IS TRADEMARKED AND",0
     714 00004188       4f  hztnln6 .string "OWNED BY NBA PROPERTIES, INC.",0
TMS340 COFF Macro Assembler Version 6.10     Tue Dec 19 01:45:12 2023
 Copyright (c) 1985-1991  Texas Instruments Incorporated 

attract mode                                                         PAGE   17

     715 00004278       41  hztnln7 .string "ALL RIGHTS RESERVED",0
     716 00004320                   .EVEN
     717                    
     718                    
     719                    
     720                            .ref    STRLNRMO_1
     721                    
     722 00004320            SUBR   show_designteam
     723                    
     724 00004320     0d5f          calla   display_blank
         00004330 00000000! 
     725 00004350     0d5f          calla   WIPEOUT
         00004360 00000000! 
     726                    
     727 00004380     1820          movk    1,a0
     728 00004390     0580          move    a0,@dpageflip
         000043a0 00000000! 
     729 000043c0     0580          move    a0,@DISPLAYON
         000043d0 00000000! 
     730 000043f0     0d5f          calla   display_2dsclstarmodeon
         00004400 00000000! 
     731                    
     732 00004420     1940          movk    10,a0
     733 00004430     0580          move    a0,@WORLDTLX+16
         00004440 00000010! 
     734 00004460     09c0          movi    1000,a0
         00004470     03e8  
     735 00004480     0580          move    a0,@WORLDTLY+16
         00004490 00000010! 
     736                    
     737 000044b0                   SLEEPK  2
     738                    
     739 000044f0     0d5f          calla   display_unblank
         00004500 00000000! 
     740                    
     741 00004520                   CREATE0 showdt_scl
     742                    
     743 00004590                   CREATE0 ck_octopus2
     744                    
     745                    
     746                    
     747                    
     748                    
     749                    
     750 00004600     09e8          movi    hntkdes_t,a8
         00004610 00005680' 
     751 00004630                   JSRP    prt_dt
     752                    
     753 000046a0                   SLEEP   TSEC*4+40
     754                    
     755                    
     756 000046f0     b5a0          move    *a13(PROCID),a0
         00004700     0020  
     757 00004710     0b40          cmpi    DIAG_PID,a0
         00004720     ff7d  
TMS340 COFF Macro Assembler Version 6.10     Tue Dec 19 01:45:12 2023
 Copyright (c) 1985-1991  Texas Instruments Incorporated 

attract mode                                                         PAGE   18

     758 00004730     ca00          jreq    hntksclout                      ;Called from octopuss?
         00004740     00cc  
     759                    
     760 00004750     5600          clr     a0
     761 00004760     09c1          movi    -1,a1
         00004770     ffff  
     762 00004780     0d5f          calla   obj_delc
         00004790 00000000! 
     763                    
     764 000047b0     09e8          movi    thanx_t,a8
         000047c0 00005cf0' 
     765 000047e0                   JSRP    prt_dt
     766                    
     767 00004850     09ca          movi    TSEC*2+50,a10
         00004860     009c  
     768 00004870                   JSRP    time_delay              ;SLEEP  30
     769                            
     770 000048e0     5600          clr     a0
     771 000048f0     09c1          movi    -1,a1
         00004900     ffff  
     772 00004910     0d5f          calla   obj_delc
         00004920 00000000! 
     773                    
     774                    
     775 00004940     09e8          movi    thanx1_t,a8
         00004950 00006270' 
     776 00004970                   JSRP    prt_dt
     777                    
     778 000049e0     09ca          movi    TSEC*2+50,a10
         000049f0     009c  
     779 00004a00                   JSRP    time_delay              ;SLEEP  30
     780                    
     781 00004a70     5600          clr     a0
     782 00004a80     09c1          movi    -1,a1
         00004a90     ffff  
     783 00004aa0     0d5f          calla   obj_delc
         00004ab0 00000000! 
     784                    
     785 00004ad0     09e8          movi    hntkthanx2_t,a8
         00004ae0 00006780' 
     786 00004b00                   JSRP    prt_dt
     787                    
     788 00004b70     09ca          movi    TSEC*2+50,a10
         00004b80     009c  
     789 00004b90                   JSRP    time_delay              ;SLEEP  30
     790                    
     791 00004c00     5600          clr     a0
     792 00004c10     09c1          movi    -1,a1
         00004c20     ffff  
     793 00004c30     0d5f          calla   obj_delc
         00004c40 00000000! 
     794                    
     795 00004c60     09e8          movi    hntkthanx3_t,a8
         00004c70 00006c80' 
     796 00004c90                   JSRP    prt_dt
TMS340 COFF Macro Assembler Version 6.10     Tue Dec 19 01:45:12 2023
 Copyright (c) 1985-1991  Texas Instruments Incorporated 

attract mode                                                         PAGE   19

     797                    
     798 00004d00     09ca          movi    TSEC*2+50,a10
         00004d10     009c  
     799 00004d20                   JSRP    time_delay              ;SLEEP  30
     800                    
     801 00004d90     5600          clr     a0
     802 00004da0     09c1          movi    -1,a1
         00004db0     ffff  
     803 00004dc0     0d5f          calla   obj_delc
         00004dd0 00000000! 
     804                    
     805 00004df0     09e8          movi    hntkthanx4_t,a8
         00004e00 000071a0' 
     806 00004e20                   JSRP    prt_dt
     807                    
     808 00004e90     09ca          movi    TSEC*2+50,a10
         00004ea0     009c  
     809 00004eb0                   JSRP    time_delay              ;SLEEP  30
     810                    
     811 00004f20     5600          clr     a0
     812 00004f30     09c1          movi    -1,a1
         00004f40     ffff  
     813 00004f50     0d5f          calla   obj_delc
         00004f60 00000000! 
     814                    
     815 00004f80     09e8          movi    hntkthanx5_t,a8
         00004f90 000076d0' 
     816 00004fb0                   JSRP    prt_dt
     817                    
     818 00005020     09ca          movi    TSEC*2+50,a10
         00005030     009c  
     819 00005040                   JSRP    time_delay              ;SLEEP  30
     820                    
     821 000050b0     5600          clr     a0
     822 000050c0     09c1          movi    -1,a1
         000050d0     ffff  
     823 000050e0     0d5f          calla   obj_delc
         000050f0 00000000! 
     824                    
     825                    
     826                    
     827 00005110     0d5f          calla   display_blank
         00005120 00000000! 
     828 00005140     0d5f          calla   WIPEOUT
         00005150 00000000! 
     829                    
     830 00005170     1820          movk    1,a0
     831 00005180     0580          move    a0,@dpageflip
         00005190 00000000! 
     832 000051b0     0580          move    a0,@DISPLAYON
         000051c0 00000000! 
     833                    
     834 000051e0     1940          movk    10,a0
     835 000051f0     0580          move    a0,@WORLDTLX+16
         00005200 00000010! 
TMS340 COFF Macro Assembler Version 6.10     Tue Dec 19 01:45:12 2023
 Copyright (c) 1985-1991  Texas Instruments Incorporated 

attract mode                                                         PAGE   20

     836 00005220     09c0          movi    1000,a0
         00005230     03e8  
     837 00005240     0580          move    a0,@WORLDTLY+16
         00005250 00000010! 
     838                    
     839 00005270                   SLEEPK  2
     840                    
     841 000052b0     0d5f          calla   display_unblank
         000052c0 00000000! 
     842                    
     843 000052e0     09e8          movi    hntkthanx6_t,a8
         000052f0 00007ab0' 
     844 00005310                   JSRP    prt_dt2
     845                    
     846 00005380     09ca          movi    TSEC*5,a10
         00005390     0109  
     847 000053a0                   JSRP    time_delay              ;SLEEP  30
     848                    
     849 00005410           hntksclout
     850 00005410                   JSRP    scrn_scaleout
     851                    
     852 00005480     0d5f          calla   display_blank
         00005490 00000000! 
     853 000054b0     0d5f          calla   WIPEOUT
         000054c0 00000000! 
     854                    
     855 000054e0     1820          movk    1,a0
     856 000054f0     0580          move    a0,@dpageflip
         00005500 00000000! 
     857 00005520     0580          move    a0,@DISPLAYON
         00005530 00000000! 
     858                    
     859 00005550     1940          movk    10,a0
     860 00005560     0580          move    a0,@WORLDTLX+16
         00005570 00000010! 
     861 00005590     09c0          movi    1000,a0
         000055a0     03e8  
     862 000055b0     0580          move    a0,@WORLDTLY+16
         000055c0 00000010! 
     863                    
     864 000055e0                   SLEEPK  2
     865                    
     866 00005620     0d5f          calla   display_unblank
         00005630 00000000! 
     867                    
     868 00005650                   RETP
     869                    
     870 00005680           hntkdes_t
     871 00005680                   WL      -1,TURQUSE
     872 000056b0     fffe          .word   -2,118,3
     873 000056e0       44          .byte   "DESIGN TEAM:",0
     874 00005750 00000000          .long   0
     875 00005770                   WL      -1,GOLD
     876 000057a0     fffe          .word   -2,60,37
     877 000057d0       4d          .byte   "MARK TURMELL",0
TMS340 COFF Macro Assembler Version 6.10     Tue Dec 19 01:45:12 2023
 Copyright (c) 1985-1991  Texas Instruments Incorporated 

attract mode                                                         PAGE   21

     878 00005838                   LWW     MRK_TURM,0b2H,032H
     879 00005880       53          .byte   "SHAWN LIPTAK",0
     880 000058e8                   LWW     SHA_LIPM,0f0H,01dH
     881 00005930                   WL      -1,AQUAPAL
     882 00005960       54          .byte   "TONY GOSKIE",0                 ;-6
     883 000059c0                   LWW     TON_GOSM,185,01fH
     884 00005a00       4a          .byte   "JOHN CARLTON",0
     885 00005a68                   LWW     JON_CARM,0ff92H,020H
     886 00005ab0       53          .byte   "SAL DIVITA",0
     887 00005b08                   LWW     SAL_DIVM,0ffa3H,020H
     888 00005b50                   WL      -1,GREENPAL
     889 00005b80       4a          .byte   "JON HEY",0
     890 00005bc0                   LWW     JON_HEYM,0ffbfH,01cH
     891 00005c00                   WL      -1,GOLD
     892 00005c30       4a          .byte   "JAMIE RIVETT",0
     893 00005c98                   LWW     JAM_RIVM,0a0H,018H
     894 00005ce0     0000          .word   0
     895                    
     896 00005cf0           thanx_t
     897 00005cf0                   WL      -1,WHITEPAL
     898 00005d20     fffe          .word   -2,200,3
     899 00005d50       53          .byte   "STARRING:",0
     900 00005da0 00000000          .long   0
     901 00005dc0                   WL      -1,BLUE
     902 00005df0     fffe          .word   -2,200,37
     903 00005e20       53          .byte   "STEPHEN HOWARD",0
     904 00005ea0 00000000          .long   0
     905 00005ec0       57          .byte   "WILLIE MORRIS JR",0
     906 00005f50 00000000          .long   0
     907 00005f70       54          .byte   "TODD MCCLEARN",0
     908 00005fe0 00000000          .long   0
     909 00006000       54          .byte   "TONY SCOTT",0
     910 00006060 00000000          .long   0
     911 00006080       4b          .byte   "KERRI HOSKINS",0
     912 000060f0 00000000          .long   0
     913 00006110       4c          .byte   "LORRAINE OLIVIA",0
     914 00006190 00000000          .long   0
     915 000061b0       41          .byte   "AWARDS BY KAYDAN",0
     916 00006240 00000000          .long   0
     917 00006260     0000          .word   0
     918 00006270           thanx1_t
     919 00006270                   WL      -1,WHITEPAL
     920 000062a0     fffe          .word   -2,200,3
     921 000062d0       48          .byte   "HARDWARE SUPPORT:",0
     922 00006360 00000000          .long   0
     923 00006380                   WL      -1,RUBYPAL
     924 000063b0     fffe          .word   -2,200,37
     925 000063e0       43          .byte   "CARY MEDNICK",0
     926 00006450 00000000          .long   0
     927 00006470       50          .byte   "PAT COX",0
     928 000064b0 00000000          .long   0
     929 000064d0       52          .byte   "RAY MACIKA",0
     930 00006530 00000000          .long   0
     931 00006550       53          .byte   "SHERIDAN OURSLER",0
     932 000065e0 00000000          .long   0
TMS340 COFF Macro Assembler Version 6.10     Tue Dec 19 01:45:12 2023
 Copyright (c) 1985-1991  Texas Instruments Incorporated 

attract mode                                                         PAGE   22

     933 00006600       4d          .byte   "MATT BOOTY",0
     934 00006660 00000000          .long   0
     935 00006680       4a          .byte   "JOHN LOWES",0
     936 000066e0 00000000          .long   0
     937 00006700       41          .byte   "AL LASKO",0
     938 00006750 00000000          .long   0
     939 00006770     0000          .word   0
     940                    
     941                    
     942 00006780           hntkthanx2_t
     943 00006780                   WL      -1,WHITEPAL
     944 000067b0     fffe          .word   -2,200,3
     945 000067e0       53          .byte   "SPECIAL THANKS:",0
     946 00006860 00000000          .long   0
     947 00006880                   WL      -1,RUBYPAL
     948 000068b0     fffe          .word   -2,200,37
     949 000068e0       47          .byte   "GEORGE PETRO",0
     950 00006950 00000000          .long   0
     951 00006970       4a          .byte   "JOHN NEWCOMER",0
     952 000069e0 00000000          .long   0
     953 00006a00       57          .byte   "WARREN DAVIS",0
     954 00006a70 00000000          .long   0
     955 00006a90       45          .byte   "EUGENE JARVIS",0
     956 00006b00 00000000          .long   0
     957 00006b20       4d          .BYTE   "MARK LOFFREDO",0
     958 00006b90 00000000          .long   0
     959 00006bb0       4c          .byte   "L.E.D.",0
     960 00006bf0 00000000          .long   0
     961 00006c10       52          .byte   "RAY GAY",0
     962 00006c50 00000000          .long   0
     963 00006c70     0000          .word   0
     964                    
     965 00006c80           hntkthanx3_t
     966 00006c80                   WL      -1,REDPAL
     967 00006cb0     fffe          .word   -2,200,3
     968 00006ce0       53          .byte   "SPECIAL THANKS:",0
     969 00006d60 00000000          .long   0
     970 00006d80                   WL      -1,PURPLE
     971 00006db0     fffe          .word   -2,200,37
     972 00006de0       42          .byte   "BETTY PURCELL",0
     973 00006e50 00000000          .long   0
     974 00006e70       50          .byte   "PAUL HEITSCH",0
     975 00006ee0 00000000          .long   0
     976 00006f00       43          .byte   "CHRIS GRANNER",0
     977 00006f70 00000000          .long   0
     978 00006f90       4a          .byte   "JIM GREENE",0
     979 00006ff0 00000000          .long   0
     980 00007010       45          .byte   "ED BOON",0
     981 00007050 00000000          .long   0
     982 00007070       4a          .byte   "JOHN TOBIAS",0
     983 000070d0 00000000          .long   0
     984 000070f0       4a          .byte   "JOSH & FLANDERS",0
     985 00007170 00000000          .long   0
     986 00007190     0000          .word   0
     987                    
TMS340 COFF Macro Assembler Version 6.10     Tue Dec 19 01:45:12 2023
 Copyright (c) 1985-1991  Texas Instruments Incorporated 

attract mode                                                         PAGE   23

     988                    
     989 000071a0           hntkthanx4_t
     990 000071a0                   WL      -1,REDPAL
     991 000071d0     fffe          .word   -2,200,3
     992 00007200       53          .byte   "SPECIAL THANKS:",0
     993 00007280 00000000          .long   0
     994 000072a0                   WL      -1,PURPLE
     995 000072d0     fffe          .word   -2,200,37
     996 00007300       44          .byte   "DAN FORDEN",0
     997 00007360 00000000          .long   0
     998 00007380       4c          .byte   "LINDA DEAL",0
     999 000073e0 00000000          .long   0
    1000 00007400       4a          .byte   "JACK HAEGER",0
    1001 00007460 00000000          .long   0
    1002 00007480       52          .byte   "ROGER SHARPE",0
    1003 000074f0 00000000          .long   0
    1004 00007510       4a          .byte   "JAKE SIMPSON",0
    1005 00007580 00000000          .long   0
    1006 000075a0       54          .byte   "TIM KIZEROW",0
    1007 00007600 00000000          .long   0
    1008 00007620       46          .byte   "FELECIA TURMELL",0
    1009 000076a0 00000000          .long   0
    1010 000076c0     0000          .word   0
    1011                    
    1012                    
    1013 000076d0           hntkthanx5_t
    1014 000076d0                   WL      -1,WHITEPAL
    1015 00007700     fffe          .word   -2,200,20
    1016 00007730       45          .byte   "EXECUTIVE PRODUCERS:",0
    1017 000077e0 00000000          .long   0
    1018 00007800                   WL      -1,RUBYPAL
    1019 00007830     fffe          .word   -2,200,80
    1020 00007860       4e          .byte   "NEIL NICASTRO",0
    1021 000078d0 00000000          .long   0
    1022 000078f0       4b          .byte   "KEN FEDESNA",0
    1023 00007950 00000000          .long   0
    1024 00007970       57          .byte   "WALLY SMOLUCHA",0
    1025 000079f0 00000000          .long   0
    1026 00007a10       50          .byte   "PAUL DUSSAULT",0
    1027 00007a80 00000000          .long   0
    1028 00007aa0     0000          .word   0
    1029                    
    1030 00007ab0           hntkthanx6_t
    1031 00007ab0                   WL      -1,SGMD8WHT
    1032 00007ae0     fffe          .word   -2,200-42,25
    1033 00007b10       54          .byte   "THANK YOU:",0
    1034 00007b70 00000000          .long   0
    1035 00007b90                   WL      -1,SGMD8VIO
    1036 00007bc0     fffe          .word   -2,40,60
    1037 00007bf0       4d          .byte   "MANY INTERNET USERS",0
    1038 00007c90 00000000          .long   0
    1039 00007cb0       52          .byte   "RANDOLPH VANCE",0
    1040 00007d30 00000000          .long   0
    1041 00007d50       57          .byte   "WILLIAM HENDERSON",0
    1042 00007de0 00000000          .long   0
TMS340 COFF Macro Assembler Version 6.10     Tue Dec 19 01:45:12 2023
 Copyright (c) 1985-1991  Texas Instruments Incorporated 

attract mode                                                         PAGE   24

    1043 00007e00       52          .byte   "RAY KIRKLAND",0
    1044 00007e70 00000000          .long   0
    1045 00007e90       4d          .byte   "MIKE DAVIDSON",0
    1046 00007f00 00000000          .long   0
    1047 00007f20       4c          .byte   "LEWIS PODLASZEWSKI",0
    1048 00007fc0 00000000          .long   0
    1049 00007fe0       41          .byte   "ANDREW PODLASZEWSKI",0
    1050 00008080 00000000          .long   0
    1051 000080a0       53          .byte   "SEAN STEWART",0
    1052 00008110 00000000          .long   0
    1053 00008130       43          .byte   "CHRIS JOHNSON",0
    1054 000081a0 00000000          .long   0
    1055 000081c0       43          .byte   "CHRIS CANIANO",0
    1056 00008230 00000000          .long   0
    1057 00008250       45          .byte   "ERIC HOLMA",0
    1058 000082b0 00000000          .long   0
    1059 000082d0       4d          .byte   "MIKE OVERBY",0
    1060 00008330 00000000          .long   0
    1061 00008350     fffe          .word   -2,250,60
    1062 00008380       43          .byte   "CASEY",0
    1063 000083b0 00000000          .long   0
    1064 000083d0       56          .byte   "VINCE FIELDS",0
    1065 00008440 00000000          .long   0
    1066 00008460       44          .byte   "DAVE EDENZON",0
    1067 000084d0 00000000          .long   0
    1068 000084f0       52          .byte   "RIC RORSCHACH",0
    1069 00008560 00000000          .long   0
    1070 00008580       44          .byte   "DARYL GREEN",0
    1071 000085e0 00000000          .long   0
    1072 00008600       4a          .byte   "JERRY CATTELL",0
    1073 00008670 00000000          .long   0
    1074 00008690       53          .byte   "SHAWN PETREN",0
    1075 00008700 00000000          .long   0
    1076 00008720       43          .byte   "CHUCK HOROWITZ",0
    1077 000087a0 00000000          .long   0
    1078 000087c0       4d          .byte   "MACE",0
    1079 000087f0 00000000          .long   0
    1080 00008810       4a          .byte   "JIM HSU",0
    1081 00008850 00000000          .long   0
    1082 00008870       4a          .byte   "JASON DRISKO",0
    1083 000088e0 00000000          .long   0
    1084 00008900       43          .byte   "CARL CHAVEZ",0
    1085 00008960 00000000          .long   0
    1086 00008980     0000          .word   0
    1087                    
    1088 00008990                   .even
    1089                    
    1090                    
    1091 00008990            SUBRP  prt_dt
    1092 00008990     c060          jruc    lduynxt
    1093                    
    1094 000089a0           lduyprtlp
    1095 000089a0     0b40          cmpi    -1,a0
         000089b0     0000  
    1096 000089c0     cb06          jrne    lduynopal
TMS340 COFF Macro Assembler Version 6.10     Tue Dec 19 01:45:12 2023
 Copyright (c) 1985-1991  Texas Instruments Incorporated 

attract mode                                                         PAGE   25

    1097                    
    1098 000089d0     9700          move    *a8+,a0,L       ;0CHhange pal
    1099 000089e0     0d5f          calla   pal_getf
         000089f0 00000000! 
    1100 00008a10     4c06          move    a0,a6
    1101 00008a20     c057          jruc    lduynxt
    1102                    
    1103 00008a30           lduynopal
    1104 00008a30     0b40          cmpi    -2,a0           ;>New XY
         00008a40     0001  
    1105 00008a50     cb02          jrne    lduynoxy
    1106 00008a60     9709          move    *a8+,a9,L
    1107 00008a70     c052          jruc    lduynxt
    1108                    
    1109 00008a80           lduynoxy
    1110 00008a80     1608          subk    16,a8
    1111 00008a90     5600          clr     a0
    1112 00008aa0     182a          movk    1,a10
    1113 00008ab0     09eb          movi    osgfont_t,a11
         00008ac0 00009450' 
    1114 00008ae0                   PUSHP   a9
    1115                    
    1116 00008af0     0b68          cmpi    thanx_t,a8
         00008b00 ffffa30f' 
    1117 00008b20     c508          jrge    lduycn
    1118                    
    1119 00008b30                   JSRP    STRLNRMO_1
    1120 00008ba0     c007          jruc    lduycnx
    1121                    
    1122 00008bb0           lduycn
    1123                            .ref    STRCNRMO_1
    1124 00008bb0                   JSRP    STRCNRMO_1
    1125 00008c20           lduycnx
    1126 00008c20                   PULLP   a9
    1127                    
    1128 00008c30     11e8          addk    15,a8
    1129 00008c40     2f88          srl     4,a8
    1130 00008c50     2488          sll     4,a8
    1131 00008c60     9702          move    *a8+,a2,L
    1132 00008c70     ca15          jrz     lduynoobj                       ;No object?
    1133                    
    1134 00008c80     9700          move    *a8+,a0,L
    1135 00008c90                   PUSH    a6,a8
    1136                    
    1137 00008cb0     e120          addxy   a9,a0
    1138 00008cc0     5621          clr     a1
    1139 00008cd0     ee01          movy    a0,a1                   ;Y
    1140 00008ce0     2600          sll     16,a0                   ;X
    1141 00008cf0     09c3          movi    500,a3                  ;Z
         00008d00     01f4  
    1142 00008d10     09e4          movi    DMAWNZ|M_NOCOLL|M_SCRNREL,a4
         00008d20 0000a802  
    1143 00008d40     09c5          movi    CLSDEAD,a5
         00008d50     2000  
    1144 00008d60     56c6          clr     a6
TMS340 COFF Macro Assembler Version 6.10     Tue Dec 19 01:45:12 2023
 Copyright (c) 1985-1991  Texas Instruments Incorporated 

attract mode                                                         PAGE   26

    1145 00008d70     56e7          clr     a7
    1146 00008d80     0d5f          calla   BEGINOBJ2
         00008d90 00000000! 
    1147                    
    1148 00008db0                   PULL    a6,a8
    1149 00008dd0           lduynoobj
    1150 00008dd0     0b29          addi    [30,0],a9
         00008de0 001e0000  
    1151 00008e00     0b68          cmpi    thanx_t,a8
         00008e10 ffffa30f' 
    1152 00008e30     c502          jrge    lduycn2
    1153 00008e40     0b09          addi    [0,15],a9
         00008e50     000f  
    1154 00008e60           lduycn2
    1155                    
    1156 00008e60     09ee          movi    OBJLST,a14
         00008e70 00000000! 
    1157                    
    1158 00008e90     87ce  lduyolp move    *a14,a14,L      ;A14=*Next
    1159 00008ea0     ca09          jrz     lduyoend
    1160 00008eb0     b7c0          move    *a14(ODATA_p),a0,L
         00008ec0     01c0  
    1161 00008ed0     cbfb          jrnz    lduyolp
    1162 00008ee0     09e1          movi    [0320H,0320H],a1
         00008ef0 03200320  
    1163 00008f10     b22e          move    a1,*a14(ODATA_p),L
         00008f20     01c0  
    1164 00008f30     c0f5          jruc    lduyolp
    1165 00008f40           lduyoend
    1166                    
    1167 00008f40                   PUSHP   a6
    1168 00008f50                   SLEEPK  20
    1169 00008f90                   PULLP   a6
    1170 00008fa0           lduynxt
    1171 00008fa0     9500          move    *a8+,a0
    1172 00008fb0     cb9e          jrnz    lduyprtlp
    1173 00008fc0                   RETP
    1174                    
    1175                    
    1176                    
    1177 00008ff0            SUBRP  prt_dt2
    1178 00008ff0     c040          jruc    fzlpnxt
    1179                    
    1180 00009000           fzlpprtlp
    1181 00009000     0b40          cmpi    -1,a0
         00009010     0000  
    1182 00009020     cb06          jrne    fzlpnopal
    1183                    
    1184 00009030     9700          move    *a8+,a0,L       ;0CHhange pal
    1185 00009040     0d5f          calla   pal_getf
         00009050 00000000! 
    1186 00009070     4c06          move    a0,a6
    1187 00009080     c037          jruc    fzlpnxt
    1188                    
    1189 00009090           fzlpnopal
TMS340 COFF Macro Assembler Version 6.10     Tue Dec 19 01:45:12 2023
 Copyright (c) 1985-1991  Texas Instruments Incorporated 

attract mode                                                         PAGE   27

    1190 00009090     0b40          cmpi    -2,a0           ;>New XY
         000090a0     0001  
    1191 000090b0     cb02          jrne    fzlpnoxy
    1192 000090c0     9709          move    *a8+,a9,L
    1193 000090d0     c032          jruc    fzlpnxt
    1194                    
    1195 000090e0           fzlpnoxy
    1196 000090e0     1608          subk    16,a8
    1197 000090f0     5600          clr     a0
    1198 00009100     182a          movk    1,a10
    1199 00009110     09eb          movi    osgfont8_t,a11
         00009120 00009c70' 
    1200 00009140                   PUSHP   a9
    1201                    
    1202                    
    1203 00009150                   JSRP    STRLNRMO_1
    1204 000091c0                   PULLP   a9
    1205                    
    1206 000091d0     11e8          addk    15,a8
    1207 000091e0     2f88          srl     4,a8
    1208 000091f0     2488          sll     4,a8
    1209 00009200     9702          move    *a8+,a2,L
    1210 00009210     ca15          jrz     fzlpnoobj                       ;No object?
    1211                    
    1212 00009220     9700          move    *a8+,a0,L
    1213 00009230                   PUSH    a6,a8
    1214                    
    1215 00009250     e120          addxy   a9,a0
    1216 00009260     5621          clr     a1
    1217 00009270     ee01          movy    a0,a1                   ;Y
    1218 00009280     2600          sll     16,a0                   ;X
    1219 00009290     09c3          movi    500,a3                  ;Z
         000092a0     01f4  
    1220 000092b0     09e4          movi    DMAWNZ|M_NOCOLL|M_SCRNREL,a4
         000092c0 0000a802  
    1221 000092e0     09c5          movi    CLSDEAD,a5
         000092f0     2000  
    1222 00009300     56c6          clr     a6
    1223 00009310     56e7          clr     a7
    1224 00009320     0d5f          calla   BEGINOBJ2
         00009330 00000000! 
    1225                    
    1226 00009350                   PULL    a6,a8
    1227 00009370           fzlpnoobj
    1228 00009370     0b29          addi    [15,0],a9
         00009380 000f0000  
    1229                    
    1230                    
    1231 000093a0                   PUSHP   a6
    1232 000093b0                   SLEEPK  10
    1233 000093f0                   PULLP   a6
    1234 00009400           fzlpnxt
    1235 00009400     9500          move    *a8+,a0
    1236 00009410     cbbe          jrnz    fzlpprtlp
    1237 00009420                   RETP
TMS340 COFF Macro Assembler Version 6.10     Tue Dec 19 01:45:12 2023
 Copyright (c) 1985-1991  Texas Instruments Incorporated 

attract mode                                                         PAGE   28

    1238                    
    1239                            .def    osgfont_t
    1240 00009450           osgfont_t
    1241 00009450 00000000!         .long   OSGEMD_EXP,OSGEMD_APO,OSGEMD_NUM,OSGEMD_DOL     ;!"#$
    1242 000094d0 00000000!         .long   OSGEMD_SPC,OSGEMD_AND,OSGEMD_APO,OSGEMD_OBR     ;%&'(
    1243 00009550 00000000!         .long   OSGEMD_CBR,OSGEMD_SPC,OSGEMD_SPC,OSGEMD_SPC     ;)*+,
    1244 000095d0 00000000!         .long   OSGEMD_DAS,OSGEMD_DOT,OSGEMD_SLS                ;-./
    1245 00009630 00000000!         .long   OSGEMD_0,OSGEMD_1,OSGEMD_2,OSGEMD_3,OSGEMD_4
    1246 000096d0 00000000!         .long   OSGEMD_5,OSGEMD_6,OSGEMD_7,OSGEMD_8,OSGEMD_9
    1247 00009770 00000000!         .long   OSGEMD_COL,OSGEMD_SPC,OSGEMD_SPC,OSGEMD_SPC     ;:;<=
    1248 000097f0 00000000!         .long   OSGEMD_SPC,OSGEMD_QUE,OSGEMD_SPC                ;>?@
    1249 00009850 00000000!         .long   OSGEMD_A,OSGEMD_B,OSGEMD_C,OSGEMD_D
    1250 000098d0 00000000!         .long   OSGEMD_E,OSGEMD_F,OSGEMD_G,OSGEMD_H
    1251 00009950 00000000!         .long   OSGEMD_I,OSGEMD_J,OSGEMD_K,OSGEMD_L
    1252 000099d0 00000000!         .long   OSGEMD_M,OSGEMD_N,OSGEMD_O,OSGEMD_P
    1253 00009a50 00000000!         .long   OSGEMD_Q,OSGEMD_R,OSGEMD_S,OSGEMD_T
    1254 00009ad0 00000000!         .long   OSGEMD_U,OSGEMD_V,OSGEMD_W,OSGEMD_X
    1255 00009b50 00000000!         .long   OSGEMD_Y,OSGEMD_Z
    1256 00009b90 00000000!         .long   OSGEMD_SPC,OSGEMD_SPC,OSGEMD_SPC,OSGEMD_END     ;[\]^
    1257 00009c10 00000000!         .long   OSGEMD_BAK,OSGEMD_SPC,OSGEMD_SPC                ;_`
    1258                    
    1259                    
    1260 00009c70           osgfont8_t
    1261 00009c70 00000000!         .long   OSGEMD_EXP,OSGEMD_APO,OSGEMD_NUM,OSGEMD_DOL     ;!"#$
    1262 00009cf0 00000000!         .long   OSGEMD_SPC,OSGEMD_AND,OSGEMD_APO,OSGEMD_OBR     ;%&'(
    1263 00009d70 00000000!         .long   OSGEMD_CBR,OSGEMD_SPC,OSGEMD_SPC,OSGEMD_SPC     ;)*+,
    1264 00009df0 00000000!         .long   OSGEMD_DAS,OSGEMD_DOT,OSGEMD_SLS                ;-./
    1265 00009e50 00000000!         .long   SGMD8_0,SGMD8_1,SGMD8_2,SGMD8_3
    1266 00009ed0 00000000!         .long   SGMD8_4,SGMD8_5,SGMD8_6,SGMD8_7
    1267 00009f50 00000000!         .long   SGMD8_8,SGMD8_9
    1268 00009f90 00000000!         .long   SGMD8_COL,OSGEMD_SPC,OSGEMD_SPC,OSGEMD_SPC      ;:;<=
    1269 0000a010 00000000!         .long   OSGEMD_SPC,OSGEMD_QUE,OSGEMD_SPC                ;>?@
    1270 0000a070 00000000!         .long   SGMD8_A,SGMD8_B,SGMD8_C,SGMD8_D
    1271 0000a0f0 00000000!         .long   SGMD8_E,SGMD8_F,SGMD8_G,SGMD8_H
    1272 0000a170 00000000!         .long   SGMD8_I,SGMD8_J,SGMD8_K,SGMD8_L
    1273 0000a1f0 00000000!         .long   SGMD8_M,SGMD8_N,SGMD8_O,SGMD8_P
    1274 0000a270 00000000!         .long   SGMD8_Q,SGMD8_R,SGMD8_S,SGMD8_T
    1275 0000a2f0 00000000!         .long   SGMD8_U,SGMD8_V,SGMD8_W,SGMD8_X
    1276 0000a370 00000000!         .long   SGMD8_Y,SGMD8_Z
    1277 0000a3b0 00000000!         .long   OSGEMD_SPC,OSGEMD_SPC,OSGEMD_SPC,OSGEMD_END     ;[\]^
    1278 0000a430 00000000!         .long   OSGEMD_BAK,OSGEMD_SPC,OSGEMD_SPC                ;_`
    1279                    
    1280                    
    1281                    
    1282                    
    1283                            .ref    octopus2                
    1284                    
    1285 0000a490           ck_octopus2
    1286                    
    1287 0000a490     574a          clr     a10
    1288 0000a4a0     09e9          movi    butn_lst,a9
         0000a4b0 0000a700' 
    1289                    
    1290 0000a4d0           xvlqlp  SLEEPK  1
    1291                    
TMS340 COFF Macro Assembler Version 6.10     Tue Dec 19 01:45:12 2023
 Copyright (c) 1985-1991  Texas Instruments Incorporated 

attract mode                                                         PAGE   29

    1292 0000a510     05a0          move    @SWITCH,a0
         0000a520 01600000  
    1293 0000a540     0520          zext    a0
    1294 0000a550     0b60          cmpi    0ffffH,a0
         0000a560 ffff0000  
    1295 0000a580     cb02          jrnz    xvlqtag1
    1296 0000a590     576b          clr     a11
    1297 0000a5a0     c0f2          jruc    xvlqlp
    1298                    
    1299 0000a5b0     4d6b  xvlqtag1        move    a11,a11
    1300 0000a5c0     cbf0          jrnz    xvlqlp
    1301                    
    1302 0000a5d0     102b          inc     a11
    1303                    
    1304 0000a5e0     8521          move    *a9,a1,W
    1305 0000a5f0     0521          zext    a1
    1306 0000a600     4801          cmp     a0,a1
    1307 0000a610     ca04          jrz     xvlqyes
    1308 0000a620     09e9          movi    butn_lst,a9
         0000a630 0000a700' 
    1309 0000a650     c0e7          jruc    xvlqlp
    1310 0000a660     1209  xvlqyes addk    16,a9
    1311 0000a670     8520          move    *a9,a0
    1312 0000a680     cbe4          jrnz    xvlqlp
    1313 0000a690     1820          movk    1,a0
    1314 0000a6a0     0580          move    a0,@octopus2            
         0000a6b0 00000000! 
    1315                    
    1316 0000a6d0                   DIE
    1317                    
    1318 0000a700           butn_lst
    1319                    
    1320                    
    1321 0000a700     ffbf          .word   0ffbfH,0ffbfH,0efffH,0efffH,0efffH,0dfffH,0dfffH
    1322 0000a770     ffef          .word   0ffefH,0ffdfH,0bfffH,0bfffH,0
    1323                    
    1324                    
    1325                    
    1326 0000a7c0           showdt_scl
    1327 0000a7c0           tguclp
    1328 0000a7c0     09ee          movi    OBJLST,a14
         0000a7d0 00000000! 
    1329                    
    1330 0000a7f0     87ce  tgucolp move    *a14,a14,L      ;A14=*Next
    1331 0000a800     ca0c          jrz     tgucoend
    1332 0000a810     b7c0          move    *a14(ODATA_p),a0,L
         0000a820     01c0  
    1333 0000a830     0b60          cmpi    [0100H,0100H],a0
         0000a840 fefffeff  
    1334 0000a860     c6f8          jrle    tgucolp
    1335 0000a870     0d00          subi    [010H,010H],a0
         0000a880 ffefffef  
    1336 0000a8a0     b20e          move    a0,*a14(ODATA_p),L
         0000a8b0     01c0  
    1337 0000a8c0     c0f2          jruc    tgucolp
TMS340 COFF Macro Assembler Version 6.10     Tue Dec 19 01:45:12 2023
 Copyright (c) 1985-1991  Texas Instruments Incorporated 

attract mode                                                         PAGE   30

    1338 0000a8d0           tgucoend
    1339 0000a8d0                   SLEEPK  1
    1340 0000a910     c0ea          jruc    tguclp
    1341                    
    1342                    
    1343                    
    1344                    
    1345                            .if     0
    1346                    
    1347                     SUBRP  drw_love
    1348                    
    1349                            calla   display_blank
    1350                            calla   WIPEOUT
    1351                    
    1352                            clr     a0
    1353                            move    a0,@dtype               ;2D
    1354                    
    1355                            movk    1,a0                    ;page flipping on
    1356                            move    a0,@dpageflip
    1357                    
    1358                            movi    SCRNEND,a0              ;[256,405]
    1359                            move    a0,@SCRNLR,L
    1360                    
    1361                            clr     a0
    1362                            move    a0,@WORLDTLX,L
    1363                            move    a0,@WORLDTLY,L
    1364                            move    a0,@IRQSKYE
    1365                    
    1366                            SLEEPK  2
    1367                    
    1368                            movi    mwcolove_mod,a0
    1369                            move    a0,@BAKMODS,L
    1370                            calla   BGND_UD1
    1371                    
    1372                            clr     a10
    1373                            movk    16,a11
    1374                            CREATE0 fade_up
    1375                    
    1376                            movk    1,a0
    1377                            move    a0,@DISPLAYON
    1378                    
    1379                            SLEEPK  2
    1380                            calla   display_unblank
    1381                    
    1382                            SLEEP   1*TSEC+30
    1383                    
    1384                            movi    4*TSEC,a10
    1385                    mwcolp  SLEEPK  1
    1386                            calla   get_all_buttons_cur2
    1387                            jrz     mwconob
    1388                            clr     a0
    1389                            move    a0,@SOUNDSUP            ;turn all sounds on
    1390                            SOUND1  bounce_snd
    1391                            movk    1,a0
    1392                            move    a0,@SOUNDSUP            ;turn all sounds off
TMS340 COFF Macro Assembler Version 6.10     Tue Dec 19 01:45:12 2023
 Copyright (c) 1985-1991  Texas Instruments Incorporated 

attract mode                                                         PAGE   31

    1393                            jruc    mwcoxb
    1394                    mwconob 
    1395                            dsj     a10,mwcolp
    1396                    mwcoxb
    1397                    
    1398                            clr     a10
    1399                            movk    8,a11
    1400                            CREATE0 fade_down
    1401                    
    1402                            SLEEP   40
    1403                    
    1404                            RETP
    1405                    
    1406                    mwcolove_mod
    1407                            .long   loveBMOD
    1408                            .word   1ch,14h
    1409                            .long   0
    1410                    
    1411                    
    1412                    
    1413                     SUBRP  drw_school
    1414                    
    1415                            calla   display_blank
    1416                            calla   WIPEOUT
    1417                    
    1418                            clr     a0
    1419                            move    a0,@dtype               ;2D
    1420                    
    1421                            movk    1,a0                    ;page flipping on
    1422                            move    a0,@dpageflip
    1423                    
    1424                            movi    SCRNEND,a0              ;[256,405]
    1425                            move    a0,@SCRNLR,L
    1426                    
    1427                            clr     a0
    1428                            move    a0,@WORLDTLX,L
    1429                            move    a0,@WORLDTLY,L
    1430                            move    a0,@IRQSKYE
    1431                    
    1432                            SLEEPK  2
    1433                    
    1434                            movi    [200,0],a0
    1435                            movi    [60-26,0],a1
    1436                            movi    stay,a2                 ;* image
    1437                            movi    19001,a3                        ;z pos
    1438                            movi    DMAWNZ|M_SCRNREL,a4             ;DMA flags
    1439                            movi    0,a5                            ;object ID
    1440                            clr     a6                              ;x vel
    1441                            clr     a7                              ;y vel
    1442                            calla   BEGINOBJ2
    1443                    
    1444                            clr     a10
    1445                            movk    16,a11
    1446                            CREATE0 fade_up
    1447                    
TMS340 COFF Macro Assembler Version 6.10     Tue Dec 19 01:45:12 2023
 Copyright (c) 1985-1991  Texas Instruments Incorporated 

attract mode                                                         PAGE   32

    1448                            movk    1,a0
    1449                            move    a0,@DISPLAYON
    1450                    
    1451                            SLEEPK  2
    1452                    
    1453                            calla   display_unblank
    1454                    
    1455                            SLEEP   1*TSEC+30
    1456                    
    1457                            movi    3*TSEC,a10
    1458                    bogjlp  SLEEPK  1
    1459                            calla   get_all_buttons_cur2
    1460                            jrz     bogjnob
    1461                            clr     a0
    1462                            move    a0,@SOUNDSUP            ;turn all sounds on
    1463                            SOUND1  bounce_snd
    1464                            movk    1,a0
    1465                            move    a0,@SOUNDSUP            ;turn all sounds off
    1466                            jruc    bogjxb
    1467                    bogjnob 
    1468                            dsj     a10,bogjlp
    1469                    bogjxb
    1470                    
    1471                            clr     a10
    1472                            movk    8,a11
    1473                            CREATE0 fade_down
    1474                    
    1475                            SLEEP   40
    1476                    
    1477                            RETP
    1478                    
    1479                            .endif
    1480                    
    1481                    
    1482                    
    1483 0000a920            SUBRP  drw_stars
    1484                    
    1485 0000a920     0d5f          calla   display_blank
         0000a930 00000000! 
    1486 0000a950     0d5f          calla   WIPEOUT
         0000a960 00000000! 
    1487                    
    1488 0000a980     5600          clr     a0
    1489 0000a990     0580          move    a0,@dtype               ;2D
         0000a9a0 00000000! 
    1490                    
    1491 0000a9c0     1820          movk    1,a0                    ;page flipping on
    1492 0000a9d0     0580          move    a0,@dpageflip
         0000a9e0 00000000! 
    1493                    
    1494 0000aa00     09e0          movi    SCRNEND,a0              ;[256,405]
         0000aa10 00fe01b0  
    1495 0000aa30     0780          move    a0,@SCRNLR,L
         0000aa40 00000000! 
    1496                    
TMS340 COFF Macro Assembler Version 6.10     Tue Dec 19 01:45:12 2023
 Copyright (c) 1985-1991  Texas Instruments Incorporated 

attract mode                                                         PAGE   33

    1497 0000aa60     5600          clr     a0
    1498 0000aa70     0780          move    a0,@WORLDTLX,L
         0000aa80 00000000! 
    1499 0000aaa0     0780          move    a0,@WORLDTLY,L
         0000aab0 00000000! 
    1500 0000aad0     0580          move    a0,@IRQSKYE
         0000aae0 00000000! 
    1501                    
    1502 0000ab00                   SLEEPK  2
    1503                    
    1504 0000ab40     09e0          movi    coinin_mod,a0
         0000ab50 0000b090' 
    1505 0000ab70     0780          move    a0,@BAKMODS,L
         0000ab80 00000000! 
    1506 0000aba0     0d5f          calla   BGND_UD1
         0000abb0 00000000! 
    1507                    
    1508 0000abd0     574a          clr     a10
    1509 0000abe0     1a0b          movk    16,a11
    1510 0000abf0                   CREATE0 fade_up
    1511                    
    1512 0000ac60     1820          movk    1,a0
    1513 0000ac70     0580          move    a0,@DISPLAYON
         0000ac80 00000000! 
    1514                    
    1515 0000aca0                   SLEEPK  2
    1516                    
    1517 0000ace0     0d5f          calla   display_unblank
         0000acf0 00000000! 
    1518                    
    1519 0000ad10     1820          movk    1,a0
    1520 0000ad20     0580          MOVE    A0,@SOUNDSUP,W          ;TURN ALL SOUNDS ON
         0000ad30 00000000! 
    1521 0000ad50                   ADJUST  ADJMUSIC                ;GET MUSIC ON OFF FOR DEMO
    1522 0000ada0     4c00          MOVE    A0,A0
    1523 0000adb0     cb0a          JRNZ    ygibNONO1
    1524 0000adc0     5600          CLR     A0
    1525 0000add0     0580          MOVE    A0,@SOUNDSUP,W          ;TURN ALL SOUNDS ON
         0000ade0 00000000! 
    1526                    
    1527 0000ae00     09e0          movi    tuneend1_snd,a0
         0000ae10 00000080' 
    1528 0000ae30     0d5f          calla   snd_play1ovr
         0000ae40 00000000! 
    1529                    
    1530 0000ae60           ygibNONO1
    1531                    
    1532                            .ref    starring
    1533 0000ae60                   JSRP    starring
    1534                    
    1535                    
    1536 0000aed0                   SLEEP   30
    1537                    
    1538 0000af20     574a          clr     a10
    1539 0000af30     190b          movk    8,a11
TMS340 COFF Macro Assembler Version 6.10     Tue Dec 19 01:45:12 2023
 Copyright (c) 1985-1991  Texas Instruments Incorporated 

attract mode                                                         PAGE   34

    1540 0000af40                   CREATE0 fade_down
    1541                    
    1542 0000afb0                   SLEEP   40
    1543 0000b000     09e0          movi    musicoff_snd,a0
         0000b010 00000000! 
    1544 0000b030     0d5f          calla   snd_play1ovr
         0000b040 00000000! 
    1545                    
    1546 0000b060                   RETP
    1547                    
    1548                    
    1549 0000b090           coinin_mod
    1550 0000b090 00000000!         .long   viewfrtBMOD
    1551 0000b0b0     0000          .word   0,5
    1552 0000b0d0 00000000          .long   0
    1553                    
    1554                    
    1555                    
    1556                    
    1557 0000b0f0            SUBRP  drw_ladder
    1558                    
    1559 0000b0f0     0d5f          calla   display_blank
         0000b100 00000000! 
    1560 0000b120     0d5f          calla   WIPEOUT
         0000b130 00000000! 
    1561 0000b150     0d5f          calla   pal_clean
         0000b160 00000000! 
    1562                    
    1563 0000b180     5600          clr     a0
    1564 0000b190     0580          move    a0,@dtype               ;2D
         0000b1a0 00000000! 
    1565 0000b1c0     0580          move    a0,@HALT
         0000b1d0 00000000! 
    1566                    
    1567 0000b1f0     1820          movk    1,a0                    ;page flipping on
    1568 0000b200     0580          move    a0,@dpageflip
         0000b210 00000000! 
    1569                    
    1570 0000b230     09e0          movi    SCRNEND,a0              ;[256,405]
         0000b240 00fe01b0  
    1571 0000b260     0780          move    a0,@SCRNLR,L
         0000b270 00000000! 
    1572                    
    1573 0000b290     5600          clr     a0
    1574 0000b2a0     0780          move    a0,@WORLDTLX,L
         0000b2b0 00000000! 
    1575 0000b2d0     09e0          movi    [13*360-8,0],a0
         0000b2e0 12400000  
    1576 0000b300     0780          move    a0,@WORLDTLY,L
         0000b310 00000000! 
    1577                    
    1578 0000b330                   SLEEPK  2
    1579                    
    1580 0000b370     09e0          movi    kndfladder_mod,a0
         0000b380 0000cd30' 
TMS340 COFF Macro Assembler Version 6.10     Tue Dec 19 01:45:12 2023
 Copyright (c) 1985-1991  Texas Instruments Incorporated 

attract mode                                                         PAGE   35

    1581 0000b3a0     0780          move    a0,@BAKMODS,L
         0000b3b0 00000000! 
    1582 0000b3d0     0d5f          calla   BGND_UD1
         0000b3e0 00000000! 
    1583                    
    1584 0000b400                   CREATE0 deloff
    1585                    
    1586 0000b470                   CREATE0 drw_teams
    1587                    
    1588 0000b4e0                   SLEEPK  2
    1589                    
    1590 0000b520     574a          clr     a10
    1591 0000b530     1a0b          movk    16,a11
    1592 0000b540                   CREATE0 fade_up
    1593                    
    1594 0000b5b0     1820          movk    1,a0
    1595 0000b5c0     0580          move    a0,@DISPLAYON
         0000b5d0 00000000! 
    1596 0000b5f0                   SLEEPK  2
    1597 0000b630     0d5f          calla   display_unblank
         0000b640 00000000! 
    1598                    
    1599                    
    1600 0000b660                   SLEEP   2*60
    1601                    
    1602 0000b6b0                   CREATE0 drwnbalogoUP
    1603                    
    1604 0000b720     09ca          movi    0772H-4,a10
         0000b730     076e  
    1605 0000b740           kndflp  SLEEPK  1
    1606 0000b780     07a0          move    @WORLDTLY,a0,L
         0000b790 00000000! 
    1607 0000b7b0     0d00          subi    [2,8000h],a0
         0000b7c0 fffd7fff  
    1608 0000b7e0     0780          move    A0,@WORLDTLY,L
         0000b7f0 00000000! 
    1609 0000b810     0d5f          calla   BGND_UD1
         0000b820 00000000! 
    1610                    
    1611                    
    1612 0000b840     0d5f          calla   get_all_buttons_cur2
         0000b850 00000000! 
    1613 0000b870     ca0f          jrz     kndfnob
    1614 0000b880     5600          clr     a0
    1615 0000b890     0580          move    a0,@SOUNDSUP            ;turn all sounds on
         0000b8a0 00000000! 
    1616 0000b8c0                   SOUND1  bounce_snd
    1617 0000b920     1820          movk    1,a0
    1618 0000b930     0580          move    a0,@SOUNDSUP            ;turn all sounds off
         0000b940 00000000! 
    1619 0000b960     c007          jruc    kndfxb
    1620 0000b970     0d8a  kndfnob dsj     a10,kndflp
         0000b980     ffdb  
    1621                    
    1622 0000b990                   SLEEP   4*64
TMS340 COFF Macro Assembler Version 6.10     Tue Dec 19 01:45:12 2023
 Copyright (c) 1985-1991  Texas Instruments Incorporated 

attract mode                                                         PAGE   36

    1623                    
    1624 0000b9e0           kndfxb
    1625                    
    1626 0000b9e0     5621          clr     a1
    1627 0000b9f0     09e2          movi    FADERAM,a2
         0000ba00 00000000! 
    1628                    
    1629 0000ba20     09c0          movi    100,a0                  ;uhl to clear
         0000ba30     0064  
    1630 0000ba40           clrlup:
    1631 0000ba40     9222          move    a1,*a2+,L
    1632 0000ba50     3c40          dsjs    a0,clrlup
    1633                    
    1634 0000ba60     09e9          movi    FADERAM,a9
         0000ba70 00000000! 
    1635 0000ba90     07a8          move    @OBJLST,a8,L            ;look through the fgndlist
         0000baa0 00000000! 
    1636 0000bac0     ca13          jreq    ofail                   ;does not exist! indicate error
    1637 0000bad0           chkfobj:
    1638 0000bad0     0d5f          calla   SCRTST                  ;test for object on screen
         0000bae0 00000000! 
    1639 0000bb00     ca01          jreq    onscrn                  ;object is definitely on screen!
    1640 0000bb10     9309          move    a8,*a9+,L               ;dump into ram stack
    1641 0000bb20           onscrn:
    1642 0000bb20     b708          move    *a8(OLINK),a8,L         ;let's search for another
         0000bb30     0000  
    1643 0000bb40     cbf8          jrne    chkfobj
    1644 0000bb50     5600          clr     a0
    1645 0000bb60     8209          move    a0,*a9,L                ;terminate table
    1646                    
    1647 0000bb70           objpull:
    1648 0000bb70     09e9          movi    FADERAM,a9
         0000bb80 00000000! 
    1649 0000bba0           lupobj:
    1650 0000bba0     9720          move    *a9+,a0,L
    1651 0000bbb0     ca04          jrz     ofail                   ;no object list exits!
    1652 0000bbc0     0d5f          calla   DELOBJ                  ;delete object from list
         0000bbd0 00000000! 
    1653 0000bbf0     c0fa          jruc    lupobj
    1654                    
    1655 0000bc00           ofail:
    1656                    
    1657 0000bc00     0d5f          calla   pal_clean
         0000bc10 00000000! 
    1658                    
    1659 0000bc30     574a          clr     a10
    1660 0000bc40     190b          movk    8,a11
    1661 0000bc50                   CREATE0 fade_down
    1662                    
    1663 0000bcc0                   SLEEP   22h
    1664 0000bd10                   RETP
    1665                    
    1666                    
    1667 0000bd40           drwnbalogoUP
    1668                    
TMS340 COFF Macro Assembler Version 6.10     Tue Dec 19 01:45:12 2023
 Copyright (c) 1985-1991  Texas Instruments Incorporated 

attract mode                                                         PAGE   37

    1669 0000bd40                   SLEEP   1*60
    1670 0000bd90           kndfdrw
    1671 0000bd90     09eb          movi    [60,0],a11
         0000bda0 003c0000  
    1672 0000bdc0     09e9          movi    TSMLOGO,a9
         0000bdd0 00000000! 
    1673 0000bdf0                   CREATE0 logo_drift
    1674 0000be60     09eb          movi    [334,0],a11
         0000be70 014e0000  
    1675 0000be90     09e9          movi    TSMLOGO,a9
         0000bea0 00000000! 
    1676 0000bec0                   CREATE0 logo_drift
    1677 0000bf30                   SLEEP   15*60
    1678 0000bf80     09eb          movi    [60,0],a11
         0000bf90 003c0000  
    1679 0000bfb0     09e9          movi    TSMLOGO,a9
         0000bfc0 00000000! 
    1680 0000bfe0                   CREATE0 logo_drift
    1681 0000c050     09eb          movi    [334,0],a11
         0000c060 014e0000  
    1682 0000c080     09e9          movi    TSMLOGO,a9
         0000c090 00000000! 
    1683 0000c0b0                   CREATE0 logo_drift
    1684 0000c120                   DIE
    1685                    
    1686 0000c150           logo_drift
    1687                    
    1688 0000c150     4d60          move    a11,a0
    1689 0000c160     09e1          movi    [248+48,0],a1
         0000c170 01280000  
    1690 0000c190     09c3          movi    07591H,a3                               ;Z
         0000c1a0     7591  
    1691 0000c1b0     09e4          movi    DMAWNZ|M_NOCOLL,a4
         0000c1c0 00008802  
    1692 0000c1e0     4d22          move    a9,a2
    1693 0000c1f0     09c5          movi    CLSDEAD,a5
         0000c200     2000  
    1694 0000c210     56c6          clr     a6
    1695 0000c220     09e7          movi    [-3,0],a7
         0000c230 fffd0000  
    1696 0000c250     0d5f          calla   BEGINOBJ
         0000c260 00000000! 
    1697                    
    1698 0000c280                   SLEEP   25*60
    1699 0000c2d0     c080          jauc    DELOBJDIE
         0000c2e0 00000000! 
    1700                    
    1701                    
    1702                    
    1703 0000c300           drw_teams
    1704                    
    1705                            .ref    ladder_imgs0,ladder_imgs1,ladder_imgs2,ladder_imgs3,ladder_imgs4
    1706                            .ref    ladder_imgs5,ladder_imgs6
    1707                    
    1708 0000c300     09e9          movi    ladder_imgs0,a9
TMS340 COFF Macro Assembler Version 6.10     Tue Dec 19 01:45:12 2023
 Copyright (c) 1985-1991  Texas Instruments Incorporated 

attract mode                                                         PAGE   38

         0000c310 00000000! 
    1709 0000c330     0d3f          callr   kndfdrlp
         0000c340     0049  
    1710 0000c350                   SLEEP   90
    1711 0000c3a0     09e9          movi    ladder_imgs1,a9
         0000c3b0 00000000! 
    1712 0000c3d0     0d3f          callr   kndfdrlp
         0000c3e0     003f  
    1713 0000c3f0                   SLEEP   140h
    1714 0000c440     0d3f          callr   deloffbot
         0000c450     1c4f  
    1715 0000c460     09e9          movi    ladder_imgs2,a9
         0000c470 00000000! 
    1716 0000c490     0d3f          callr   kndfdrlp
         0000c4a0     0033  
    1717 0000c4b0                   SLEEP   110h
    1718 0000c500     0d3f          callr   deloffbot
         0000c510     1c43  
    1719 0000c520     09e9          movi    ladder_imgs3,a9
         0000c530 00000000! 
    1720 0000c550     0d3f          callr   kndfdrlp
         0000c560     0027  
    1721 0000c570                   SLEEP   110h
    1722 0000c5c0     0d3f          callr   deloffbot
         0000c5d0     1c37  
    1723 0000c5e0     09e9          movi    ladder_imgs4,a9
         0000c5f0 00000000! 
    1724 0000c610     0d3f          callr   kndfdrlp
         0000c620     001b  
    1725 0000c630                   SLEEP   110h
    1726 0000c680     0d3f          callr   deloffbot
         0000c690     1c2b  
    1727 0000c6a0     09e9          movi    ladder_imgs5,a9
         0000c6b0 00000000! 
    1728 0000c6d0     0d3f          callr   kndfdrlp
         0000c6e0     000f  
    1729 0000c6f0                   SLEEP   110h
    1730 0000c740     0d3f          callr   deloffbot
         0000c750     1c1f  
    1731 0000c760     09e9          movi    ladder_imgs6,a9
         0000c770 00000000! 
    1732 0000c790     0d3f          callr   kndfdrlp
         0000c7a0     0003  
    1733 0000c7b0                   DIE
    1734                            
    1735                    
    1736 0000c7e0     9722  kndfdrlp        move    *a9+,a2,L
    1737 0000c7f0     ca4a          jrz     kndfx
    1738                    
    1739 0000c800     9720          move    *a9+,a0,L
    1740 0000c810     9721          move    *a9+,a1,L
    1741 0000c820     2600          sll     16,a0
    1742 0000c830     2601          sll     16,a1
    1743 0000c840     09c3          movi    20000,a3
         0000c850     4e20  
TMS340 COFF Macro Assembler Version 6.10     Tue Dec 19 01:45:12 2023
 Copyright (c) 1985-1991  Texas Instruments Incorporated 

attract mode                                                         PAGE   39

    1744 0000c860     09e4          movi    DMAWNZ|M_NOCOLL,a4
         0000c870 00008802  
    1745 0000c890     09c5          movi    CLSDEAD,a5
         0000c8a0     2000  
    1746 0000c8b0     56c6          clr     a6
    1747 0000c8c0     56e7          clr     a7
    1748 0000c8d0     0d5f          calla   BEGINOBJ2
         0000c8e0 00000000! 
    1749 0000c900     0d3f          callr   kndfclippit
         0000c910     0039  
    1750                    
    1751                    
    1752 0000c920     9722          move    *a9+,a2,L
    1753 0000c930     9720          move    *a9+,a0,L
    1754 0000c940     9721          move    *a9+,a1,L
    1755 0000c950     2600          sll     16,a0
    1756 0000c960     2601          sll     16,a1
    1757 0000c970     09c3          movi    20000,a3
         0000c980     4e20  
    1758 0000c990     09e4          movi    DMAWNZ|M_NOCOLL,a4
         0000c9a0 00008802  
    1759 0000c9c0     09c5          movi    CLSDEAD,a5
         0000c9d0     2000  
    1760 0000c9e0     56c6          clr     a6
    1761 0000c9f0     56e7          clr     a7
    1762 0000ca00     0d5f          calla   BEGINOBJ2
         0000ca10 00000000! 
    1763 0000ca30     0d3f          callr   kndfclippit
         0000ca40     0026  
    1764                    
    1765 0000ca50     9722          move    *a9+,a2,L
    1766 0000ca60     9720          move    *a9+,a0,L
    1767 0000ca70     9721          move    *a9+,a1,L
    1768 0000ca80     2600          sll     16,a0
    1769 0000ca90     2601          sll     16,a1
    1770 0000caa0     09c3          movi    20000,a3
         0000cab0     4e20  
    1771 0000cac0     09e4          movi    DMAWNZ|M_NOCOLL,a4
         0000cad0 00008802  
    1772 0000caf0     09c5          movi    CLSDEAD,a5
         0000cb00     2000  
    1773 0000cb10     56c6          clr     a6
    1774 0000cb20     56e7          clr     a7
    1775 0000cb30     0d5f          calla   BEGINOBJ2
         0000cb40 00000000! 
    1776 0000cb60     0d3f          callr   kndfclippit
         0000cb70     0013  
    1777                    
    1778 0000cb80     9722          move    *a9+,a2,L
    1779 0000cb90     9720          move    *a9+,a0,L
    1780 0000cba0     9721          move    *a9+,a1,L
    1781 0000cbb0     2600          sll     16,a0
    1782 0000cbc0     2601          sll     16,a1
    1783 0000cbd0     09c3          movi    20000,a3
         0000cbe0     4e20  
TMS340 COFF Macro Assembler Version 6.10     Tue Dec 19 01:45:12 2023
 Copyright (c) 1985-1991  Texas Instruments Incorporated 

attract mode                                                         PAGE   40

    1784 0000cbf0     09e4          movi    DMAWNZ|M_NOCOLL,a4
         0000cc00 00008802  
    1785 0000cc20     09c5          movi    CLSDEAD,a5
         0000cc30     2000  
    1786 0000cc40     56c6          clr     a6
    1787 0000cc50     56e7          clr     a7
    1788 0000cc60     0d5f          calla   BEGINOBJ2
         0000cc70 00000000! 
    1789 0000cc90     c0b4          jruc    kndfdrlp
    1790 0000cca0     0960  kndfx   rets
    1791                    
    1792                    
    1793                            .asg    65,HEAD_WIDTH
    1794 0000ccb0           kndfclippit
    1795 0000ccb0     b500          move    *a8(OSIZEX),a0
         0000ccc0     0130  
    1796 0000ccd0     0be0          subi    HEAD_WIDTH,a0
         0000cce0     ffbe  
    1797 0000ccf0     c802          jrb     kndfno_clip
    1798 0000cd00     b008          move    a0,*a8(OFSET)
         0000cd10     0100  
    1799 0000cd20           kndfno_clip
    1800 0000cd20     0960          rets
    1801                    
    1802                    
    1803 0000cd30           kndfladder_mod
    1804 0000cd30 00000000!         .long   dabullBMOD
    1805 0000cd50     ff50          .word   0ff4bH+5,0ffa1H+3
    1806 0000cd70 00000000!         .long   ladderBMOD
    1807 0000cd90     0005          .word   0+5,-92+360
    1808 0000cdb0 00000000!         .long   ladderBMOD
    1809 0000cdd0     0005          .word   0+5,-92+360*2
    1810 0000cdf0 00000000!         .long   ladderBMOD
    1811 0000ce10     0005          .word   0+5,-92+360*3
    1812 0000ce30 00000000!         .long   ladderBMOD
    1813 0000ce50     0005          .word   0+5,-92+360*4
    1814 0000ce70 00000000!         .long   ladderBMOD
    1815 0000ce90     0005          .word   0+5,-92+360*5
    1816 0000ceb0 00000000!         .long   ladderBMOD
    1817 0000ced0     0005          .word   0+5,-92+360*6
    1818 0000cef0 00000000!         .long   ladderBMOD
    1819 0000cf10     0005          .word   0+5,-92+360*7
    1820 0000cf30 00000000!         .long   ladderBMOD
    1821 0000cf50     0005          .word   0+5,-92+360*8
    1822 0000cf70 00000000!         .long   ladderBMOD
    1823 0000cf90     0005          .word   0+5,-92+360*9
    1824 0000cfb0 00000000!         .long   ladderBMOD
    1825 0000cfd0     0005          .word   0+5,-92+360*10
    1826 0000cff0 00000000!         .long   ladderBMOD
    1827 0000d010     0005          .word   0+5,-92+360*11
    1828 0000d030 00000000!         .long   ladderBMOD
    1829 0000d050     0005          .word   0+5,-92+360*12
    1830 0000d070 00000000!         .long   ladderBMOD
    1831 0000d090     0005          .word   0+5,-92+360*13
    1832 0000d0b0 00000000          .long   0
TMS340 COFF Macro Assembler Version 6.10     Tue Dec 19 01:45:12 2023
 Copyright (c) 1985-1991  Texas Instruments Incorporated 

attract mode                                                         PAGE   41

    1833                    
    1834                    
    1835                    
    1836                    
    1837 0000d0d0            SUBRP  drw_cutaway
    1838                    
    1839 0000d0d0     0d5f          calla   display_blank
         0000d0e0 00000000! 
    1840 0000d100     0d5f          calla   WIPEOUT
         0000d110 00000000! 
    1841 0000d130     0d5f          calla   pal_clean
         0000d140 00000000! 
    1842                    
    1843 0000d160     5600          clr     a0
    1844 0000d170     0580          move    a0,@dtype               ;2D
         0000d180 00000000! 
    1845                    
    1846 0000d1a0     1820          movk    1,a0                    ;page flipping on
    1847 0000d1b0     0580          move    a0,@dpageflip
         0000d1c0 00000000! 
    1848                    
    1849 0000d1e0     09e0          movi    SCRNEND,a0              ;[256,405]
         0000d1f0 00fe01b0  
    1850 0000d210     0780          move    a0,@SCRNLR,L
         0000d220 00000000! 
    1851                    
    1852 0000d240     5600          clr     a0
    1853 0000d250     0780          move    a0,@WORLDTLX,L
         0000d260 00000000! 
    1854 0000d280     0780          move    a0,@WORLDTLY,L
         0000d290 00000000! 
    1855                    
    1856 0000d2b0                   SLEEPK  2
    1857                    
    1858 0000d2f0     09e0          movi    gmvycut_mod,a0
         0000d300 0000d730' 
    1859 0000d320     0780          move    a0,@BAKMODS,L
         0000d330 00000000! 
    1860 0000d350     0d5f          calla   BGND_UD1
         0000d360 00000000! 
    1861                    
    1862 0000d380     1820          movk    1,a0
    1863 0000d390     0580          move    a0,@DISPLAYON
         0000d3a0 00000000! 
    1864                    
    1865 0000d3c0                   SLEEPK  2
    1866                    
    1867 0000d400     0d5f          calla   display_unblank
         0000d410 00000000! 
    1868                    
    1869                    
    1870 0000d430                   SLEEP   1*TSEC+30
    1871                    
    1872 0000d480     09ca          movi    3*TSEC,a10
         0000d490     009f  
TMS340 COFF Macro Assembler Version 6.10     Tue Dec 19 01:45:12 2023
 Copyright (c) 1985-1991  Texas Instruments Incorporated 

attract mode                                                         PAGE   42

    1873 0000d4a0           gmvylp  SLEEPK  1
    1874 0000d4e0     0d5f          calla   get_all_buttons_cur2
         0000d4f0 00000000! 
    1875 0000d510     ca0f          jrz     gmvynob
    1876 0000d520     5600          clr     a0
    1877 0000d530     0580          move    a0,@SOUNDSUP            ;turn all sounds on
         0000d540 00000000! 
    1878 0000d560                   SOUND1  bounce_snd
    1879 0000d5c0     1820          movk    1,a0
    1880 0000d5d0     0580          move    a0,@SOUNDSUP            ;turn all sounds off
         0000d5e0 00000000! 
    1881 0000d600     c001          jruc    gmvyxb
    1882 0000d610           gmvynob 
    1883 0000d610     3f0a          dsj     a10,gmvylp
    1884 0000d620           gmvyxb
    1885                    
    1886 0000d620     574a          clr     a10
    1887 0000d630     190b          movk    8,a11
    1888 0000d640                   CREATE0 fade_down
    1889                    
    1890 0000d6b0                   SLEEP   40
    1891                    
    1892 0000d700                   RETP
    1893                    
    1894                    
    1895 0000d730           gmvycut_mod
    1896 0000d730 00000000!         .long   viewfrtBMOD
    1897 0000d750     0000          .word   0,5
    1898 0000d770 00000000          .long   0
    1899                    
    1900                    
    1901                    
    1902                    
    1903 0000d790            SUBRP  demogame
    1904                    
    1905                            .ref    team1,team2
    1906                    
    1907 0000d790     0d5f          calla   display_blank
         0000d7a0 00000000! 
    1908 0000d7c0     0d5f          calla   WIPEOUT                 ;CLEAN SYSTEM OUT
         0000d7d0 00000000! 
    1909                    
    1910 0000d7f0     09c0          movi    -1,a0
         0000d800     ffff  
    1911 0000d810     0780          move    a0,@special_heads,L
         0000d820 00000000! 
    1912 0000d840     0780          move    a0,@special_heads+20h,L
         0000d850 00000020! 
    1913                            .ref    show_shot,assistance_off
    1914 0000d870     5600          clr     a0
    1915 0000d880     0580          move    a0,@show_shot
         0000d890 00000000! 
    1916 0000d8b0     0580          move    a0,@assistance_off
         0000d8c0 00000000! 
    1917                    
TMS340 COFF Macro Assembler Version 6.10     Tue Dec 19 01:45:12 2023
 Copyright (c) 1985-1991  Texas Instruments Incorporated 

attract mode                                                         PAGE   43

    1918 0000d8e0     1b40          movk    26,a0
    1919 0000d8f0     0d5f          calla   RNDRNG0
         0000d900 00000000! 
    1920 0000d920     0580          move    a0,@team1               ;Team controlled by plyrs 1 & 2
         0000d930 00000000! 
    1921 0000d950     4c08          move    a0,a8
    1922 0000d960     1b40  icovagn movk    26,a0
    1923 0000d970     0d5f          calla   RNDRNG0
         0000d980 00000000! 
    1924 0000d9a0     4808          cmp     a0,a8
    1925 0000d9b0     cafa          jreq    icovagn
    1926 0000d9c0     0580          move    a0,@team2               ;Team controlled by plyrs 3 & 4
         0000d9d0 00000000! 
    1927                    
    1928                    
    1929                            .ref    snd_play1ovr
    1930 0000d9f0     09e0          movi    ALLOFF,a0
         0000da00 00000000! 
    1931 0000da20     0d5f          calla   snd_play1ovr
         0000da30 00000000! 
    1932 0000da50     09e0          movi    musicoff_snd,a0
         0000da60 00000000! 
    1933 0000da80     0d5f          calla   snd_play1ovr
         0000da90 00000000! 
    1934                    
    1935 0000dab0     1820          movk    1,a0
    1936 0000dac0     0580          MOVE    A0,@SOUNDSUP,W          ;TURN ALL SOUNDS ON
         0000dad0 00000000! 
    1937 0000daf0                   ADJUST  ADJMUSIC                ;GET MUSIC ON OFF FOR DEMO
    1938 0000db40     4c00          MOVE    A0,A0
    1939 0000db50     cb0b          JRNZ    NONO1
    1940 0000db60     5600          CLR     A0
    1941 0000db70     0580          MOVE    A0,@SOUNDSUP,W          ;TURN ALL SOUNDS ON
         0000db80 00000000! 
    1942 0000dba0                   CREATE0 sndstrt
    1943 0000dc10           NONO1
    1944                    
    1945 0000dc10                   CREATE0 demogame_start
    1946                    
    1947                    
    1948 0000dc80                   SLEEPK  5
    1949 0000dcc0     0d5f          calla   update_insert
         0000dcd0 0000e440' 
    1950                    
    1951 0000dcf0                   SLEEP   3*TSEC
    1952                    
    1953 0000dd40           icovloop
    1954 0000dd40     09ca          movi    60*60,a10
         0000dd50     0e10  
    1955 0000dd60           icovlp  SLEEPK  1
    1956 0000dda0     0d5f          calla   get_all_buttons_cur2
         0000ddb0 00000000! 
    1957 0000ddd0     ca0f          jrz     icovnob
    1958 0000dde0     5600          clr     a0
    1959 0000ddf0     0580          move    a0,@SOUNDSUP            ;turn all sounds on
TMS340 COFF Macro Assembler Version 6.10     Tue Dec 19 01:45:12 2023
 Copyright (c) 1985-1991  Texas Instruments Incorporated 

attract mode                                                         PAGE   44

         0000de00 00000000! 
    1960 0000de20                   SOUND1  bounce_snd
    1961 0000de80     1820          movk    1,a0
    1962 0000de90     0580          move    a0,@SOUNDSUP            ;turn all sounds off
         0000dea0 00000000! 
    1963 0000dec0     c001          jruc    icovxb
    1964 0000ded0           icovnob 
    1965 0000ded0     3f0a          dsj     a10,icovlp
    1966 0000dee0           icovxb
    1967                    
    1968 0000dee0     09c0          movi    CYCPID,a0
         0000def0     006d  
    1969 0000df00     0d5f          calla   KIL1C
         0000df10 00000000! 
    1970                    
    1971 0000df30     574a          clr     a10
    1972 0000df40     1a0b          movk    16,a11
    1973 0000df50                   CREATE0 fade_down
    1974                    
    1975 0000dfc0                   SLEEPK  24
    1976                    
    1977                    
    1978 0000e000     0d5f          calla   display_blank
         0000e010 00000000! 
    1979 0000e030     0d5f          calla   WIPEOUT                 ;CLEAN SYSTEM OUT
         0000e040 00000000! 
    1980                    
    1981 0000e060     5600          clr     a0
    1982 0000e070     0580          move    a0,@HALT
         0000e080 00000000! 
    1983                    
    1984 0000e0a0     1820          movk    1,a0
    1985 0000e0b0     0580          move    a0,@dpageflip
         0000e0c0 00000000! 
    1986                    
    1987 0000e0e0     0d5f          calla   COLRPRC                 ;Init fixed pal 0 and maybe 2nd pal
         0000e0f0 00000000! 
    1988 0000e110     09c0          movi    AMODE_PID,a0
         0000e120     0100  
    1989 0000e130     b00d          move    a0,*a13(PROCID)
         0000e140     0020  
    1990 0000e150                   RETP
    1991                    
    1992                    
    1993 0000e180           sndstrt SLEEP   3*60
    1994 0000e1d0     1860          movk    3,a0
    1995 0000e1e0     0d5f          calla   RNDRNG0
         0000e1f0 00000000! 
    1996 0000e210     24a0          sll     5,a0
    1997 0000e220     0b20          addi    tunes_t,a0
         0000e230 0000e2c0' 
    1998 0000e250     8600          move    *a0,a0,L
    1999 0000e260     0d5f          calla   snd_play1ovr
         0000e270 00000000! 
    2000 0000e290                   DIE
TMS340 COFF Macro Assembler Version 6.10     Tue Dec 19 01:45:12 2023
 Copyright (c) 1985-1991  Texas Instruments Incorporated 

attract mode                                                         PAGE   45

    2001                    
    2002 0000e2c0 0000e340' tunes_t .long   tuneq2_snd,tuneq3_snd,tuneq4_snd,tuneot_snd
    2003                    
    2004 0000e340     f3ff  tuneq2_snd      .word   0f3ffH,08H,08006H,0     ;Quarter 2 tune
    2005 0000e380     f3ff  tuneq3_snd      .word   0f3ffH,08H,08007H,0     ;Quarter 3 tune
    2006 0000e3c0     f3ff  tuneq4_snd      .word   0f3ffH,08H,08008H,0     ;Quarter 4 tune
    2007 0000e400     f3ff  tuneot_snd      .word   0f3ffH,08H,0800bH,0     ;Quarter o.t. tune
    2008                    
    2009                    
    2010                    
    2011 0000e440           update_insert
    2012                    
    2013 0000e440     0d5f          calla   CR_STRTP                ;Credits to start
         0000e450 00000000! 
    2014 0000e470     c814          jrlo    xumhx                   ;No?
    2015 0000e480     09e1          movi    start,a1
         0000e490 00000000! 
    2016 0000e4b0     09e8          movi    OBJLST,a8
         0000e4c0 00000000! 
    2017                    
    2018 0000e4e0     8708  xumhlp  move    *a8,a8,L
    2019 0000e4f0     ca0c          jrz     xumhx           ;End?
    2020 0000e500     b700          move    *a8(OIMG),a0,L
         0000e510     0170  
    2021 0000e520     0b60          cmpi    insert,a0
         0000e530 ffffffff! 
    2022 0000e550     cbf8          jrne    xumhlp          ;No match?
    2023 0000e560     b504          move    *a8(OFLAGS),a4
         0000e570     00e0  
    2024 0000e580     0d5f          calla   ANI
         0000e590 00000000! 
    2025 0000e5b0     c0f2          jruc    xumhlp
    2026 0000e5c0     0960  xumhx   rets
    2027                    
    2028                    
    2029                    
    2030                    
    2031 0000e5d0            SUBRP  creditscreen
    2032                    
    2033 0000e5d0     0d5f          calla   pal_clean
         0000e5e0 00000000! 
    2034                    
    2035 0000e600     182a          movk    1,a10
    2036 0000e610                   JSRP    CRD_SCRN2
    2037 0000e680     09c0          movi    AMODE_PID,a0
         0000e690     0100  
    2038 0000e6a0     b00d          move    a0,*a13(PROCID)
         0000e6b0     0020  
    2039                    
    2040 0000e6c0                   RETP
    2041                    
    2042                    
    2043                    
    2044                    
    2045 0000e6f0           ERRORLOG
TMS340 COFF Macro Assembler Version 6.10     Tue Dec 19 01:45:12 2023
 Copyright (c) 1985-1991  Texas Instruments Incorporated 

attract mode                                                         PAGE   46

    2046 0000e6f0     098f          MMTM    SP,A2,A3,A4,A5,A6,A7
         0000e700     3f00  
    2047                    
    2048 0000e710     09af          MMFM    SP,A2,A3,A4,A5,A6,A7
         0000e720     00fc  
    2049 0000e730     0960          RETS
    2050                    
    2051                    
    2052                    
    2053 0000e740           GETAUD4
    2054 0000e740     098f          mmtm    sp,a0,a1
         0000e750     c000  
    2055 0000e760     4c80          move    a4,a0
    2056 0000e770     0d5f          calla   GET_AUD
         0000e780 00000000! 
    2057 0000e7a0     0d5f          calla   DEF_PAGE             ;POINT AT DEFAULT PAGE.
         0000e7b0 00000000! 
    2058 0000e7d0     4c24          move    a1,a4
    2059 0000e7e0     09af          mmfm    sp,a0,a1
         0000e7f0     0003  
    2060 0000e800     0960          rets
    2061                    
    2062                    
    2063                    
    2064                            .asg    17,YSPACE
    2065                    
    2066 0000e810            SUBR   hint_page
    2067                    
    2068 0000e810     09ca          movi    4*60,a10
         0000e820     00f0  
    2069 0000e830           eytylp
    2070 0000e830                   SLEEPK  1
    2071 0000e870     142a          dec     a10
    2072 0000e880     ca04          jrz     eytytvout
    2073 0000e890     07a0          move    @tvpanelon,a0,L
         0000e8a0 00000000! 
    2074 0000e8c0     cbf6          jrnz    eytylp
    2075                    
    2076 0000e8d0           eytytvout
    2077                    
    2078 0000e8d0     0d3f          callr   kill_tvpanel
         0000e8e0     0111  
    2079                    
    2080 0000e8f0                   SOUND1  bounce_snd
    2081                    
    2082 0000e950     0d5f          calla   display_blank
         0000e960 00000000! 
    2083 0000e980     0d5f          calla   system_savegame
         0000e990 00000000! 
    2084                    
    2085 0000e9b0     5600          clr     a0
    2086 0000e9c0     0580          move    a0,@dtype               ;2D
         0000e9d0 00000000! 
    2087                    
    2088 0000e9f0     1820          movk    1,a0                    ;page flipping on
TMS340 COFF Macro Assembler Version 6.10     Tue Dec 19 01:45:12 2023
 Copyright (c) 1985-1991  Texas Instruments Incorporated 

attract mode                                                         PAGE   47

    2089 0000ea00     0580          move    a0,@dpageflip
         0000ea10 00000000! 
    2090                    
    2091 0000ea30     1880          movk    INPLYRINFO,a0
    2092 0000ea40     0580          move    a0,@GAMSTATE
         0000ea50 00000000! 
    2093                    
    2094 0000ea70     09e0          movi    SCRNEND,a0              ;[256,405]
         0000ea80 00fe01b0  
    2095 0000eaa0     0780          move    a0,@SCRNLR,L
         0000eab0 00000000! 
    2096                    
    2097 0000ead0     5600          clr     a0
    2098 0000eae0     0780          move    a0,@WORLDTLX,L
         0000eaf0 00000000! 
    2099 0000eb10     0780          move    a0,@WORLDTLY,L
         0000eb20 00000000! 
    2100                    
    2101 0000eb40                   SLEEPK  2
    2102                    
    2103 0000eb80     09e0          movi    eytyhintpage_mod,a0
         0000eb90 0000fce0' 
    2104 0000ebb0     0780          move    a0,@BAKMODS,L
         0000ebc0 00000000! 
    2105 0000ebe0     0d5f          calla   BGND_UD1
         0000ebf0 00000000! 
    2106                    
    2107 0000ec10     09c0          movi    6<<10+3<<5+7,a0
         0000ec20     1867  
    2108 0000ec30     0580          move    a0,@IRQSKYE
         0000ec40 00000000! 
    2109                    
    2110                    
    2111                    
    2112                            .ref    CYCLE_TABLE,COLTAB2
    2113 0000ec60     09e8          movi    [10,7],a8               ;START AT COLOR 10, CYCLE 7 COLORS
         0000ec70 000a0007  
    2114 0000ec90     09e9          movi    BLUE,a9                 ;PAL NAME
         0000eca0 00000000! 
    2115 0000ecc0     09ea          movi    COLTAB2,a10             ;TABLE TO CYCLE WITH
         0000ecd0 00000000! 
    2116 0000ecf0     184b          movk    2,a11                   ;RATE OF CYCLE IN TICKS
    2117 0000ed00                   CREATE  CYCPID,CYCLE_TABLE      ;START PROCESS TO DO CYCLE
    2118                    
    2119                    
    2120                    
    2121                    
    2122                            .ref    logos
    2123                    
    2124                    
    2125                    
    2126 0000ed80     09e0          movi    logos,a0
         0000ed90 00000000! 
    2127 0000edb0     05aa          move    @team1,a10
         0000edc0 00000000! 
TMS340 COFF Macro Assembler Version 6.10     Tue Dec 19 01:45:12 2023
 Copyright (c) 1985-1991  Texas Instruments Incorporated 

attract mode                                                         PAGE   48

    2128 0000ede0     24aa          sll     5,a10
    2129 0000edf0     4140          add     a10,a0
    2130 0000ee00     8602          move    *a0,a2,L
    2131 0000ee10     0b62          cmpi    TSMLOGO2,a2
         0000ee20 ffffffff! 
    2132 0000ee40     cb03          jrnz    eytynot
    2133 0000ee50     09e2          movi    TSMLOGO,a2
         0000ee60 00000000! 
    2134 0000ee80           eytynot
    2135                    
    2136 0000ee80     09e0          movi    [72,0],a0
         0000ee90 00480000  
    2137 0000eeb0     09e1          movi    [50,0],a1
         0000eec0 00320000  
    2138 0000eee0     09c3          movi    20000,a3
         0000eef0     4e20  
    2139 0000ef00     09e4          movi    DMAWNZ|M_SCRNREL|M_NOCOLL,a4
         0000ef10 0000a802  
    2140 0000ef30     09c5          movi    CLSDEAD,a5
         0000ef40     2000  
    2141 0000ef50     56c6          clr     a6
    2142 0000ef60     56e7          clr     a7
    2143 0000ef70     0d5f          calla   BEGINOBJ2
         0000ef80 00000000! 
    2144                    
    2145 0000efa0     09e0          movi    logos,a0
         0000efb0 00000000! 
    2146 0000efd0     05aa          move    @team2,a10
         0000efe0 00000000! 
    2147 0000f000     24aa          sll     5,a10
    2148 0000f010     4140          add     a10,a0
    2149 0000f020     8602          move    *a0,a2,L
    2150 0000f030     0b62          cmpi    TSMLOGO2,a2
         0000f040 ffffffff! 
    2151 0000f060     cb03          jrnz    eytynot2
    2152 0000f070     09e2          movi    TSMLOGO,a2
         0000f080 00000000! 
    2153 0000f0a0           eytynot2
    2154                    
    2155 0000f0a0     09e0          movi    [328,0],a0
         0000f0b0 01480000  
    2156 0000f0d0     09e1          movi    [50,0],a1
         0000f0e0 00320000  
    2157 0000f100     09c3          movi    20000,a3
         0000f110     4e20  
    2158 0000f120     09e4          movi    DMAWNZ|M_SCRNREL|M_NOCOLL,a4
         0000f130 0000a802  
    2159 0000f150     09c5          movi    CLSDEAD,a5
         0000f160     2000  
    2160 0000f170     56c6          clr     a6
    2161 0000f180     56e7          clr     a7
    2162 0000f190     0d5f          calla   BEGINOBJ2
         0000f1a0 00000000! 
    2163                    
    2164                    
TMS340 COFF Macro Assembler Version 6.10     Tue Dec 19 01:45:12 2023
 Copyright (c) 1985-1991  Texas Instruments Incorporated 

attract mode                                                         PAGE   49

    2165                    
    2166                    
    2167 0000f1c0     09e2          movi    heading_setup,a2
         0000f1d0 0000fd40' 
    2168 0000f1f0     0d5f          calla   setup_message
         0000f200 00000000! 
    2169 0000f220     09e4          movi    eytystr_heading,a4
         0000f230 0000ff20' 
    2170 0000f250     0d5f          calla   print_string_C2
         0000f260 00000000! 
    2171                    
    2172                    
    2173                            .global mess_line_spacing
    2174 0000f280     09c0          movi    YSPACE,a0
         0000f290     0011  
    2175 0000f2a0     0580          move    a0,@mess_line_spacing
         0000f2b0 00000000! 
    2176                    
    2177 0000f2d0     09e2          movi    heading2_setup,a2
         0000f2e0 0000fde0' 
    2178 0000f300     0d5f          calla   setup_message
         0000f310 00000000! 
    2179                    
    2180 0000f330     1b40          movk    26,a0
    2181 0000f340     0d5f          calla   RNDRNG0                 ;0-7
         0000f350 00000000! 
    2182 0000f370     24a0          sll     5,a0                    ;x 32 bits
    2183 0000f380     4c09          move    a0,a9
    2184 0000f390     0b20          addi    eytyrandom_hints,a0
         0000f3a0 0000ff90' 
    2185 0000f3c0     8604          move    *a0,a4,L
    2186 0000f3d0     0d5f          calla   print_string_C2
         0000f3e0 00000000! 
    2187                    
    2188 0000f400     09e2          movi    LN1_setup,a2
         0000f410 0000fe80' 
    2189 0000f430     0d5f          calla   setup_message
         0000f440 00000000! 
    2190                    
    2191 0000f460     0b29          addi    eytyrandom_hints2,a9
         0000f470 000102f0' 
    2192 0000f490     8724          move    *a9,a4,L
    2193 0000f4a0     0d5f          calla   print_string2
         0000f4b0 00000000! 
    2194                    
    2195 0000f4d0     1820          movk    1,a0
    2196 0000f4e0     0580          move    a0,@DISPLAYON
         0000f4f0 00000000! 
    2197                    
    2198 0000f510                   SLEEPK  2
    2199 0000f550     0d5f          calla   display_unblank
         0000f560 00000000! 
    2200                    
    2201 0000f580                   SLEEP   TSEC*2
    2202                    
TMS340 COFF Macro Assembler Version 6.10     Tue Dec 19 01:45:12 2023
 Copyright (c) 1985-1991  Texas Instruments Incorporated 

attract mode                                                         PAGE   50

    2203 0000f5d0     09ca          movi    7*TSEC,a10
         0000f5e0     0173  
    2204 0000f5f0           eytywhopper_with_cheese
    2205 0000f5f0                   SLEEPK  1
    2206 0000f630     0d5f          calla   get_all_buttons_cur2
         0000f640 00000000! 
    2207 0000f660     cb01          jrnz    eytyexit
    2208 0000f670     3d2a          dsj     a10,eytywhopper_with_cheese
    2209 0000f680           eytyexit
    2210                    
    2211 0000f680                   SOUND1  bounce_snd
    2212                    
    2213 0000f6e0                   JSRP    buyin_screen
    2214                    
    2215 0000f750     09c0          movi    CYCPID,a0
         0000f760     006d  
    2216 0000f770     0d5f          calla   KIL1C
         0000f780 00000000! 
    2217                    
    2218 0000f7a0     5600          clr     a0
    2219 0000f7b0     0580          move    a0,@IRQSKYE             ;background color
         0000f7c0 00000000! 
    2220 0000f7e0     0580          move    a0,@DISPLAYON
         0000f7f0 00000000! 
    2221                    
    2222 0000f810     0d5f          calla   QSNDRST
         0000f820 00000000! 
    2223                     
    2224 0000f840                   SLEEPK  1               ;2
    2225                    
    2226                    
    2227 0000f880     0d5f          calla   system_restoregame
         0000f890 00000000! 
    2228                    
    2229                    
    2230 0000f8b0     09c0          movi    CLSDEAD|creditid,a0
         0000f8c0     2089  
    2231 0000f8d0     0d5f          calla   obj_del1c               ;kill credit/qrtr imgs
         0000f8e0 00000000! 
    2232                    
    2233                            .ref    prt_credits
    2234 0000f900     0d5f          calla   prt_credits
         0000f910 00000000! 
    2235                            .ref    start_msgs
    2236 0000f930                   CREATE0 start_msgs
    2237                            .ref    fix_dropout_msgs
    2238 0000f9a0     0d5f          calla   fix_dropout_msgs
         0000f9b0 00000000! 
    2239                    
    2240                    
    2241 0000f9d0                   RETP
    2242                    
    2243                    
    2244 0000fa00           kill_tvpanel
    2245 0000fa00     09c0          movi    CLSDEAD|tvid,a0
TMS340 COFF Macro Assembler Version 6.10     Tue Dec 19 01:45:12 2023
 Copyright (c) 1985-1991  Texas Instruments Incorporated 

attract mode                                                         PAGE   51

         0000fa10     2085  
    2246 0000fa20     0d5f          calla   obj_del1c
         0000fa30 00000000! 
    2247 0000fa50     09c0          movi    CLSDEAD|tvscrid,a0
         0000fa60     2087  
    2248 0000fa70     0d5f          calla   obj_del1c
         0000fa80 00000000! 
    2249 0000faa0     09c0          movi    tvid,a0                 ;Delete big clock at botm of scrn
         0000fab0     0085  
    2250 0000fac0     0d5f          calla   KIL1C
         0000fad0 00000000! 
    2251 0000faf0     09c0          movi    CLSDEAD|bclockid,a0
         0000fb00     2088  
    2252 0000fb10     0d5f          calla   obj_del1c
         0000fb20 00000000! 
    2253                    
    2254 0000fb40     09c0          movi    clockid,a0
         0000fb50     0084  
    2255 0000fb60     0d5f          calla   KIL1C                   ;Kill existing shot clock proc
         0000fb70 00000000! 
    2256 0000fb90     09c0          movi    CLSDEAD|clockid,a0
         0000fba0     2084  
    2257 0000fbb0     0d5f          calla   obj_del1c               ;Delete any 24 second shot clock imgs
         0000fbc0 00000000! 
    2258                            .ref    sc_proc
    2259 0000fbe0     5600          clr     a0
    2260 0000fbf0     0780          move    a0,@sc_proc,L
         0000fc00 00000000! 
    2261                    
    2262 0000fc20     07a0          move    @tvpanelon,a0,L
         0000fc30 00000000! 
    2263 0000fc50     ca07          jrz     eytyx1
    2264 0000fc60     0d5f          calla   KILL
         0000fc70 00000000! 
    2265 0000fc90     5600          clr     a0
    2266 0000fca0     0780          move    a0,@tvpanelon,L
         0000fcb0 00000000! 
    2267 0000fcd0           eytyx1
    2268 0000fcd0     0960          rets
    2269                    
    2270                    
    2271 0000fce0           eytyhintpage_mod
    2272 0000fce0 00000000!         .long   empjambBMOD
    2273 0000fd00     0000          .word   0,1
    2274 0000fd20 00000000          .long   0
    2275                    
    2276                            .asg    20,LN0
    2277                    
    2278                            .asg    120,LN1
    2279                    
    2280 0000fd40           heading_setup
    2281 0000fd40                   RJR_STR osgemd_ascii,8,0,200,LN0,BLUE,0
    2282 0000fde0           heading2_setup
    2283 0000fde0                   RJR_STR ogmd10_ascii,8,0,200,LN0+50,SGMD8BLU,0
    2284 0000fe80           LN1_setup
TMS340 COFF Macro Assembler Version 6.10     Tue Dec 19 01:45:12 2023
 Copyright (c) 1985-1991  Texas Instruments Incorporated 

attract mode                                                         PAGE   52

    2285 0000fe80                   RJR_STR ogmd10_ascii,8,0,35,LN1+5,SGMD8GLD,0
    2286                    
    2287 0000ff20           eytystr_heading
    2288 0000ff20       63          .string "coaching tips",0
    2289                            .asg    1,CR
    2290 0000ff90                   .even
    2291                    
    2292 0000ff90           eytyrandom_hints
    2293 0000ff90 00010650'         .long   eytystr_h0,eytystr_h1,eytystr_h2,eytystr_h3,eytystr_h4
    2294 00010030 00011f50'         .long   eytystr_h5,eytystr_h6,eytystr_h7,eytystr_h8
    2295 000100b0 00012e20'         .long   eytystr_h9,eytystr_h10,eytystr_h11,eytystr_h12
    2296 00010130 00014210'         .long   eytystr_h13,eytystr_h14,eytystr_h15,eytystr_h16,eytystr_h17     ;,eytystr_h18
    2297 000101d0 00015c78'         .long   eytystr_h19,eytystr_h20,eytystr_h21,eytystr_h22,eytystr_h23,eytystr_h24
    2298 00010290 00018000'         .long   eytystr_h25,eytystr_h26,eytystr_h27
    2299 000102f0                   .even
    2300                    
    2301 000102f0           eytyrandom_hints2
    2302 000102f0 000106c8'         .long   eytystr_h0a,eytystr_h1a,eytystr_h2a,eytystr_h3a,eytystr_h4a
    2303 00010390 00011fd0'         .long   eytystr_h5a,eytystr_h6a,eytystr_h7a,eytystr_h8a
    2304 00010410 00012e88'         .long   eytystr_h9a,eytystr_h10a,eytystr_h11a,eytystr_h12a
    2305 00010490 00014298'         .long   eytystr_h13a,eytystr_h14a,eytystr_h15a,eytystr_h16a,eytystr_h17a        ;,eytystr_h18a
    2306 00010530 00015d00'         .long   eytystr_h19a,eytystr_h20a,eytystr_h21a,eytystr_h22a,eytystr_h23a,eytystr_h24a
    2307 000105f0 00018090'         .long   eytystr_h25a,eytystr_h26a,eytystr_h27a
    2308 00010650                   .even
    2309                    
    2310 00010650           eytystr_h0
    2311 00010650       53          .string "Substitutions:",0
    2312 000106c8           eytystr_h0a
    2313 000106c8       53          .string "Some players may become fatigued",1
    2314 000107d0       64          .string "during the second half!  Try",1
    2315 000108b8       73          .string "substituting those players with",1
    2316 000109b8       66          .string "fresh players at halftime.",1
    2317 00010a90       20          .string " ",0
    2318                    
    2319 00010aa0           eytystr_h1
    2320 00010aa0       53          .string "Super Dunks:",0
    2321 00010b08           eytystr_h1a
    2322 00010b08       70          .string "press the turbo and Shoot buttons",1
    2323 00010c18       77          .string "while running toward the basket.",1
    2324 00010d20       20          .string " ",1
    2325 00010d30       72          .string "remember, some players have more",1
    2326 00010e38       73          .string "spectacular dunks than others!",0
    2327                    
    2328 00010f30           eytystr_h2
    2329 00010f30       48          .string "Head fakes:",0
    2330 00010f90           eytystr_h2a
    2331 00010f90       74          .string "tap the Shoot button once.  However,",1
    2332 000110b8       74          .string "this also causes you to pick up your",1
    2333 000111e0       64          .string "dribble.  Try faking out CPU Drones!",0
    2334                    
    2335 00011308           eytystr_h3
    2336 00011308       4a          .string "Jump shot pass:",0
    2337 00011388           eytystr_h3a
    2338 00011388       50          .string "Press and hold the shoot button,",1
    2339 00011490       74          .string "then press the pass button.  This",1
TMS340 COFF Macro Assembler Version 6.10     Tue Dec 19 01:45:12 2023
 Copyright (c) 1985-1991  Texas Instruments Incorporated 

attract mode                                                         PAGE   53

    2340 000115a0       61          .string "allows you to dish off to your open",1
    2341 000116c0       74          .string "teammate.  this is most effective",1
    2342 000117d0       77          .string "when you are about to be rejected!",0
    2343                    
    2344 000118e8           eytystr_h4
    2345 000118e8       41          .string "Accurate jump shot:",0
    2346 00011988           eytystr_h4a
    2347 00011988       69          .string "increase the chances of a jump",1
    2348 00011a80       73          .string "shot going in by releasing the Shoot",1
    2349 00011ba8       62          .string "button at the peak of your jump.",1
    2350 00011cb0       20          .string " ",1
    2351 00011cc0       41          .string "Avoid being rejected by holding on",1
    2352 00011dd8       74          .string "to the ball until defender is out",1
    2353 00011ee8       6f          .string "of position.",0
    2354                    
    2355 00011f50           eytystr_h5
    2356 00011f50       42          .string "Burst of speed:",0
    2357 00011fd0           eytystr_h5a
    2358 00011fd0       61          .string "avoid pesky defenders and increase",1
    2359 000120e8       74          .string "the speed of your player by holding",1
    2360 00012208       64          .string "down the Turbo button.",0
    2361                    
    2362 000122c0           eytystr_h6
    2363 000122c0       50          .string "Physical play:",0
    2364 00012338           eytystr_h6a
    2365 00012338       63          .string "clear an opponent out of the way by",1
    2366 00012458       70          .string "pressing the turbo and steal buttons",1
    2367 00012580       61          .string "at the same time.",0
    2368                    
    2369 00012610           eytystr_h7
    2370 00012610       43          .string "Clear out:",0
    2371 00012668           eytystr_h7a
    2372 00012668       57          .string "When holding the ball, quickly tap",1
    2373 00012780       74          .string "the turbo button.  This will cause",1
    2374 00012898       74          .string "the player to throw his elbows.",0
    2375                    
    2376 00012998           eytystr_h8
    2377 00012998       54          .string "Turbo pass:",0
    2378 000129f8           eytystr_h8a
    2379 000129f8       70          .string "press the turbo and pass buttons at",1
    2380 00012b18       74          .string "the same time for a turbo pass.",1
    2381 00012c18       20          .string " ",1
    2382 00012c28       54          .string "Turbo passes are less likely to be",1
    2383 00012d40       69          .string "intercepted by the defense.",0
    2384                    
    2385 00012e20           eytystr_h9
    2386 00012e20       53          .string "Super jumps:",0
    2387 00012e88           eytystr_h9a
    2388 00012e88       6a          .string "jump extra high when shooting,",1
    2389 00012f80       62          .string "blocking, or rebounding by pressing",1
    2390 000130a0       74          .string "the turbo and shoot buttons at the",1
    2391 000131b8       73          .string "same time.",0
    2392                    
    2393 00013210           eytystr_h10
    2394 00013210       44          .string "Dunk pass:",0
TMS340 COFF Macro Assembler Version 6.10     Tue Dec 19 01:45:12 2023
 Copyright (c) 1985-1991  Texas Instruments Incorporated 

attract mode                                                         PAGE   54

    2395 00013268           eytystr_h10a
    2396 00013268       74          .string "to avoid having your dunk blocked,",1
    2397 00013380       70          .string "pass off to your open teammate.",1
    2398 00013480       54          .string "This is most effective when your",1
    2399 00013588       74          .string "teammate is open for a three point",1
    2400 000136a0       61          .string "attempt!",0
    2401 000136e8           eytystr_h11
    2402 000136e8       43          .string "Court awareness:",0
    2403 00013770           eytystr_h11a
    2404 00013770       6c          .string "locate a player's position when he",1
    2405 00013888       69          .string "is off screen by watching for his",1
    2406 00013998       61          .string "arrow.  Try to anticipate his moves.",1
    2407 00013ac0       20          .string " ",1
    2408 00013ad0       57          .string "When off screen, try to stay away",1
    2409 00013be0       66          .string "from opposing players.",0
    2410                    
    2411 00013c98           eytystr_h12
    2412 00013c98       53          .string "Smart play:",0
    2413 00013cf8           eytystr_h12a
    2414 00013cf8       41          .string "An open player is more likely to",1
    2415 00013e00       6d          .string "make a basket, so pass to your open",1
    2416 00013f20       74          .string "teammate whenever possible!",1
    2417 00014000       20          .string " ",1
    2418 00014010       54          .string "Try to anticipate your opponent's next",1
    2419 00014148       6d          .string "move before he makes it!",0
    2420                    
    2421 00014210           eytystr_h13
    2422 00014210       53          .string "Secret powerups:",0
    2423 00014298           eytystr_h13a
    2424 00014298       42          .string "Ball Players can be powered up with",1
    2425 000143b8       73          .string "super human abilities.  Try special",1
    2426 000144d8       6a          .string "joystick/button moves during the",1
    2427 000145e0       74          .string "team matchup screen!",0
    2428                    
    2429 00014688           eytystr_h14
    2430 00014688       48          .string "Hot streak:",0
    2431 000146e8           eytystr_h14a
    2432 000146e8       57          .string "When a player scores 3 consecutive",1
    2433 00014800       62          .string "buckets, he is on fire!",1
    2434 000148c0       20          .string " ",1
    2435 000148d0       57          .string "When a player goes on a Hot Streak,",1
    2436 000149f0       67          .string "give him the ball!  He remains hot",1
    2437 00014b08       66          .string "for several shots, or until the other",1
    2438 00014c38       74          .string "team scores.",0
    2439                    
    2440 00014ca0           eytystr_h15
    2441 00014ca0       53          .string "Strong defense:",0
    2442 00014d20           eytystr_h15a
    2443 00014d20       64          .string "decrease the chance of an opponent's",1
    2444 00014e48       73          .string "shot going in the basket by getting",1
    2445 00014f68       69          .string "in his face!",1
    2446 00014fd0       20          .string " ",1
    2447 00014fe0       6b          .string "knock him down and steal the ball!",0
    2448                    
    2449 000150f8           eytystr_h16
TMS340 COFF Macro Assembler Version 6.10     Tue Dec 19 01:45:12 2023
 Copyright (c) 1985-1991  Texas Instruments Incorporated 

attract mode                                                         PAGE   55

    2450 000150f8       44          .string "Drone control:",0
    2451 00015170           eytystr_h16a
    2452 00015170       63          .string "cause a teammate controlled by the",1
    2453 00015288       43          .string "CPU to shoot or pass by pressing your",1
    2454 000153b8       6f          .string "own shoot or pass buttons.",1
    2455 00015490       20          .string " ",1
    2456 000154a0       70          .string "pass to your drone when he is under",1
    2457 000155c0       74          .string "the hoop for a quick dunk.",0
    2458                    
    2459 00015698           eytystr_h17
    2460 00015698       53          .string "Smart turbo useage:",0
    2461 00015738           eytystr_h17a
    2462 00015738       54          .string "The amount of turbo remaining is",1
    2463 00015840       64          .string "displayed at the top of the screen.",1
    2464 00015960       20          .string " ",1
    2465 00015970       61          .string "all turbo actions deplete this",1
    2466 00015a68       61          .string "amount, so conserve just enough for",1
    2467 00015b88       74          .string "that all important next move!",0
    2468                    
    2469                    
    2470 00015c78           eytystr_h19
    2471 00015c78       50          .string "Power attribute:",0
    2472 00015d00           eytystr_h19a
    2473 00015d00       54          .string "The greater a player's Power rating,",1
    2474 00015e28       74          .string "the harder it is to knock him down",1
    2475 00015f40       6f          .string "or to block his dunks.  Try to Avoid",1
    2476 00016068       73          .string "size mismatches. ",1
    2477 000160f8       20          .string " ",1
    2478 00016108       52          .string "Remember, powerful guys are usually",1
    2479 00016228       77          .string "weak outside players.",0
    2480                    
    2481 000162d8           eytystr_h20
    2482 000162d8       50          .string "Passing attribute:",0
    2483 00016370           eytystr_h20a
    2484 00016370       54          .string "The greater a player's Pass rating,",1
    2485 00016490       74          .string "the faster he passes.",1
    2486 00016540       20          .string " ",1
    2487 00016550       49          .string "It is more difficult to intercept a",1
    2488 00016670       71          .string "quick pass than a slow pass.  You",1
    2489 00016780       73          .string "should always try a turbo pass.",0
    2490                    
    2491 00016880           eytystr_h21
    2492 00016880       42          .string "Blocking attribute:",0
    2493 00016920           eytystr_h21a
    2494 00016920       54          .string "The greater a player's block",1
    2495 00016a08       72          .string "rating, the better he is at blocking",1
    2496 00016b30       64          .string "dunks and regular jump shots.",1
    2497 00016c20       20          .string " ",1
    2498 00016c30       49          .string "It is also harder for someone to",1
    2499 00016d38       64          .string "drive by him for a dunk.",0
    2500                    
    2501 00016e00           eytystr_h22
    2502 00016e00       53          .string "Steal attribute:",0
    2503 00016e88           eytystr_h22a
    2504 00016e88       54          .string "The greater a player's steal rating,",1
TMS340 COFF Macro Assembler Version 6.10     Tue Dec 19 01:45:12 2023
 Copyright (c) 1985-1991  Texas Instruments Incorporated 

attract mode                                                         PAGE   56

    2505 00016fb0       74          .string "the more effective his swiping",1
    2506 000170a8       62          .string "becomes.  He will also intercept more",1
    2507 000171d8       70          .string "passes.",1
    2508 00017218       20          .string " ",1
    2509 00017228       53          .string "Smaller, quicker players are very",1
    2510 00017338       73          .string "skilled at taking the ball.",0
    2511                    
    2512 00017418           eytystr_h23
    2513 00017418       44          .string "Dunk attribute:",0
    2514 00017498           eytystr_h23a
    2515 00017498       54          .string "The greater a player's dunk rating,",1
    2516 000175b8       74          .string "the more spectacular his dunks.",1
    2517 000176b8       41          .string "A player with a zero dunk rating",1
    2518 000177c0       77          .string "will perform just layups.",1
    2519 00017890       20          .string " ",1
    2520 000178a0       4c          .string "Layups are generally less successful",1
    2521 000179c8       74          .string "than dunks.",0
    2522                    
    2523 00017a28           eytystr_h24
    2524 00017a28       53          .string "Speed attribute:",0
    2525 00017ab0           eytystr_h24a
    2526 00017ab0       54          .string "The greater a player's speed rating,",1
    2527 00017bd8       74          .string "the faster he moves.  Usually, the",1
    2528 00017cf0       66          .string "faster players are less powerful",1
    2529 00017df8       61          .string "and therefore get pushed down more.",1
    2530 00017f18       20          .string " ",1
    2531 00017f28       4d          .string "Match speed against speed.",0
    2532                    
    2533 00018000           eytystr_h25
    2534 00018000       43          .string "Clutch attribute:",0
    2535 00018090           eytystr_h25a
    2536 00018090       54          .string "The greater a player's clutch",1
    2537 00018180       72          .string "rating, the more chance that he will",1
    2538 000182a8       6d          .string "make a great play during the last 10",1
    2539 000183d0       73          .string "seconds of any period.",0
    2540                    
    2541 00018488           eytystr_h26
    2542 00018488       53          .string "Stats pages:",0
    2543 000184f0           eytystr_h26a
    2544 000184f0       4f          .string "On the stats page, the steals",1
    2545 000185e0       63          .string "category includes slap aways and",1
    2546 000186e8       6b          .string "knock downs of ball carriers.",1
    2547 000187d8       20          .string " ",1
    2548 000187e8       54          .string "The injured category represents how",1
    2549 00018908       6d          .string "many times you were knocked down!",0
    2550                    
    2551 00018a18           eytystr_h27
    2552 00018a18       50          .string "Player Attributes:",0
    2553 00018ab0           eytystr_h27a
    2554 00018ab0       46          .string "For maximum success, pay attention",1
    2555 00018bc8       74          .string "to your player's strengths and",1
    2556 00018cc0       77          .string "weaknesses.  Play big guys near the",1
    2557 00018de0       68          .string "hoop, and small guys outside.",1
    2558 00018ed0       20          .string " ",1
    2559 00018ee0       42          .string "Big guys are poor 3 point shooters!",0
TMS340 COFF Macro Assembler Version 6.10     Tue Dec 19 01:45:12 2023
 Copyright (c) 1985-1991  Texas Instruments Incorporated 

attract mode                                                         PAGE   57

    2560                    
    2561 00019000                   .even
    2562                    
    2563                    
    2564                    
    2565                            .asg    17,YSPACE
    2566                    
    2567 00019000            SUBR   new_page
    2568                    
    2569 00019000     0d5f          calla   display_blank
         00019010 00000000! 
    2570 00019030     0d5f          calla   WIPEOUT
         00019040 00000000! 
    2571                    
    2572 00019060     5600          clr     a0
    2573 00019070     0580          move    a0,@dtype               ;2D
         00019080 00000000! 
    2574                    
    2575 000190a0     1820          movk    1,a0                    ;page flipping on
    2576 000190b0     0580          move    a0,@dpageflip
         000190c0 00000000! 
    2577                    
    2578 000190e0     09e0          movi    SCRNEND,a0              ;[256,405]
         000190f0 00fe01b0  
    2579 00019110     0780          move    a0,@SCRNLR,L
         00019120 00000000! 
    2580                    
    2581 00019140     5600          clr     a0
    2582 00019150     0780          move    a0,@WORLDTLX,L
         00019160 00000000! 
    2583 00019180     0780          move    a0,@WORLDTLY,L
         00019190 00000000! 
    2584 000191b0     0580          move    a0,@IRQSKYE
         000191c0 00000000! 
    2585                    
    2586 000191e0                   SLEEPK  2
    2587                    
    2588 00019220     09e0          movi    lwiqnewpage_mod,a0
         00019230 0001b420' 
    2589 00019250     0780          move    a0,@BAKMODS,L
         00019260 00000000! 
    2590 00019280     0d5f          calla   BGND_UD1
         00019290 00000000! 
    2591                    
    2592                    
    2593                            .ref    CYCLE_TABLE,COLTAB2
    2594 000192b0     09e8          movi    [10,7],a8               ;START AT COLOR 10, CYCLE 7 COLORS
         000192c0 000a0007  
    2595 000192e0     09e9          movi    BLUE,a9                 ;PAL NAME
         000192f0 00000000! 
    2596 00019310     09ea          movi    COLTAB2,a10             ;TABLE TO CYCLE WITH
         00019320 00000000! 
    2597 00019340     184b          movk    2,a11                   ;RATE OF CYCLE IN TICKS
    2598 00019350                   CREATE  CYCPID,CYCLE_TABLE      ;START PROCESS TO DO CYCLE
    2599                    
TMS340 COFF Macro Assembler Version 6.10     Tue Dec 19 01:45:12 2023
 Copyright (c) 1985-1991  Texas Instruments Incorporated 

attract mode                                                         PAGE   58

    2600 000193d0     09e2          movi    lwiqheading_setup,a2
         000193e0 0001b480' 
    2601 00019400     0d5f          calla   setup_message
         00019410 00000000! 
    2602 00019430     09e4          movi    lwiqstr_heading,a4
         00019440 0001b5c0' 
    2603 00019460     0d5f          calla   print_string_C2
         00019470 00000000! 
    2604                    
    2605 00019490     1820          movk    1,a0
    2606 000194a0     0580          move    a0,@DISPLAYON
         000194b0 00000000! 
    2607                    
    2608 000194d0                   SLEEPK  2
    2609 00019510     0d5f          calla   display_unblank
         00019520 00000000! 
    2610                    
    2611 00019540     1980          movk    12,a0
    2612 00019550     0580          move    a0,@mess_line_spacing
         00019560 00000000! 
    2613                    
    2614 00019580     09e2          movi    lwiqheading2_setup,a2
         00019590 0001b520' 
    2615 000195b0     0d5f          calla   setup_message
         000195c0 00000000! 
    2616                    
    2617 000195e0     09c0          movi    TYPBALL,a0
         000195f0     0200  
    2618 00019600     0580          move    a0,@mess_objid          ;OBJ ID's for text
         00019610 00000000! 
    2619                    
    2620 00019630                   SLEEPK  10
    2621                    
    2622 00019670     5729          clr     a9
    2623 00019680     0d3f          callr   lwiqtxt
         00019690     01a1  
    2624                    
    2625 000196a0     09e0          movi    [30,0],a0               ;x val
         000196b0 001e0000  
    2626 000196d0     09e1          movi    [063H,0],a1             ;y val
         000196e0 00630000  
    2627 00019700     09e2          movi    ball11,a2
         00019710 00000000! 
    2628 00019730     1823          movk    1,a3                    ;z pos
    2629 00019740     09e4          movi    DMAWNZ,a4               ;DMA flags
         00019750 00008002  
    2630 00019770     09c5          movi    TYPBALL,a5              ;OBJ ID
         00019780     0200  
    2631 00019790     56c6          clr     a6                      ;x vel
    2632 000197a0     56e7          clr     a7                      ;y vel
    2633 000197b0     0d5f          calla   BEGINOBJ2
         000197c0 00000000! 
    2634 000197e0     09e0          movi    ball101,a0
         000197f0 00000000! 
    2635 00019810     b501          move    *a8(OFLAGS),a1
TMS340 COFF Macro Assembler Version 6.10     Tue Dec 19 01:45:12 2023
 Copyright (c) 1985-1991  Texas Instruments Incorporated 

attract mode                                                         PAGE   59

         00019820     00e0  
    2636 00019830     0d5f          calla   obj_aniq
         00019840 00000000! 
    2637                    
    2638                    
    2639 00019860     09ca          movi    30,a10
         00019870     001e  
    2640 00019880                   JSRP    time_delay              ;SLEEP  30
    2641 000198f0                   SLEEPK  7
    2642                    
    2643 00019930     1829          movk    1,a9
    2644 00019940     0d3f          callr   lwiqtxt
         00019950     0175  
    2645                    
    2646                    
    2647 00019960     09e0          movi    [30,0],a0               ;x val
         00019970 001e0000  
    2648 00019990     09e1          movi    [08dH,0],a1             ;y val
         000199a0 008d0000  
    2649 000199c0     09e2          movi    ball11,a2
         000199d0 00000000! 
    2650 000199f0     1823          movk    1,a3                    ;z pos
    2651 00019a00     09e4          movi    DMAWNZ,a4               ;DMA flags
         00019a10 00008002  
    2652 00019a30     09c5          movi    TYPBALL,a5              ;OBJ ID
         00019a40     0200  
    2653 00019a50     56c6          clr     a6                      ;x vel
    2654 00019a60     56e7          clr     a7                      ;y vel
    2655 00019a70     0d5f          calla   BEGINOBJ2
         00019a80 00000000! 
    2656 00019aa0     09e0          movi    ball101,a0
         00019ab0 00000000! 
    2657 00019ad0     b501          move    *a8(OFLAGS),a1
         00019ae0     00e0  
    2658 00019af0     0d5f          calla   obj_aniq
         00019b00 00000000! 
    2659                    
    2660 00019b20     09ca          movi    30,a10
         00019b30     001e  
    2661 00019b40                   JSRP    time_delay              ;SLEEP  30
    2662 00019bb0                   SLEEPK  7
    2663                    
    2664 00019bf0     1849          movk    2,a9
    2665 00019c00     0d3f          callr   lwiqtxt
         00019c10     0149  
    2666                    
    2667 00019c20     09e0          movi    [30,0],a0               ;x val
         00019c30 001e0000  
    2668 00019c50     09e1          movi    [0b7H,0],a1             ;y val
         00019c60 00b70000  
    2669 00019c80     09e2          movi    ball11,a2
         00019c90 00000000! 
    2670 00019cb0     1823          movk    1,a3                    ;z pos
    2671 00019cc0     09e4          movi    DMAWNZ,a4               ;DMA flags
         00019cd0 00008002  
TMS340 COFF Macro Assembler Version 6.10     Tue Dec 19 01:45:12 2023
 Copyright (c) 1985-1991  Texas Instruments Incorporated 

attract mode                                                         PAGE   60

    2672 00019cf0     09c5          movi    TYPBALL,a5              ;OBJ ID
         00019d00     0200  
    2673 00019d10     56c6          clr     a6                      ;x vel
    2674 00019d20     56e7          clr     a7                      ;y vel
    2675 00019d30     0d5f          calla   BEGINOBJ2
         00019d40 00000000! 
    2676 00019d60     09e0          movi    ball101,a0
         00019d70 00000000! 
    2677 00019d90     b501          move    *a8(OFLAGS),a1
         00019da0     00e0  
    2678 00019db0     0d5f          calla   obj_aniq
         00019dc0 00000000! 
    2679                    
    2680 00019de0     09ca          movi    30,a10
         00019df0     001e  
    2681 00019e00                   JSRP    time_delay              ;SLEEP  30
    2682 00019e70                   SLEEPK  7
    2683                    
    2684 00019eb0     1869          movk    3,a9
    2685 00019ec0     0d3f          callr   lwiqtxt
         00019ed0     011d  
    2686                    
    2687 00019ee0     09e0          movi    [30,0],a0               ;x val
         00019ef0 001e0000  
    2688 00019f10     09e1          movi    [0e1H,0],a1             ;y val
         00019f20 00e10000  
    2689 00019f40     09e2          movi    ball11,a2
         00019f50 00000000! 
    2690 00019f70     1823          movk    1,a3                    ;z pos
    2691 00019f80     09e4          movi    DMAWNZ,a4               ;DMA flags
         00019f90 00008002  
    2692 00019fb0     09c5          movi    TYPBALL,a5              ;OBJ ID
         00019fc0     0200  
    2693 00019fd0     56c6          clr     a6                      ;x vel
    2694 00019fe0     56e7          clr     a7                      ;y vel
    2695 00019ff0     0d5f          calla   BEGINOBJ2
         0001a000 00000000! 
    2696 0001a020     09e0          movi    ball101,a0
         0001a030 00000000! 
    2697 0001a050     b501          move    *a8(OFLAGS),a1
         0001a060     00e0  
    2698 0001a070     0d5f          calla   obj_aniq
         0001a080 00000000! 
    2699                    
    2700 0001a0a0                   SLEEPK  30
    2701                    
    2702 0001a0e0     09ca          movi    13*TSEC,a10
         0001a0f0     02b1  
    2703 0001a100           lwiqwhopper_with_cheese
    2704 0001a100                   SLEEPK  1
    2705 0001a140     0d5f          calla   get_all_buttons_cur2
         0001a150 00000000! 
    2706 0001a170     cb01          jrnz    lwiqexit
    2707 0001a180     3d2a          dsj     a10,lwiqwhopper_with_cheese
    2708 0001a190           lwiqexit
TMS340 COFF Macro Assembler Version 6.10     Tue Dec 19 01:45:12 2023
 Copyright (c) 1985-1991  Texas Instruments Incorporated 

attract mode                                                         PAGE   61

    2709                    
    2710 0001a190     09c0          movi    TYPBALL,a0
         0001a1a0     0200  
    2711 0001a1b0     0d5f          calla   obj_del1c
         0001a1c0 00000000! 
    2712                    
    2713 0001a1e0     1980          movk    12,a0
    2714 0001a1f0     0580          move    a0,@mess_line_spacing
         0001a200 00000000! 
    2715                    
    2716 0001a220     09e2          movi    lwiqheading2_setup,a2
         0001a230 0001b520' 
    2717 0001a250     0d5f          calla   setup_message
         0001a260 00000000! 
    2718                    
    2719 0001a280     09c0          movi    TYPBALL,a0
         0001a290     0200  
    2720 0001a2a0     0580          move    a0,@mess_objid          ;OBJ ID's for text
         0001a2b0 00000000! 
    2721                    
    2722 0001a2d0     1889          movk    4,a9
    2723 0001a2e0     0d3f          callr   lwiqtxt
         0001a2f0     00db  
    2724                    
    2725 0001a300     09e0          movi    [30,0],a0               ;x val
         0001a310 001e0000  
    2726 0001a330     09e1          movi    [063H,0],a1             ;y val
         0001a340 00630000  
    2727 0001a360     09e2          movi    ball11,a2
         0001a370 00000000! 
    2728 0001a390     1823          movk    1,a3                    ;z pos
    2729 0001a3a0     09e4          movi    DMAWNZ,a4               ;DMA flags
         0001a3b0 00008002  
    2730 0001a3d0     09c5          movi    TYPBALL,a5              ;OBJ ID
         0001a3e0     0200  
    2731 0001a3f0     56c6          clr     a6                      ;x vel
    2732 0001a400     56e7          clr     a7                      ;y vel
    2733 0001a410     0d5f          calla   BEGINOBJ2
         0001a420 00000000! 
    2734 0001a440     09e0          movi    ball101,a0
         0001a450 00000000! 
    2735 0001a470     b501          move    *a8(OFLAGS),a1
         0001a480     00e0  
    2736 0001a490     0d5f          calla   obj_aniq
         0001a4a0 00000000! 
    2737                    
    2738                    
    2739 0001a4c0     09ca          movi    30,a10
         0001a4d0     001e  
    2740 0001a4e0                   JSRP    time_delay              ;SLEEP  30
    2741 0001a550                   SLEEPK  7
    2742                    
    2743 0001a590     18a9          movk    5,a9
    2744 0001a5a0     0d3f          callr   lwiqtxt
         0001a5b0     00af  
TMS340 COFF Macro Assembler Version 6.10     Tue Dec 19 01:45:12 2023
 Copyright (c) 1985-1991  Texas Instruments Incorporated 

attract mode                                                         PAGE   62

    2745                    
    2746                    
    2747 0001a5c0     09e0          movi    [30,0],a0               ;x val
         0001a5d0 001e0000  
    2748 0001a5f0     09e1          movi    [08dH,0],a1             ;y val
         0001a600 008d0000  
    2749 0001a620     09e2          movi    ball11,a2
         0001a630 00000000! 
    2750 0001a650     1823          movk    1,a3                    ;z pos
    2751 0001a660     09e4          movi    DMAWNZ,a4               ;DMA flags
         0001a670 00008002  
    2752 0001a690     09c5          movi    TYPBALL,a5              ;OBJ ID
         0001a6a0     0200  
    2753 0001a6b0     56c6          clr     a6                      ;x vel
    2754 0001a6c0     56e7          clr     a7                      ;y vel
    2755 0001a6d0     0d5f          calla   BEGINOBJ2
         0001a6e0 00000000! 
    2756 0001a700     09e0          movi    ball101,a0
         0001a710 00000000! 
    2757 0001a730     b501          move    *a8(OFLAGS),a1
         0001a740     00e0  
    2758 0001a750     0d5f          calla   obj_aniq
         0001a760 00000000! 
    2759                    
    2760 0001a780     09ca          movi    30,a10
         0001a790     001e  
    2761 0001a7a0                   JSRP    time_delay              ;SLEEP  30
    2762 0001a810                   SLEEPK  7
    2763                    
    2764 0001a850     18c9          movk    6,a9
    2765 0001a860     0d3f          callr   lwiqtxt
         0001a870     0083  
    2766                    
    2767 0001a880     09e0          movi    [30,0],a0               ;x val
         0001a890 001e0000  
    2768 0001a8b0     09e1          movi    [0b7H,0],a1             ;y val
         0001a8c0 00b70000  
    2769 0001a8e0     09e2          movi    ball11,a2
         0001a8f0 00000000! 
    2770 0001a910     1823          movk    1,a3                    ;z pos
    2771 0001a920     09e4          movi    DMAWNZ,a4               ;DMA flags
         0001a930 00008002  
    2772 0001a950     09c5          movi    TYPBALL,a5              ;OBJ ID
         0001a960     0200  
    2773 0001a970     56c6          clr     a6                      ;x vel
    2774 0001a980     56e7          clr     a7                      ;y vel
    2775 0001a990     0d5f          calla   BEGINOBJ2
         0001a9a0 00000000! 
    2776 0001a9c0     09e0          movi    ball101,a0
         0001a9d0 00000000! 
    2777 0001a9f0     b501          move    *a8(OFLAGS),a1
         0001aa00     00e0  
    2778 0001aa10     0d5f          calla   obj_aniq
         0001aa20 00000000! 
    2779                    
TMS340 COFF Macro Assembler Version 6.10     Tue Dec 19 01:45:12 2023
 Copyright (c) 1985-1991  Texas Instruments Incorporated 

attract mode                                                         PAGE   63

    2780 0001aa40     09ca          movi    30,a10
         0001aa50     001e  
    2781 0001aa60                   JSRP    time_delay              ;SLEEP  30
    2782 0001aad0                   SLEEPK  7
    2783                    
    2784 0001ab10     09e0          movi    [30,0],a0               ;x val
         0001ab20 001e0000  
    2785 0001ab40     09e1          movi    [0e1H,0],a1             ;y val
         0001ab50 00e10000  
    2786 0001ab70     09e2          movi    ball11,a2
         0001ab80 00000000! 
    2787 0001aba0     1823          movk    1,a3                    ;z pos
    2788 0001abb0     09e4          movi    DMAWNZ,a4               ;DMA flags
         0001abc0 00008002  
    2789 0001abe0     09c5          movi    TYPBALL,a5              ;OBJ ID
         0001abf0     0200  
    2790 0001ac00     56c6          clr     a6                      ;x vel
    2791 0001ac10     56e7          clr     a7                      ;y vel
    2792 0001ac20     0d5f          calla   BEGINOBJ2
         0001ac30 00000000! 
    2793 0001ac50     09e0          movi    ball101,a0
         0001ac60 00000000! 
    2794 0001ac80     b501          move    *a8(OFLAGS),a1
         0001ac90     00e0  
    2795 0001aca0     0d5f          calla   obj_aniq
         0001acb0 00000000! 
    2796                    
    2797 0001acd0     18e9          movk    7,a9
    2798 0001ace0     0d3f          callr   lwiqtxt
         0001acf0     003b  
    2799                    
    2800 0001ad00     09ca          movi    13*TSEC,a10
         0001ad10     02b1  
    2801 0001ad20           lwiqwhopper_with_chees
    2802 0001ad20                   SLEEPK  1
    2803 0001ad60     0d5f          calla   get_all_buttons_cur2
         0001ad70 00000000! 
    2804 0001ad90     cb01          jrnz    lwiqexi
    2805 0001ada0     3d2a          dsj     a10,lwiqwhopper_with_chees
    2806 0001adb0           lwiqexi
    2807                    
    2808 0001adb0     5600          clr     a0
    2809 0001adc0     0580          move    a0,@SOUNDSUP            ;turn all sounds on
         0001add0 00000000! 
    2810 0001adf0                   SOUND1  bounce_snd
    2811 0001ae50     1820          movk    1,a0
    2812 0001ae60     0580          move    a0,@SOUNDSUP            ;turn all sounds off
         0001ae70 00000000! 
    2813                    
    2814 0001ae90     09c0          movi    CYCPID,a0
         0001aea0     006d  
    2815 0001aeb0     0d5f          calla   KIL1C
         0001aec0 00000000! 
    2816                    
    2817 0001aee0     574a          clr     a10
TMS340 COFF Macro Assembler Version 6.10     Tue Dec 19 01:45:12 2023
 Copyright (c) 1985-1991  Texas Instruments Incorporated 

attract mode                                                         PAGE   64

    2818 0001aef0     190b          movk    8,a11
    2819 0001af00                   CREATE0 fade_down
    2820                    
    2821 0001af70                   SLEEP   40
    2822                    
    2823 0001afc0                   RETP
    2824                    
    2825 0001aff0           time_delay
    2826 0001aff0           lwiqwhopper_with_chee
    2827 0001aff0                   SLEEPK  1
    2828 0001b030     0d5f          calla   get_all_buttons_cur2
         0001b040 00000000! 
    2829 0001b060     cb01          jrnz    lwiqexit2
    2830 0001b070     3d2a          dsj     a10,lwiqwhopper_with_chee
    2831 0001b080           lwiqexit2       RETP
    2832                    
    2833                    
    2834 0001b0b0           lwiqtxt
    2835 0001b0b0     4d20          move    a9,a0
    2836 0001b0c0     24a0          sll     5,a0
    2837 0001b0d0     0b20          addi    lwiqrandom_hints,a0
         0001b0e0 0001b6b0' 
    2838 0001b100     8604          move    *a0,a4,L
    2839 0001b110     0d5f          calla   print_string2
         0001b120 00000000! 
    2840                    
    2841 0001b140     4d20          move    a9,a0
    2842 0001b150     24a0          sll     5,a0
    2843 0001b160     0b20          addi    lwiqrandom_hints2,a0
         0001b170 0001b7b0' 
    2844 0001b190     8604          move    *a0,a4,L
    2845 0001b1a0     0d5f          calla   print_string2
         0001b1b0 00000000! 
    2846                    
    2847 0001b1d0     05a0          move    @mess_cursy,a0
         0001b1e0 00000000! 
    2848 0001b200     13c0          addk    30,a0
    2849 0001b210     0580          move    a0,@mess_cursy
         0001b220 00000000! 
    2850                    
    2851                    
    2852 0001b240     1820          movk    1,a0
    2853 0001b250     0580          MOVE    A0,@SOUNDSUP,W          ;TURN ALL SOUNDS ON
         0001b260 00000000! 
    2854 0001b280                   ADJUST  ADJMUSIC                ;GET MUSIC ON OFF FOR DEMO
    2855 0001b2d0     4c00          MOVE    A0,A0
    2856 0001b2e0     cb0e          JRNZ    lwiqNONO1
    2857 0001b2f0     5600          CLR     A0
    2858 0001b300     0580          MOVE    A0,@SOUNDSUP,W          ;TURN ALL SOUNDS ON
         0001b310 00000000! 
    2859                    
    2860 0001b330     09e0          movi    ting_snd,a0
         0001b340 0001b3e0' 
    2861 0001b360     0d5f          calla   snd_play1ovr
         0001b370 00000000! 
TMS340 COFF Macro Assembler Version 6.10     Tue Dec 19 01:45:12 2023
 Copyright (c) 1985-1991  Texas Instruments Incorporated 

attract mode                                                         PAGE   65

    2862 0001b390     1820          movk    1,a0
    2863 0001b3a0     0580          move    a0,@SOUNDSUP            ;turn all sounds off
         0001b3b0 00000000! 
    2864                    
    2865 0001b3d0     0960  lwiqNONO1       rets
    2866                    
    2867 0001b3e0     f3ff  ting_snd        .word   0f3ffH,08H,080a6H,0     ;Scroll snd
    2868                    
    2869                    
    2870 0001b420           lwiqnewpage_mod
    2871 0001b420 00000000!         .long   empjambBMOD
    2872 0001b440     0000          .word   0,1
    2873 0001b460 00000000          .long   0
    2874                    
    2875                            .asg    20,LN0
    2876                            .asg    120,LN1
    2877                    
    2878 0001b480           lwiqheading_setup
    2879 0001b480                   RJR_STR osgemd_ascii,8,0,200,LN0,BLUE,0
    2880 0001b520           lwiqheading2_setup
    2881 0001b520                   RJR_STR sgmd8_ascii,8,0,60,LN0+60,SGMD8GLD,0
    2882                    
    2883 0001b5c0           lwiqstr_heading
    2884 0001b5c0       54          .string "Tournament Edition Features:",0
    2885                            .asg    1,CR                
    2886 0001b6b0                   .even
    2887                    
    2888 0001b6b0           lwiqrandom_hints
    2889 0001b6b0 0001b8b0'         .long   lwiqstr_h0,lwiqstr_h1,lwiqstr_h2,lwiqstr_h3,lwiqstr_h4
    2890 0001b750 0001c538'         .long   lwiqstr_h5,lwiqstr_h6,lwiqstr_h7
    2891                    
    2892 0001b7b0           lwiqrandom_hints2
    2893 0001b7b0 0001ba18'         .long   lwiqstr_h0a,lwiqstr_h1a,lwiqstr_h2a,lwiqstr_h3a,lwiqstr_h4a
    2894 0001b850 0001c6b0'         .long   lwiqstr_h5a,lwiqstr_h6a,lwiqstr_h7a
    2895                    
    2896 0001b8b0                   .even
    2897                    
    2898 0001b8b0           lwiqstr_h0
    2899 0001b8b0       55          .string "Updated team rosters with at least 3 players",1
    2900 0001ba18           lwiqstr_h0a
    2901 0001ba18       66          .string "from each team.  25% of NBA now included!",0
    2902 0001bb68       20          .string " ",0
    2903                    
    2904 0001bb78           lwiqstr_h1
    2905 0001bb78       50          .string "Player attributes for Power, Blocks, Steals,",1
    2906 0001bce0           lwiqstr_h1a
    2907 0001bce0       43          .string "Clutch & Passing.",0
    2908 0001bd70       20          .string " ",0
    2909                    
    2910 0001bd80           lwiqstr_h2
    2911 0001bd80       48          .string "Halftime substitutions.  This allows players",1
    2912 0001bee8           lwiqstr_h2a
    2913 0001bee8       74          .string "to solve matchup problems.",0
    2914 0001bfc0       20          .string " ",0
    2915                    
TMS340 COFF Macro Assembler Version 6.10     Tue Dec 19 01:45:12 2023
 Copyright (c) 1985-1991  Texas Instruments Incorporated 

attract mode                                                         PAGE   66

    2916 0001bfd0           lwiqstr_h3
    2917 0001bfd0       41          .string "Allow players to choose the same team.  This",1
    2918 0001c138           lwiqstr_h3a
    2919 0001c138       73          .string "should help determine the better player!",0
    2920 0001c280       20          .string " ",0
    2921                    
    2922 0001c290           lwiqstr_h4
    2923 0001c290       49          .string "Improved gameplay with faster movement, more",1
    2924 0001c3f8           lwiqstr_h4a
    2925 0001c3f8       72          .string "realistic situations, and more depth.",0
    2926 0001c528       20          .string " ",0
    2927                    
    2928 0001c538           lwiqstr_h5
    2929 0001c538       4d          .string "More dunks, more secret powerups, more special",1
    2930 0001c6b0           lwiqstr_h5a
    2931 0001c6b0       6d          .string "moves, more speech, more skill!",0
    2932 0001c7b0       20          .string " ",0
    2933                    
    2934 0001c7c0           lwiqstr_h6
    2935 0001c7c0       53          .string "Super star matchups & other surprises if you",1
    2936 0001c928           lwiqstr_h6a
    2937 0001c928       63          .string "can defeat all 27 teams.",0
    2938 0001c9f0       20          .string " ",0
    2939                    
    2940 0001ca00           lwiqstr_h7
    2941 0001ca00       54          .string "Tournament mode turns off all powerups and",1
    2942 0001cb58           lwiqstr_h7a
    2943 0001cb58       64          .string "disallows any hidden features.",0
    2944 0001cc50       20          .string " ",0
    2945                    
    2946                    
    2947 0001cc60                   .even
    2948                    
    2949                    
    2950                    
    2951                    
    2952 0001cc60                   STRUCTPD
    2953 0001cc60                   WORD    HTS_STARTX
    2954 0001cc60                   WORD    HTS_STARTY
    2955 0001cc60                   APTR    HTS_STATSADDR
    2956 0001cc60                   APTR    HTS_PALETTE1
    2957 0001cc60                   APTR    HTS_PALETTE2
    2958 0001cc60                   APTR    HTS_PALETTE3
    2959 0001cc60                   APTR    HTS_PALETTE4
    2960 0001cc60                   APTR    HTS_PALETTE5
    2961 0001cc60                   APTR    HTS_PALETTE6
    2962 0001cc60                   APTR    HTS_PALETTE7
    2963 0001cc60                   APTR    HTS_PALETTE8
    2964 0001cc60                   APTR    HTS_PALETTE9
    2965 0001cc60                   APTR    HTS_PALETTEa
    2966                    
    2967                    
    2968                            .asg    128,STARTX1
    2969                            .asg    39+1-5,STARTY1
    2970                    
TMS340 COFF Macro Assembler Version 6.10     Tue Dec 19 01:45:12 2023
 Copyright (c) 1985-1991  Texas Instruments Incorporated 

attract mode                                                         PAGE   67

    2971                            .asg    324,STARTX2
    2972                            .asg    146+1-5,STARTY2
    2973                            .asg    11,YSPACING1
    2974                    
    2975 0001cc60            SUBR   stats_page2
    2976                    
    2977 0001cc60                   PUSHP   a0
    2978 0001cc70     c00d          jruc    tkvbtvout
    2979                    
    2980 0001cc80            SUBR   stats_page
    2981                    
    2982 0001cc80                   PUSHP   a0
    2983                    
    2984 0001cc90     09ca          movi    4*60,a10
         0001cca0     00f0  
    2985                    
    2986 0001ccb0           tkvbstop        SLEEPK  1
    2987 0001ccf0     142a          dec     a10
    2988 0001cd00     ca04          jrz     tkvbtvout
    2989 0001cd10     07a0          move    @tvpanelon,a0,L
         0001cd20 00000000! 
    2990 0001cd40     cbf6          jrnz    tkvbstop
    2991 0001cd50           tkvbtvout
    2992 0001cd50     0d3f          callr   kill_tvpanel
         0001cd60     f2c9  
    2993                    
    2994                    
    2995 0001cd70     0d5f          calla   display_blank
         0001cd80 00000000! 
    2996 0001cda0     0d5f          calla   system_savegame
         0001cdb0 00000000! 
    2997                    
    2998 0001cdd0     5600          clr     a0
    2999 0001cde0     0580          move    a0,@dtype               ;2D
         0001cdf0 00000000! 
    3000                    
    3001 0001ce10     09c0          movi    4<<10+4<<5+7,a0
         0001ce20     1087  
    3002 0001ce30     0580          move    a0,@IRQSKYE             ;background color
         0001ce40 00000000! 
    3003                    
    3004 0001ce60     1880          movk    INPLYRINFO,a0
    3005 0001ce70     0580          move    a0,@GAMSTATE
         0001ce80 00000000! 
    3006                    
    3007 0001cea0     09e0          movi    SCRNEND,a0              ;[256,405]
         0001ceb0 00fe01b0  
    3008 0001ced0     0780          move    a0,@SCRNLR,L
         0001cee0 00000000! 
    3009                    
    3010 0001cf00     5600          clr     a0
    3011 0001cf10     0780          move    a0,@WORLDTLX,L
         0001cf20 00000000! 
    3012 0001cf40     0780          move    a0,@WORLDTLY,L
         0001cf50 00000000! 
TMS340 COFF Macro Assembler Version 6.10     Tue Dec 19 01:45:12 2023
 Copyright (c) 1985-1991  Texas Instruments Incorporated 

attract mode                                                         PAGE   68

    3013                    
    3014 0001cf70                   SLEEPK  2
    3015                    
    3016 0001cfb0     09e0          movi    tkvbhalftime_mod,a0
         0001cfc0 0001f370' 
    3017                    
    3018 0001cfe0     05a1          move    @TWOPLAYERS,a1          ;0 = NO, 1 = YES 2 players
         0001cff0 00000000! 
    3019 0001d010     ca03          jrz     tkvb4_plyrs
    3020                    
    3021 0001d020     09e0          movi    tkvbhalftime_mod2,a0
         0001d030 0001f450' 
    3022 0001d050           tkvb4_plyrs
    3023 0001d050     0780          move    a0,@BAKMODS,L
         0001d060 00000000! 
    3024 0001d080     0d5f          calla   BGND_UD1
         0001d090 00000000! 
    3025                    
    3026                            .ref    create_bits
    3027 0001d0b0     0d5f          calla   create_bits
         0001d0c0 00000000! 
    3028                    
    3029 0001d0e0     09e8          MOVI    [3,9],a8                ;START AT COLOR 3, CYCLE 9 COLORS
         0001d0f0 00030009  
    3030 0001d110     09e9          MOVI    SGMD8WHT,a9             ;PAL NAME
         0001d120 00000000! 
    3031 0001d140     09ea          MOVI    COLTAB2,a10             ;TABLE TO CYCLE WITH
         0001d150 00000000! 
    3032 0001d170     186b          MOVK    3,a11                   ;RATE OF CYCLE IN TICKS
    3033 0001d180                   CREATE  CYCPID,CYCLE_TABLE      ;START PROCESS TO DO CYCLE
    3034                     
    3035 0001d200     09e8          MOVI    [3,9],a8                ;START AT COLOR 3, CYCLE 9 COLORS
         0001d210 00030009  
    3036 0001d230     09e9          MOVI    SGMD8VIO,a9             ;PAL NAME
         0001d240 00000000! 
    3037 0001d260     09ea          MOVI    COLTABRED,a10           ;TABLE TO CYCLE WITH
         0001d270 0001ebc0' 
    3038 0001d290     186b          MOVK    3,a11                   ;RATE OF CYCLE IN TICKS
    3039 0001d2a0                   CREATE  CYCPID,CYCLE_TABLE      ;START PROCESS TO DO CYCLE
    3040                     
    3041 0001d320     09e2          movi    tkvbheading_setup,a2
         0001d330 0001f530' 
    3042 0001d350     0d5f          calla   setup_message
         0001d360 00000000! 
    3043 0001d380                   PULLP   a0
    3044 0001d390     09e4          movi    tkvbstr_heading1,a4
         0001d3a0 0001f5d0' 
    3045 0001d3c0     4c00          move    a0,a0
    3046 0001d3d0     ca03          jrz     tkvb1st_half
    3047 0001d3e0     09e4          movi    tkvbstr_heading2,a4
         0001d3f0 0001f650' 
    3048 0001d410           tkvb1st_half
    3049 0001d410     0d5f          calla   print_string_C2
         0001d420 00000000! 
    3050                    
TMS340 COFF Macro Assembler Version 6.10     Tue Dec 19 01:45:12 2023
 Copyright (c) 1985-1991  Texas Instruments Incorporated 

attract mode                                                         PAGE   69

    3051                    
    3052 0001d440                   CREATE0 stats_shadow
    3053                    
    3054                    
    3055 0001d4b0     07a1          move    @special_heads,a1,L
         0001d4c0 00000000! 
    3056 0001d4e0                   PUSH    a0,a1
    3057                    
    3058                    
    3059 0001d500     05a1          move    @TWOPLAYERS,a1          ;0 = NO, 1 = YES 2 players
         0001d510 00000000! 
    3060 0001d530     ca0c          jrz     tkvb4_plyrsb
    3061                    
    3062                    
    3063 0001d540     05a0          move    @special_heads,a0
         0001d550 00000000! 
    3064 0001d570     05a1          move    @special_heads+10h,a1
         0001d580 00000010! 
    3065                    
    3066 0001d5a0     0581          move    a1,@special_heads
         0001d5b0 00000000! 
    3067 0001d5d0     0580          move    a0,@special_heads+10h
         0001d5e0 00000010! 
    3068                    
    3069 0001d600           tkvb4_plyrsb
    3070 0001d600     0d3f          callr   create_heads
         0001d610     033f  
    3071 0001d620     0d3f          callr   create_names
         0001d630     0491  
    3072 0001d640     0d3f          callr   create_initials
         0001d650     03e8  
    3073 0001d660                   PULL    a0,a1
    3074 0001d680     0781          move    a1,@special_heads,L
         0001d690 00000000! 
    3075                    
    3076 0001d6b0     0d3f          callr   print_scores
         0001d6c0     0201  
    3077 0001d6d0                   CREATE0 credits2
    3078                    
    3079 0001d740     09e0          movi    [170,0],a0              ;x val
         0001d750 00aa0000  
    3080 0001d770     09e1          movi    [243,0],a1              ;y val
         0001d780 00f30000  
    3081 0001d7a0     09e2          movi    credbox,a2              ;* image
         0001d7b0 00000000! 
    3082 0001d7d0     09c3          movi    20000-2,a3              ;z pos
         0001d7e0     4e1e  
    3083 0001d7f0     09e4          movi    DMAWNZ,a4               ;DMA flags
         0001d800 00008002  
    3084 0001d820     56a5          clr     a5                      ;object ID
    3085 0001d830     56c6          clr     a6                      ;x vel
    3086 0001d840     56e7          clr     a7                      ;y vel
    3087 0001d850     0d5f          calla   BEGINOBJ2
         0001d860 00000000! 
    3088                    
TMS340 COFF Macro Assembler Version 6.10     Tue Dec 19 01:45:12 2023
 Copyright (c) 1985-1991  Texas Instruments Incorporated 

attract mode                                                         PAGE   70

    3089                    
    3090 0001d880     09e2          movi    player_stats+(0*PS_SIZE*10h),a2
         0001d890 00000000! 
    3091 0001d8b0     09e3          movi    player_stats+(1*PS_SIZE*10h),a3
         0001d8c0 000000e0! 
    3092 0001d8e0     09e4          movi    player_stats+(2*PS_SIZE*10h),a4
         0001d8f0 000001c0! 
    3093 0001d910     09e5          movi    player_stats+(3*PS_SIZE*10h),a5
         0001d920 000002a0! 
    3094 0001d940     0d3f          callr   highlight_best
         0001d950     020f  
    3095                    
    3096 0001d960     09e0          movi    player_stats + 0*PS_SIZE*10h,a0
         0001d970 00000000! 
    3097 0001d990     b20d          move    a0,*a13(HTS_STATSADDR),L
         0001d9a0     0120  
    3098 0001d9b0     09c0          movi    STARTX1,a0
         0001d9c0     0080  
    3099 0001d9d0     b00d          move    a0,*a13(HTS_STARTX)
         0001d9e0     0100  
    3100                    
    3101 0001d9f0     09c0          movi    STARTY1,a0
         0001da00     0023  
    3102 0001da10     05a1          move    @TWOPLAYERS,a1          ;0 = NO, 1 = YES 2 players
         0001da20 00000000! 
    3103 0001da40     ca02          jrz     tkvb4_plyrs_ps1
    3104 0001da50     09c0          movi    STARTY2,a0
         0001da60     008e  
    3105 0001da70           tkvb4_plyrs_ps1
    3106 0001da70     b00d          move    a0,*a13(HTS_STARTY)
         0001da80     0110  
    3107 0001da90     0d3f          callr   print_pstats
         0001daa0     0569  
    3108                    
    3109                    
    3110 0001dab0     09e2          movi    player_stats+(1*PS_SIZE*10h),a2
         0001dac0 000000e0! 
    3111 0001dae0     09e3          movi    player_stats+(0*PS_SIZE*10h),a3
         0001daf0 00000000! 
    3112 0001db10     09e4          movi    player_stats+(2*PS_SIZE*10h),a4
         0001db20 000001c0! 
    3113 0001db40     09e5          movi    player_stats+(3*PS_SIZE*10h),a5
         0001db50 000002a0! 
    3114 0001db70     0d3f          callr   highlight_best
         0001db80     01ec  
    3115                    
    3116 0001db90     09e0          movi    player_stats + 1*PS_SIZE*10h,a0
         0001dba0 000000e0! 
    3117 0001dbc0     b20d          move    a0,*a13(HTS_STATSADDR),L
         0001dbd0     0120  
    3118 0001dbe0     09c0          movi    STARTX1,a0
         0001dbf0     0080  
    3119 0001dc00     b00d          move    a0,*a13(HTS_STARTX)
         0001dc10     0100  
    3120                    
TMS340 COFF Macro Assembler Version 6.10     Tue Dec 19 01:45:12 2023
 Copyright (c) 1985-1991  Texas Instruments Incorporated 

attract mode                                                         PAGE   71

    3121 0001dc20     09c0          movi    STARTY2,a0
         0001dc30     008e  
    3122 0001dc40     05a1          move    @TWOPLAYERS,a1          ;0 = NO, 1 = YES 2 players
         0001dc50 00000000! 
    3123 0001dc70     ca02          jrz     tkvb4_plyrs_ps2
    3124 0001dc80     09c0          movi    STARTY1,a0
         0001dc90     0023  
    3125 0001dca0           tkvb4_plyrs_ps2
    3126 0001dca0     b00d          move    a0,*a13(HTS_STARTY)
         0001dcb0     0110  
    3127 0001dcc0     0d3f          callr   print_pstats
         0001dcd0     0546  
    3128                    
    3129                    
    3130 0001dce0     09e2          movi    player_stats+(2*PS_SIZE*10h),a2
         0001dcf0 000001c0! 
    3131 0001dd10     09e3          movi    player_stats+(0*PS_SIZE*10h),a3
         0001dd20 00000000! 
    3132 0001dd40     09e4          movi    player_stats+(1*PS_SIZE*10h),a4
         0001dd50 000000e0! 
    3133 0001dd70     09e5          movi    player_stats+(3*PS_SIZE*10h),a5
         0001dd80 000002a0! 
    3134 0001dda0     0d3f          callr   highlight_best
         0001ddb0     01c9  
    3135                    
    3136 0001ddc0     09e0          movi    player_stats + 2*PS_SIZE*10h,a0
         0001ddd0 000001c0! 
    3137 0001ddf0     b20d          move    a0,*a13(HTS_STATSADDR),L
         0001de00     0120  
    3138 0001de10     09c0          movi    STARTX2,a0
         0001de20     0144  
    3139 0001de30     b00d          move    a0,*a13(HTS_STARTX)
         0001de40     0100  
    3140 0001de50     09c0          movi    STARTY1,a0
         0001de60     0023  
    3141 0001de70     b00d          move    a0,*a13(HTS_STARTY)
         0001de80     0110  
    3142 0001de90     0d3f          callr   print_pstats
         0001dea0     0529  
    3143                    
    3144                    
    3145 0001deb0     09e2          movi    player_stats+(3*PS_SIZE*10h),a2
         0001dec0 000002a0! 
    3146 0001dee0     09e3          movi    player_stats+(0*PS_SIZE*10h),a3
         0001def0 00000000! 
    3147 0001df10     09e4          movi    player_stats+(1*PS_SIZE*10h),a4
         0001df20 000000e0! 
    3148 0001df40     09e5          movi    player_stats+(2*PS_SIZE*10h),a5
         0001df50 000001c0! 
    3149 0001df70     0d3f          callr   highlight_best
         0001df80     01ac  
    3150                    
    3151 0001df90     09e0          movi    player_stats + 3*PS_SIZE*10h,a0
         0001dfa0 000002a0! 
    3152 0001dfc0     b20d          move    a0,*a13(HTS_STATSADDR),L
TMS340 COFF Macro Assembler Version 6.10     Tue Dec 19 01:45:12 2023
 Copyright (c) 1985-1991  Texas Instruments Incorporated 

attract mode                                                         PAGE   72

         0001dfd0     0120  
    3153 0001dfe0     09c0          movi    STARTX2,a0
         0001dff0     0144  
    3154 0001e000     b00d          move    a0,*a13(HTS_STARTX)
         0001e010     0100  
    3155 0001e020     09c0          movi    STARTY2,a0
         0001e030     008e  
    3156 0001e040     b00d          move    a0,*a13(HTS_STARTY)
         0001e050     0110  
    3157 0001e060     0d3f          callr   print_pstats
         0001e070     050c  
    3158                    
    3159                    
    3160                    
    3161 0001e080     1820          movk    1,a0
    3162 0001e090     0580          move    a0,@DISPLAYON
         0001e0a0 00000000! 
    3163                    
    3164 0001e0c0                   SLEEPK  2
    3165 0001e100     0d5f          calla   display_unblank
         0001e110 00000000! 
    3166                    
    3167 0001e130                   SLEEP   TSEC*1
    3168                    
    3169 0001e180     09ca          movi    24*TSEC,a10
         0001e190     04f8  
    3170                    
    3171 0001e1a0           tkvbwhopper_with_cheese
    3172 0001e1a0                   SLEEPK  1
    3173 0001e1e0     0d5f          calla   get_all_buttons_cur2
         0001e1f0 00000000! 
    3174 0001e210     cb01          jrnz    tkvbexit
    3175 0001e220     3d2a          dsj     a10,tkvbwhopper_with_cheese
    3176 0001e230           tkvbexit
    3177                    
    3178 0001e230                   SOUND1  bounce_snd
    3179                    
    3180 0001e290     05a0          move    @gmqrtr,a0
         0001e2a0 00000000! 
    3181 0001e2c0     0b40          cmpi    2,a0
         0001e2d0     fffd  
    3182 0001e2e0     cb07          jrnz    tkvbnoth
    3183 0001e2f0                   JSRP    plyr_subs
    3184 0001e360           tkvbnoth
    3185                            .ref    buyin_screen
    3186 0001e360                   JSRP    buyin_screen
    3187                    
    3188 0001e3d0     5600          clr     a0
    3189 0001e3e0     0580          move    a0,@DISPLAYON
         0001e3f0 00000000! 
    3190                    
    3191 0001e410     0d5f          calla   QSNDRST
         0001e420 00000000! 
    3192 0001e440                   SLEEPK  2
    3193                    
TMS340 COFF Macro Assembler Version 6.10     Tue Dec 19 01:45:12 2023
 Copyright (c) 1985-1991  Texas Instruments Incorporated 

attract mode                                                         PAGE   73

    3194 0001e480     0d5f          calla   system_restoregame
         0001e490 00000000! 
    3195                    
    3196                    
    3197                    
    3198 0001e4b0     09c0          movi    CLSDEAD|creditid,a0
         0001e4c0     2089  
    3199 0001e4d0     0d5f          calla   obj_del1c               ;kill credit/qrtr imgs
         0001e4e0 00000000! 
    3200                    
    3201 0001e500     0d5f          calla   prt_credits
         0001e510 00000000! 
    3202                    
    3203 0001e530                   CREATE0 start_msgs
    3204 0001e5a0     0d5f          calla   fix_dropout_msgs
         0001e5b0 00000000! 
    3205                    
    3206                    
    3207                            .ref    gmqrtr
    3208 0001e5d0     05a0          move    @gmqrtr,a0
         0001e5e0 00000000! 
    3209 0001e600     0b40          cmpi    4,a0
         0001e610     fffb  
    3210 0001e620     c406          jrlt    tkvbnotn
    3211 0001e630                   SOUND1  tuneend_snd
    3212 0001e690           tkvbnotn
    3213                    
    3214 0001e690                   RETP
    3215                    
    3216 0001e6c0            SUBR   plyr_subs
    3217                    
    3218 0001e6c0     09e0          movi    DMAWNZ,a0
         0001e6d0 00008002  
    3219 0001e6f0     09e1          movi    OBJLST,a1
         0001e700 00000000! 
    3220 0001e720     c002          jruc    so20
    3221                    
    3222 0001e730     b001  so10    move    a0,*a1(OFLAGS)
         0001e740     00e0  
    3223 0001e750     8621  so20    move    *a1,a1,L
    3224 0001e760     cbfc          jrnz    so10
    3225                    
    3226                    
    3227                            .ref    start_teams
    3228                    
    3229 0001e770                   JSRP    start_teams
    3230                    
    3231 0001e7e0                   RETP
    3232                    
    3233                    
    3234                    
    3235                    RGB     .macro  R,G,B
    3236                            .word   (:R:<<10) | (:G:<<5) | :B:
    3237                            .endm
    3238                    
TMS340 COFF Macro Assembler Version 6.10     Tue Dec 19 01:45:12 2023
 Copyright (c) 1985-1991  Texas Instruments Incorporated 

attract mode                                                         PAGE   74

    3239 0001e810           COLTAB
    3240 0001e810     7fff          .word   07fffh,07bffh,077ffh,073ffh,06fffh
    3241 0001e860     6bff          .word   06bffh,067deh,063deh,05fdeh,05bdeh,057deh,043bdh,033bdh
    3242 0001e8e0     1f9c          .word   01f9ch,00f7bh,0037bh,00f7bh,01b9ch,02b9ch,03bbdh,04bbdh
    3243 0001e960     5fde          .word   05fdeh,063deh,067deh,06bdeh,06fffh,077ffh,07bffh,07fffh
    3244                    
    3245 0001e9e0     7fff          .word   07fffh,07bffh,077ffh,073ffh,06fffh
    3246 0001ea30     6bff          .word   06bffh,067deh,063deh,05fdeh,05bdeh,057deh,043bdh,033bdh
    3247 0001eab0     1f9c          .word   01f9ch,00f7bh,0037bh,00f7bh,01b9ch,02b9ch,03bbdh,04bbdh
    3248 0001eb30     5fde          .word   05fdeh,063deh,067deh,06bdeh,06fffh,077ffh,07bffh,07fffh
    3249 0001ebb0     ffff          .word   -1
    3250                    
    3251 0001ebc0           COLTABRED
    3252 0001ebc0     7d2a          .word   07d2ah,07d08h,07cc6h,07ca5h,07c63h,07c42h,07c00h
    3253 0001ec30     7c00          .word   07c00h,07c00h,07c42h,07c63h,07c84h,07ca5h,07ce7h,07d08h
    3254 0001ecb0     7d29          .word   07d29h,07d4ah,07d8ch,07dadh,07dceh,07e10h,07defh,07dceh
    3255 0001ed30     7d8c          .word   07d8ch,07d6bh,07d4ah,07d29h,07d08h,07ce7h,07cc6h,07ca5h
    3256 0001edb0     7c84          .word   07c84h,07c63h,07c42h,07c21h,07c00h,07c00h,07c21h,07c63h
    3257 0001ee30     7ca5          .word   07ca5h,07ce7h,07d29h,07d6bh,07dadh,07defh,07e31h,07e73h
    3258 0001eeb0     7eb5          .word   07eb5h,07ef7h,07f39h,07f7bh,07fbdh,07fffh,07f9ch,07f39h
    3259 0001ef30     7ef7          .word   07ef7h,07e94h,07e31h,07defh,07d8ch,07d2ah
    3260                    
    3261 0001ef90     7d2a          .word   07d2ah,07d08h,07cc6h,07ca5h,07c63h,07c42h,07c00h
    3262 0001f000     7c00          .word   07c00h,07c00h,07c42h,07c63h,07c84h,07ca5h,07ce7h,07d08h
    3263 0001f080     7d29          .word   07d29h,07d4ah,07d8ch,07dadh,07dceh,07e10h,07defh,07dceh
    3264 0001f100     7d8c          .word   07d8ch,07d6bh,07d4ah,07d29h,07d08h,07ce7h,07cc6h,07ca5h
    3265 0001f180     7c84          .word   07c84h,07c63h,07c42h,07c21h,07c00h,07c00h,07c21h,07c63h
    3266 0001f200     7ca5          .word   07ca5h,07ce7h,07d29h,07d6bh,07dadh,07defh,07e31h,07e73h
    3267 0001f280     7eb5          .word   07eb5h,07ef7h,07f39h,07f7bh,07fbdh,07fffh,07f9ch,07f39h
    3268 0001f300     7ef7          .word   07ef7h,07e94h,07e31h,07defh,07d8ch,07d2ah
    3269 0001f360     ffff          .WORD   -1
    3270                    
    3271 0001f370           tkvbhalftime_mod
    3272 0001f370 00000000!         .long   statscrnBMOD            ;stats screen
    3273 0001f390     0000          .word   0,0
    3274 0001f3b0 00000000!         .long   subsBMOD                ;substitute players page
    3275 0001f3d0     fffc          .word   -4,256
    3276 0001f3f0 00000000!         .long   namebox3BMOD            ;stats box map
    3277 0001f410     0009          .word   13-4,01c1H
    3278 0001f430 00000000          .long   0
    3279                    
    3280                    
    3281 0001f450           tkvbhalftime_mod2
    3282 0001f450 00000000!         .long   statscrkBMOD            ;stats screen
    3283 0001f470     0000          .word   0,0
    3284 0001f490 00000000!         .long   subsBMOD                ;substitute players page
    3285 0001f4b0     fffc          .word   -4,256
    3286 0001f4d0 00000000!         .long   namebox4BMOD            ;stats box map
    3287 0001f4f0     0009          .word   13-4,01c1H
    3288 0001f510 00000000          .long   0
    3289                    
    3290 0001f530           tkvbheading_setup
    3291 0001f530                   RJR_STR osgemd_ascii,8,0,200,4,WHITEPAL,0
    3292 0001f5d0           tkvbstr_heading1
    3293 0001f5d0       31          .string "1st half stats:",0
TMS340 COFF Macro Assembler Version 6.10     Tue Dec 19 01:45:12 2023
 Copyright (c) 1985-1991  Texas Instruments Incorporated 

attract mode                                                         PAGE   75

    3294 0001f650           tkvbstr_heading2
    3295 0001f650       66          .string "final game stats:",0
    3296                    
    3297 0001f6e0                   .even
    3298                    
    3299                    
    3300                            .asg    0+45,SX1
    3301                            .asg    400-45,SX2
    3302                    
    3303 0001f6e0            SUBRP  print_scores
    3304                    
    3305 0001f6e0     09e2          movi    mlauscore_setup,a2
         0001f6f0 0001f9b0' 
    3306 0001f710     0d5f          calla   setup_message
         0001f720 00000000! 
    3307                    
    3308 0001f740     09c0          movi    SX1,a0
         0001f750     002d  
    3309 0001f760     0580          move    a0,@mess_cursx
         0001f770 00000000! 
    3310 0001f790     05a0          move    @scores,a0
         0001f7a0 00000000! 
    3311 0001f7c0     09c1          movi    999,a1                  ;max value
         0001f7d0     03e7  
    3312 0001f7e0     0d5f          calla   dec_to_asc
         0001f7f0 00000000! 
    3313 0001f810     0d5f          calla   copy_string
         0001f820 00000000! 
    3314 0001f840     0d5f          calla   print_string_C
         0001f850 00000000! 
    3315                    
    3316 0001f870     09c0          movi    SX2,a0
         0001f880     0163  
    3317 0001f890     0580          move    a0,@mess_cursx
         0001f8a0 00000000! 
    3318 0001f8c0     05a0          move    @scores+16,a0
         0001f8d0 00000010! 
    3319 0001f8f0     09c1          movi    999,a1                  ;max value
         0001f900     03e7  
    3320 0001f910     0d5f          calla   dec_to_asc
         0001f920 00000000! 
    3321 0001f940     0d5f          calla   copy_string
         0001f950 00000000! 
    3322 0001f970     0d5f          calla   print_string_C
         0001f980 00000000! 
    3323                    
    3324 0001f9a0     0960          rets
    3325                    
    3326 0001f9b0           mlauscore_setup
    3327 0001f9b0                   RJR_STR osgemd_ascii,8,0,200,4,GOLD,0
    3328                    
    3329                    
    3330 0001fa50            SUBRP  highlight_best
    3331                    
    3332                    
TMS340 COFF Macro Assembler Version 6.10     Tue Dec 19 01:45:12 2023
 Copyright (c) 1985-1991  Texas Instruments Incorporated 

attract mode                                                         PAGE   76

    3333 0001fa50     09e6          movi    SGMD8YEL,a6
         0001fa60 00000000! 
    3334 0001fa80     b440          move    *a2(PS_2PTS_MADE*10h),a0
         0001fa90     0010  
    3335 0001faa0     b447          move    *a2(PS_3PTS_MADE*10h),a7
         0001fab0     0030  
    3336 0001fac0     40e0          add     a7,a0
    3337 0001fad0     ca18          jrz     tucbnot_best1
    3338                    
    3339 0001fae0     b461          move    *a3(PS_2PTS_MADE*10h),a1
         0001faf0     0010  
    3340 0001fb00     b467          move    *a3(PS_3PTS_MADE*10h),a7
         0001fb10     0030  
    3341 0001fb20     40e1          add     a7,a1
    3342 0001fb30     4820          cmp     a1,a0
    3343 0001fb40     c811          jrlo    tucbnot_best1
    3344                    
    3345 0001fb50     b481          move    *a4(PS_2PTS_MADE*10h),a1
         0001fb60     0010  
    3346 0001fb70     b487          move    *a4(PS_3PTS_MADE*10h),a7
         0001fb80     0030  
    3347 0001fb90     40e1          add     a7,a1
    3348 0001fba0     4820          cmp     a1,a0
    3349 0001fbb0     c80a          jrlo    tucbnot_best1
    3350                    
    3351 0001fbc0     b4a1          move    *a5(PS_2PTS_MADE*10h),a1
         0001fbd0     0010  
    3352 0001fbe0     b4a7          move    *a5(PS_3PTS_MADE*10h),a7
         0001fbf0     0030  
    3353 0001fc00     40e1          add     a7,a1
    3354 0001fc10     4820          cmp     a1,a0
    3355 0001fc20     c803          jrlo    tucbnot_best1
    3356                    
    3357 0001fc30     09e6          movi    SGMD8WHT,a6
         0001fc40 00000000! 
    3358 0001fc60           tucbnot_best1
    3359 0001fc60     b2cd          move    a6,*a13(HTS_PALETTE1),L
         0001fc70     0140  
    3360                    
    3361                    
    3362 0001fc80     09e6          movi    SGMD8YEL,a6
         0001fc90 00000000! 
    3363 0001fcb0     b440          move    *a2(PS_3PTS_MADE*10h),a0
         0001fcc0     0030  
    3364 0001fcd0     ca0f          jrz     tucbnot_best2
    3365 0001fce0     b461          move    *a3(PS_3PTS_MADE*10h),a1
         0001fcf0     0030  
    3366 0001fd00     4820          cmp     a1,a0
    3367 0001fd10     c80b          jrlo    tucbnot_best2
    3368 0001fd20     b481          move    *a4(PS_3PTS_MADE*10h),a1
         0001fd30     0030  
    3369 0001fd40     4820          cmp     a1,a0
    3370 0001fd50     c807          jrlo    tucbnot_best2
    3371 0001fd60     b4a1          move    *a5(PS_3PTS_MADE*10h),a1
         0001fd70     0030  
TMS340 COFF Macro Assembler Version 6.10     Tue Dec 19 01:45:12 2023
 Copyright (c) 1985-1991  Texas Instruments Incorporated 

attract mode                                                         PAGE   77

    3372 0001fd80     4820          cmp     a1,a0
    3373 0001fd90     c803          jrlo    tucbnot_best2
    3374 0001fda0     09e6          movi    SGMD8WHT,a6
         0001fdb0 00000000! 
    3375 0001fdd0           tucbnot_best2
    3376 0001fdd0     b2cd          move    a6,*a13(HTS_PALETTE2),L
         0001fde0     0160  
    3377                    
    3378                    
    3379                    
    3380                    
    3381                    
    3382 0001fdf0     09e6          movi    SGMD8YEL,a6
         0001fe00 00000000! 
    3383 0001fe20     b440          move    *a2(PS_2PTS_MADE*10h),a0
         0001fe30     0010  
    3384 0001fe40     b447          move    *a2(PS_3PTS_MADE*10h),a7
         0001fe50     0030  
    3385 0001fe60     40e0          add     a7,a0
    3386 0001fe70     2420          sll     1,a0                            ;x 2
    3387 0001fe80     40e0          add     a7,a0                           ;3 pts
    3388 0001fe90     ca1e          jrz     tucbnot_best4
    3389                    
    3390 0001fea0     b461          move    *a3(PS_2PTS_MADE*10h),a1
         0001feb0     0010  
    3391 0001fec0     b467          move    *a3(PS_3PTS_MADE*10h),a7
         0001fed0     0030  
    3392 0001fee0     40e1          add     a7,a1
    3393 0001fef0     2421          sll     1,a1                            ;x 2
    3394 0001ff00     40e1          add     a7,a1                           ;3 pts
    3395 0001ff10     4820          cmp     a1,a0
    3396 0001ff20     c815          jrlo    tucbnot_best4
    3397                    
    3398 0001ff30     b481          move    *a4(PS_2PTS_MADE*10h),a1
         0001ff40     0010  
    3399 0001ff50     b487          move    *a4(PS_3PTS_MADE*10h),a7
         0001ff60     0030  
    3400 0001ff70     40e1          add     a7,a1
    3401 0001ff80     2421          sll     1,a1                            ;x 2
    3402 0001ff90     40e1          add     a7,a1                           ;3 pts
    3403 0001ffa0     4820          cmp     a1,a0
    3404 0001ffb0     c80c          jrlo    tucbnot_best4
    3405                    
    3406 0001ffc0     b4a1          move    *a5(PS_2PTS_MADE*10h),a1
         0001ffd0     0010  
    3407 0001ffe0     b4a7          move    *a5(PS_3PTS_MADE*10h),a7
         0001fff0     0030  
    3408 00020000     40e1          add     a7,a1
    3409 00020010     2421          sll     1,a1                            ;x 2
    3410 00020020     40e1          add     a7,a1                           ;3 pts
    3411 00020030     4820          cmp     a1,a0
    3412 00020040     c803          jrlo    tucbnot_best4
    3413                    
    3414 00020050     09e6          movi    SGMD8WHT,a6
         00020060 00000000! 
TMS340 COFF Macro Assembler Version 6.10     Tue Dec 19 01:45:12 2023
 Copyright (c) 1985-1991  Texas Instruments Incorporated 

attract mode                                                         PAGE   78

    3415 00020080           tucbnot_best4
    3416 00020080     b2cd          move    a6,*a13(HTS_PALETTE4),L
         00020090     01a0  
    3417                    
    3418                    
    3419                    
    3420 000200a0     09e6          movi    SGMD8YEL,a6
         000200b0 00000000! 
    3421 000200d0     b440          move    *a2(PS_DUNKS_MADE*10h),a0
         000200e0     0050  
    3422 000200f0     ca0f          jrz     tucbnot_best5
    3423 00020100     b461          move    *a3(PS_DUNKS_MADE*10h),a1
         00020110     0050  
    3424 00020120     4820          cmp     a1,a0
    3425 00020130     c80b          jrlo    tucbnot_best5
    3426 00020140     b481          move    *a4(PS_DUNKS_MADE*10h),a1
         00020150     0050  
    3427 00020160     4820          cmp     a1,a0
    3428 00020170     c807          jrlo    tucbnot_best5
    3429 00020180     b4a1          move    *a5(PS_DUNKS_MADE*10h),a1
         00020190     0050  
    3430 000201a0     4820          cmp     a1,a0
    3431 000201b0     c803          jrlo    tucbnot_best5
    3432 000201c0     09e6          movi    SGMD8WHT,a6
         000201d0 00000000! 
    3433 000201f0           tucbnot_best5
    3434 000201f0     b2cd          move    a6,*a13(HTS_PALETTE5),L
         00020200     01c0  
    3435                    
    3436                    
    3437 00020210     09e6          movi    SGMD8YEL,a6
         00020220 00000000! 
    3438 00020240     b440          move    *a2(PS_ASSISTS*10h),a0
         00020250     00c0  
    3439 00020260     ca0f          jrz     tucbnot_best6
    3440 00020270     b461          move    *a3(PS_ASSISTS*10h),a1
         00020280     00c0  
    3441 00020290     4820          cmp     a1,a0
    3442 000202a0     c80b          jrlo    tucbnot_best6
    3443 000202b0     b481          move    *a4(PS_ASSISTS*10h),a1
         000202c0     00c0  
    3444 000202d0     4820          cmp     a1,a0
    3445 000202e0     c807          jrlo    tucbnot_best6
    3446 000202f0     b4a1          move    *a5(PS_ASSISTS*10h),a1
         00020300     00c0  
    3447 00020310     4820          cmp     a1,a0
    3448 00020320     c803          jrlo    tucbnot_best6
    3449 00020330     09e6          movi    SGMD8WHT,a6
         00020340 00000000! 
    3450 00020360           tucbnot_best6
    3451 00020360     b2cd          move    a6,*a13(HTS_PALETTE6),L
         00020370     01e0  
    3452                    
    3453                    
    3454 00020380     09e6          movi    SGMD8YEL,a6
TMS340 COFF Macro Assembler Version 6.10     Tue Dec 19 01:45:12 2023
 Copyright (c) 1985-1991  Texas Instruments Incorporated 

attract mode                                                         PAGE   79

         00020390 00000000! 
    3455 000203b0     b440          move    *a2(PS_STEALS*10h),a0
         000203c0     0090  
    3456 000203d0     ca0f          jrz     tucbnot_best7
    3457 000203e0     b461          move    *a3(PS_STEALS*10h),a1
         000203f0     0090  
    3458 00020400     4820          cmp     a1,a0
    3459 00020410     c80b          jrlo    tucbnot_best7
    3460 00020420     b481          move    *a4(PS_STEALS*10h),a1
         00020430     0090  
    3461 00020440     4820          cmp     a1,a0
    3462 00020450     c807          jrlo    tucbnot_best7
    3463 00020460     b4a1          move    *a5(PS_STEALS*10h),a1
         00020470     0090  
    3464 00020480     4820          cmp     a1,a0
    3465 00020490     c803          jrlo    tucbnot_best7
    3466 000204a0     09e6          movi    SGMD8WHT,a6
         000204b0 00000000! 
    3467 000204d0           tucbnot_best7
    3468 000204d0     b2cd          move    a6,*a13(HTS_PALETTE7),L
         000204e0     0200  
    3469                    
    3470                    
    3471 000204f0     09e6          movi    SGMD8YEL,a6
         00020500 00000000! 
    3472 00020520     b440          move    *a2(PS_BLOCKS*10h),a0
         00020530     0060  
    3473 00020540     ca0f          jrz     tucbnot_best8
    3474 00020550     b461          move    *a3(PS_BLOCKS*10h),a1
         00020560     0060  
    3475 00020570     4820          cmp     a1,a0
    3476 00020580     c80b          jrlo    tucbnot_best8
    3477 00020590     b481          move    *a4(PS_BLOCKS*10h),a1
         000205a0     0060  
    3478 000205b0     4820          cmp     a1,a0
    3479 000205c0     c807          jrlo    tucbnot_best8
    3480 000205d0     b4a1          move    *a5(PS_BLOCKS*10h),a1
         000205e0     0060  
    3481 000205f0     4820          cmp     a1,a0
    3482 00020600     c803          jrlo    tucbnot_best8
    3483 00020610     09e6          movi    SGMD8WHT,a6
         00020620 00000000! 
    3484 00020640           tucbnot_best8
    3485 00020640     b2cd          move    a6,*a13(HTS_PALETTE8),L
         00020650     0220  
    3486                    
    3487                    
    3488 00020660     09e6          movi    SGMD8YEL,a6
         00020670 00000000! 
    3489 00020690     b440          move    *a2(PS_OFF_REB*10h),a0
         000206a0     0070  
    3490 000206b0     b447          move    *a2(PS_DEF_REB*10h),a7
         000206c0     0080  
    3491 000206d0     40e0          add     a7,a0
    3492 000206e0     ca18          jrz     tucbnot_best9
TMS340 COFF Macro Assembler Version 6.10     Tue Dec 19 01:45:12 2023
 Copyright (c) 1985-1991  Texas Instruments Incorporated 

attract mode                                                         PAGE   80

    3493                    
    3494 000206f0     b461          move    *a3(PS_OFF_REB*10h),a1
         00020700     0070  
    3495 00020710     b467          move    *a3(PS_DEF_REB*10h),a7
         00020720     0080  
    3496 00020730     40e1          add     a7,a1
    3497 00020740     4820          cmp     a1,a0
    3498 00020750     c811          jrlo    tucbnot_best9
    3499 00020760     b481          move    *a4(PS_OFF_REB*10h),a1
         00020770     0070  
    3500 00020780     b487          move    *a4(PS_DEF_REB*10h),a7
         00020790     0080  
    3501 000207a0     40e1          add     a7,a1
    3502 000207b0     4820          cmp     a1,a0
    3503 000207c0     c80a          jrlo    tucbnot_best9
    3504 000207d0     b4a1          move    *a5(PS_OFF_REB*10h),a1
         000207e0     0070  
    3505 000207f0     b4a7          move    *a5(PS_DEF_REB*10h),a7
         00020800     0080  
    3506 00020810     40e1          add     a7,a1
    3507 00020820     4820          cmp     a1,a0
    3508 00020830     c803          jrlo    tucbnot_best9
    3509 00020840     09e6          movi    SGMD8WHT,a6
         00020850 00000000! 
    3510 00020870           tucbnot_best9
    3511 00020870     b2cd          move    a6,*a13(HTS_PALETTE9),L
         00020880     0240  
    3512                    
    3513                    
    3514 00020890     09e6          movi    SGMD8YEL,a6
         000208a0 00000000! 
    3515 000208c0     b440          move    *a2(PS_INJURY*10h),a0
         000208d0     00d0  
    3516 000208e0     ca0f          jrz     tucbnot_besta
    3517 000208f0     b461          move    *a3(PS_INJURY*10h),a1
         00020900     00d0  
    3518 00020910     4820          cmp     a1,a0
    3519 00020920     c80b          jrlo    tucbnot_besta
    3520 00020930     b481          move    *a4(PS_INJURY*10h),a1
         00020940     00d0  
    3521 00020950     4820          cmp     a1,a0
    3522 00020960     c807          jrlo    tucbnot_besta
    3523 00020970     b4a1          move    *a5(PS_INJURY*10h),a1
         00020980     00d0  
    3524 00020990     4820          cmp     a1,a0
    3525 000209a0     c803          jrlo    tucbnot_besta
    3526 000209b0     09e6          movi    SGMD8VIO,a6
         000209c0 00000000! 
    3527 000209e0           tucbnot_besta
    3528 000209e0     b2cd          move    a6,*a13(HTS_PALETTEa),L
         000209f0     0260  
    3529                    
    3530                    
    3531 00020a00     0960          rets
    3532                    
TMS340 COFF Macro Assembler Version 6.10     Tue Dec 19 01:45:12 2023
 Copyright (c) 1985-1991  Texas Instruments Incorporated 

attract mode                                                         PAGE   81

    3533                    
    3534                    
    3535                            .asg    65,HEAD_WIDTH
    3536                            .asg    10,HEDX1
    3537                            .asg    206,HEDX2
    3538                            .asg    99,HEDY1
    3539                            .asg    206,HEDY2
    3540                    
    3541 00020a10            SUBRP  create_heads
    3542                    
    3543 00020a10     09ea          movi    player_heads,a10
         00020a20 00000000! 
    3544 00020a40     05a2          move    @team1,a2
         00020a50 00000000! 
    3545 00020a70     0b42  hvbllp  cmpi    0,a2
         00020a80     ffff  
    3546 00020a90     ca04          jrz     hvblout
    3547 00020aa0     0b0a          addi    20*64,a10
         00020ab0     0500  
    3548 00020ac0     1422          dec     a2
    3549 00020ad0     c0f9          jruc    hvbllp  
    3550 00020ae0           hvblout
    3551 00020ae0     05a0          move    @team1,a0
         00020af0 00000000! 
    3552 00020b10     2480          sll     4,a0
    3553 00020b20     0b20          addi    tm1set,a0
         00020b30 00000000! 
    3554 00020b50     840e          move    *a0,a14
    3555 00020b60     24ce          sll     6,a14
    3556 00020b70     41ca          add     a14,a10
    3557                    
    3558                    
    3559 00020b80     8742          move    *a10,a2,L               ;image addr
    3560 00020b90     05a0          move    @special_heads,a0
         00020ba0 00000000! 
    3561 00020bc0     ce05          jrn     hvblno_spec1
    3562 00020bd0     24a0          sll     5,a0                    ;x 32 bits
    3563 00020be0     0b20          addi    our_heads,a0
         00020bf0 00000000! 
    3564 00020c10     8602          move    *a0,a2,L
    3565 00020c20           hvblno_spec1
    3566 00020c20     09e0          movi    [HEDX1,0],a0            ;x val
         00020c30 000a0000  
    3567 00020c50     09e1          movi    [HEDY1,0],a1            ;y val
         00020c60 00630000  
    3568 00020c80     09c3          movi    120,a3                  ;z pos
         00020c90     0078  
    3569 00020ca0     09e4          movi    DMAWNZ,a4               ;DMA flags
         00020cb0 00008002  
    3570 00020cd0     56a5          clr     a5                      ;object ID
    3571 00020ce0     56c6          clr     a6                      ;x vel
    3572 00020cf0     56e7          clr     a7                      ;y vel
    3573 00020d00     0d5f          calla   BEGINOBJ2
         00020d10 00000000! 
    3574 00020d30     0d3f          callr   hvblclippit
TMS340 COFF Macro Assembler Version 6.10     Tue Dec 19 01:45:12 2023
 Copyright (c) 1985-1991  Texas Instruments Incorporated 

attract mode                                                         PAGE   82

         00020d40     0071  
    3575                    
    3576 00020d50     b742          move    *a10(20h),a2,L          ;image addr
         00020d60     0020  
    3577 00020d70     05a0          move    @special_heads+10h,a0
         00020d80 00000010! 
    3578 00020da0     ce05          jrn     hvblno_spec2
    3579 00020db0     24a0          sll     5,a0                    ;x 32 bits
    3580 00020dc0     0b20          addi    our_heads,a0
         00020dd0 00000000! 
    3581 00020df0     8602          move    *a0,a2,L
    3582 00020e00           hvblno_spec2
    3583 00020e00     09e0          movi    [HEDX1,0],a0            ;x val
         00020e10 000a0000  
    3584 00020e30     09e1          movi    [HEDY2,0],a1            ;y val
         00020e40 00ce0000  
    3585 00020e60     09c3          movi    120,a3                  ;z pos
         00020e70     0078  
    3586 00020e80     09e4          movi    DMAWNZ,a4               ;DMA flags
         00020e90 00008002  
    3587 00020eb0     56a5          clr     a5                      ;object ID
    3588 00020ec0     56c6          clr     a6                      ;x vel
    3589 00020ed0     56e7          clr     a7                      ;y vel
    3590 00020ee0     0d5f          calla   BEGINOBJ2
         00020ef0 00000000! 
    3591 00020f10     0d3f          callr   hvblclippit
         00020f20     0053  
    3592                    
    3593                    
    3594                    
    3595                    
    3596 00020f30     09ea          movi    player_heads,a10
         00020f40 00000000! 
    3597 00020f60     05a2          move    @team2,a2
         00020f70 00000000! 
    3598 00020f90     0b42  hvbllp1 cmpi    0,a2
         00020fa0     ffff  
    3599 00020fb0     ca04          jrz     hvblout1
    3600 00020fc0     0b0a          addi    20*64,a10
         00020fd0     0500  
    3601 00020fe0     1422          dec     a2
    3602 00020ff0     c0f9          jruc    hvbllp1
    3603 00021000           hvblout1
    3604 00021000     05a0          move    @team2,a0
         00021010 00000000! 
    3605 00021030     2480          sll     4,a0
    3606 00021040     0b20          addi    tm2set,a0
         00021050 00000000! 
    3607 00021070     840e          move    *a0,a14
    3608 00021080     24ce          sll     6,a14
    3609 00021090     41ca          add     a14,a10
    3610                    
    3611                    
    3612                    
    3613 000210a0     8742          move    *a10,a2,L               ;image addr
TMS340 COFF Macro Assembler Version 6.10     Tue Dec 19 01:45:12 2023
 Copyright (c) 1985-1991  Texas Instruments Incorporated 

attract mode                                                         PAGE   83

    3614 000210b0     05a0          move    @special_heads+20h,a0
         000210c0 00000020! 
    3615 000210e0     ce05          jrn     hvblno_spec3
    3616 000210f0     24a0          sll     5,a0                    ;x 32 bits
    3617 00021100     0b20          addi    our_heads,a0
         00021110 00000000! 
    3618 00021130     8602          move    *a0,a2,L
    3619 00021140           hvblno_spec3
    3620                    
    3621 00021140     09e0          movi    [HEDX2,0],a0            ;x val
         00021150 00ce0000  
    3622 00021170     09e1          movi    [HEDY1,0],a1            ;y val
         00021180 00630000  
    3623 000211a0     09c3          movi    120,a3                  ;z pos
         000211b0     0078  
    3624 000211c0     09e4          movi    DMAWNZ,a4               ;DMA flags
         000211d0 00008002  
    3625 000211f0     56a5          clr     a5                      ;object ID
    3626 00021200     56c6          clr     a6                      ;x vel
    3627 00021210     56e7          clr     a7                      ;y vel
    3628 00021220     0d5f          calla   BEGINOBJ2
         00021230 00000000! 
    3629 00021250     0d3f          callr   hvblclippit
         00021260     001f  
    3630                    
    3631 00021270     b742          move    *a10(20h),a2,L          ;image addr
         00021280     0020  
    3632 00021290     05a0          move    @special_heads+30h,a0
         000212a0 00000030! 
    3633 000212c0     ce05          jrn     hvblno_spec4
    3634 000212d0     24a0          sll     5,a0                    ;x 32 bits
    3635 000212e0     0b20          addi    our_heads,a0
         000212f0 00000000! 
    3636 00021310     8602          move    *a0,a2,L
    3637 00021320           hvblno_spec4
    3638                    
    3639 00021320     09e0          movi    [HEDX2,0],a0            ;x val
         00021330 00ce0000  
    3640 00021350     09e1          movi    [HEDY2,0],a1            ;y val
         00021360 00ce0000  
    3641 00021380     09c3          movi    120,a3                  ;z pos
         00021390     0078  
    3642 000213a0     09e4          movi    DMAWNZ,a4               ;DMA flags
         000213b0 00008002  
    3643 000213d0     56a5          clr     a5                      ;object ID
    3644 000213e0     56c6          clr     a6                      ;x vel
    3645 000213f0     56e7          clr     a7                      ;y vel
    3646 00021400     0d5f          calla   BEGINOBJ2
         00021410 00000000! 
    3647 00021430     0d3f          callr   hvblclippit
         00021440     0001  
    3648 00021450           hvblcnt4a
    3649                    
    3650 00021450     0960          rets
    3651                    
TMS340 COFF Macro Assembler Version 6.10     Tue Dec 19 01:45:12 2023
 Copyright (c) 1985-1991  Texas Instruments Incorporated 

attract mode                                                         PAGE   84

    3652 00021460           hvblclippit
    3653 00021460     b500          move    *a8(OSIZEX),a0
         00021470     0130  
    3654 00021480     0be0          subi    HEAD_WIDTH,a0
         00021490     ffbe  
    3655 000214a0     c802          jrb     hvblno_clip
    3656 000214b0     b008          move    a0,*a8(OFSET)
         000214c0     0100  
    3657 000214d0           hvblno_clip
    3658 000214d0     0960          rets
    3659                    
    3660                    
    3661                            .asg    45,X1
    3662                            .asg    240,X2
    3663                            .asg    101,Y1
    3664                            .asg    208,Y2
    3665                            .asg    12,YOFF1
    3666                    
    3667 000214e0            SUBRP  create_initials
    3668                    
    3669 000214e0     09e2          movi    qeorinitials_setup,a2
         000214f0 00021e90' 
    3670 00021510     0d5f          calla   setup_message
         00021520 00000000! 
    3671                    
    3672 00021540     09c0          movi    Y1+YOFF1,a0
         00021550     0071  
    3673 00021560     05a1          move    @TWOPLAYERS,a1                  ;0 = NO, 1 = YES 2 players
         00021570 00000000! 
    3674 00021590     ca02          jrz     qeornot_2a
    3675 000215a0     09c0          movi    Y2+YOFF1,a0
         000215b0     00dc  
    3676 000215c0           qeornot_2a
    3677 000215c0     0580          move    a0,@mess_cursy
         000215d0 00000000! 
    3678                    
    3679 000215f0     09c0          movi    X1,a0
         00021600     002d  
    3680 00021610     0580          move    a0,@mess_cursx
         00021620 00000000! 
    3681 00021640     05a0          move    @PSTATUS,a0
         00021650 00000000! 
    3682 00021670     1fe0          btst    0,a0
    3683 00021680     cb07          jrnz    qeorok1
    3684 00021690     09e4          movi    qeorstr_cpu,a4
         000216a0 00021f30' 
    3685 000216c0     0d5f          calla   print_string_C2
         000216d0 00000000! 
    3686 000216f0     c00c          jruc    qeorskip1
    3687 00021700           qeorok1
    3688 00021700     09e3          movi    message_buffer,a3
         00021710 00000000! 
    3689 00021730     09e4          movi    player1_data+PR_INIT1,a4
         00021740 00000040! 
    3690 00021760     0d5f          calla   get_initials_string
TMS340 COFF Macro Assembler Version 6.10     Tue Dec 19 01:45:12 2023
 Copyright (c) 1985-1991  Texas Instruments Incorporated 

attract mode                                                         PAGE   85

         00021770 00000000! 
    3691 00021790     0d5f          calla   print_string_C
         000217a0 00000000! 
    3692 000217c0           qeorskip1
    3693                    
    3694                    
    3695 000217c0     09c0          movi    Y2+YOFF1,a0
         000217d0     00dc  
    3696 000217e0     05a1          move    @TWOPLAYERS,a1                  ;0 = NO, 1 = YES 2 players
         000217f0 00000000! 
    3697 00021810     ca02          jrz     qeornot_2b
    3698 00021820     09c0          movi    Y1+YOFF1,a0
         00021830     0071  
    3699 00021840           qeornot_2b
    3700 00021840     0580          move    a0,@mess_cursy
         00021850 00000000! 
    3701                    
    3702 00021870     09c0          movi    X1,a0
         00021880     002d  
    3703 00021890     0580          move    a0,@mess_cursx
         000218a0 00000000! 
    3704 000218c0     05a0          move    @PSTATUS,a0
         000218d0 00000000! 
    3705 000218f0     1fc0          btst    1,a0
    3706 00021900     cb07          jrnz    qeorok2
    3707 00021910     09e4          movi    qeorstr_cpu,a4
         00021920 00021f30' 
    3708 00021940     0d5f          calla   print_string_C2
         00021950 00000000! 
    3709 00021970     c00c          jruc    qeorskip2
    3710 00021980           qeorok2
    3711 00021980     09e3          movi    message_buffer,a3
         00021990 00000000! 
    3712 000219b0     09e4          movi    player2_data+PR_INIT1,a4
         000219c0 00000040! 
    3713 000219e0     0d5f          calla   get_initials_string
         000219f0 00000000! 
    3714 00021a10     0d5f          calla   print_string_C
         00021a20 00000000! 
    3715 00021a40           qeorskip2
    3716                    
    3717                    
    3718 00021a40     09c0          movi    Y1+YOFF1,a0
         00021a50     0071  
    3719 00021a60     0580          move    a0,@mess_cursy
         00021a70 00000000! 
    3720 00021a90     09c0          movi    X2,a0
         00021aa0     00f0  
    3721 00021ab0     0580          move    a0,@mess_cursx
         00021ac0 00000000! 
    3722 00021ae0     05a0          move    @PSTATUS,a0
         00021af0 00000000! 
    3723 00021b10     1fa0          btst    2,a0
    3724 00021b20     cb07          jrnz    qeorok3
    3725 00021b30     09e4          movi    qeorstr_cpu,a4
TMS340 COFF Macro Assembler Version 6.10     Tue Dec 19 01:45:12 2023
 Copyright (c) 1985-1991  Texas Instruments Incorporated 

attract mode                                                         PAGE   86

         00021b40 00021f30' 
    3726 00021b60     0d5f          calla   print_string_C2
         00021b70 00000000! 
    3727 00021b90     c00c          jruc    qeorskip3
    3728 00021ba0           qeorok3
    3729 00021ba0     09e3          movi    message_buffer,a3
         00021bb0 00000000! 
    3730 00021bd0     09e4          movi    player3_data+PR_INIT1,a4
         00021be0 00000040! 
    3731 00021c00     0d5f          calla   get_initials_string
         00021c10 00000000! 
    3732 00021c30     0d5f          calla   print_string_C
         00021c40 00000000! 
    3733 00021c60           qeorskip3
    3734                    
    3735                    
    3736 00021c60     09c0          movi    Y2+YOFF1,a0
         00021c70     00dc  
    3737 00021c80     0580          move    a0,@mess_cursy
         00021c90 00000000! 
    3738 00021cb0     09c0          movi    X2,a0
         00021cc0     00f0  
    3739 00021cd0     0580          move    a0,@mess_cursx
         00021ce0 00000000! 
    3740 00021d00     05a0          move    @PSTATUS,a0
         00021d10 00000000! 
    3741 00021d30     1f80          btst    3,a0
    3742 00021d40     cb07          jrnz    qeorok4
    3743 00021d50     09e4          movi    qeorstr_cpu,a4
         00021d60 00021f30' 
    3744 00021d80     0d5f          calla   print_string_C2
         00021d90 00000000! 
    3745 00021db0     c00c          jruc    qeorskip4
    3746 00021dc0           qeorok4
    3747 00021dc0     09e3          movi    message_buffer,a3
         00021dd0 00000000! 
    3748 00021df0     09e4          movi    player4_data+PR_INIT1,a4
         00021e00 00000040! 
    3749 00021e20     0d5f          calla   get_initials_string
         00021e30 00000000! 
    3750 00021e50     0d5f          calla   print_string_C
         00021e60 00000000! 
    3751 00021e80           qeorskip4
    3752 00021e80     0960          rets
    3753                    
    3754                    
    3755 00021e90           qeorinitials_setup
    3756 00021e90                   RJR_STR osgemd_ascii,8,1,200,4,GOLD,0
    3757 00021f30           qeorstr_cpu
    3758 00021f30       43          .string "CPU",0
    3759 00021f50                   .even
    3760                    
    3761                            .ref    tm1set,tm2set
    3762                    
    3763                    
TMS340 COFF Macro Assembler Version 6.10     Tue Dec 19 01:45:12 2023
 Copyright (c) 1985-1991  Texas Instruments Incorporated 

attract mode                                                         PAGE   87

    3764 00021f50            SUBRP  create_names
    3765                    
    3766                    
    3767 00021f50     09ea          movi    player_names,a10
         00021f60 00000000! 
    3768 00021f80     05a2          move    @team1,a2
         00021f90 00000000! 
    3769 00021fb0     0b42  wijqlp  cmpi    0,a2
         00021fc0     ffff  
    3770 00021fd0     ca04          jrz     wijqout
    3771 00021fe0     0b0a          addi    20*64,a10
         00021ff0     0500  
    3772 00022000     1422          dec     a2
    3773 00022010     c0f9          jruc    wijqlp  
    3774 00022020           wijqout
    3775 00022020     05a0          move    @team1,a0
         00022030 00000000! 
    3776 00022050     2480          sll     4,a0
    3777 00022060     0b20          addi    tm1set,a0
         00022070 00000000! 
    3778 00022090     840e          move    *a0,a14
    3779 000220a0     24ce          sll     6,a14
    3780 000220b0     41ca          add     a14,a10
    3781                    
    3782 000220c0     8742          move    *a10,a2,L                       ;image addr
    3783 000220d0     05a0          move    @special_heads,a0
         000220e0 00000000! 
    3784 00022100     ce05          jrn     wijqnot_spec1
    3785 00022110     24a0          sll     5,a0                            ;x 32 bits
    3786 00022120     0b20          addi    our_names,a0
         00022130 00000000! 
    3787 00022150     8602          move    *a0,a2,L
    3788 00022160           wijqnot_spec1
    3789                    
    3790 00022160     09e0          movi    [X1,0],a0                       ;x val
         00022170 002d0000  
    3791 00022190     09e1          movi    [Y1,0],a1                       ;y val
         000221a0 00650000  
    3792 000221c0     09c3          movi    120,a3                          ;z pos
         000221d0     0078  
    3793 000221e0     09e4          movi    DMAWNZ,a4                       ;DMA flags
         000221f0 00008002  
    3794 00022210     56a5          clr     a5                              ;object ID
    3795 00022220     56c6          clr     a6                              ;x vel
    3796 00022230     56e7          clr     a7                              ;y vel
    3797 00022240     0d5f          calla   BEGINOBJ2
         00022250 00000000! 
    3798                    
    3799 00022270     b742          move    *a10(20h),a2,L                  ;image addr
         00022280     0020  
    3800 00022290     05a0          move    @special_heads+10h,a0
         000222a0 00000010! 
    3801 000222c0     ce05          jrn     wijqnot_spec2
    3802 000222d0     24a0          sll     5,a0                            ;x 32 bits
    3803 000222e0     0b20          addi    our_names,a0
TMS340 COFF Macro Assembler Version 6.10     Tue Dec 19 01:45:12 2023
 Copyright (c) 1985-1991  Texas Instruments Incorporated 

attract mode                                                         PAGE   88

         000222f0 00000000! 
    3804 00022310     8602          move    *a0,a2,L
    3805 00022320           wijqnot_spec2
    3806 00022320     09e0          movi    [X1,0],a0                       ;x val
         00022330 002d0000  
    3807 00022350     09e1          movi    [Y2,0],a1                       ;y val
         00022360 00d00000  
    3808 00022380     09c3          movi    120,a3                          ;z pos
         00022390     0078  
    3809 000223a0     09e4          movi    DMAWNZ,a4                       ;DMA flags
         000223b0 00008002  
    3810 000223d0     56a5          clr     a5                              ;object ID
    3811 000223e0     56c6          clr     a6                              ;x vel
    3812 000223f0     56e7          clr     a7                              ;y vel
    3813 00022400     0d5f          calla   BEGINOBJ2
         00022410 00000000! 
    3814                    
    3815                    
    3816                    
    3817                    
    3818                    
    3819 00022430     09ea          movi    player_names,a10
         00022440 00000000! 
    3820 00022460     05a2          move    @team2,a2
         00022470 00000000! 
    3821 00022490     0b42  wijqlp1 cmpi    0,a2
         000224a0     ffff  
    3822 000224b0     ca04          jrz     wijqout1
    3823 000224c0     0b0a          addi    20*64,a10
         000224d0     0500  
    3824 000224e0     1422          dec     a2
    3825 000224f0     c0f9          jruc    wijqlp1
    3826 00022500           wijqout1
    3827 00022500     05a0          move    @team2,a0
         00022510 00000000! 
    3828 00022530     2480          sll     4,a0
    3829 00022540     0b20          addi    tm2set,a0
         00022550 00000000! 
    3830 00022570     840e          move    *a0,a14
    3831 00022580     24ce          sll     6,a14
    3832 00022590     41ca          add     a14,a10
    3833                    
    3834                    
    3835                    
    3836 000225a0     8742          move    *a10,a2,L                       ;image addr
    3837 000225b0     05a0          move    @special_heads+20h,a0
         000225c0 00000020! 
    3838 000225e0     ce05          jrn     wijqnot_spec3
    3839 000225f0     24a0          sll     5,a0                            ;x 32 bits
    3840 00022600     0b20          addi    our_names,a0
         00022610 00000000! 
    3841 00022630     8602          move    *a0,a2,L
    3842 00022640           wijqnot_spec3
    3843                    
    3844 00022640     09e0          movi    [X2,0],a0                       ;x val
TMS340 COFF Macro Assembler Version 6.10     Tue Dec 19 01:45:12 2023
 Copyright (c) 1985-1991  Texas Instruments Incorporated 

attract mode                                                         PAGE   89

         00022650 00f00000  
    3845 00022670     09e1          movi    [Y1,0],a1                       ;y val
         00022680 00650000  
    3846 000226a0     09c3          movi    120,a3                          ;z pos
         000226b0     0078  
    3847 000226c0     09e4          movi    DMAWNZ,a4                       ;DMA flags
         000226d0 00008002  
    3848 000226f0     56a5          clr     a5                              ;object ID
    3849 00022700     56c6          clr     a6                              ;x vel
    3850 00022710     56e7          clr     a7                              ;y vel
    3851 00022720     0d5f          calla   BEGINOBJ2
         00022730 00000000! 
    3852                    
    3853 00022750     b742          move    *a10(20h),a2,L                  ;image addr
         00022760     0020  
    3854 00022770     05a0          move    @special_heads+30h,a0
         00022780 00000030! 
    3855 000227a0     ce05          jrn     wijqnot_spec4
    3856 000227b0     24a0          sll     5,a0                            ;x 32 bits
    3857 000227c0     0b20          addi    our_names,a0
         000227d0 00000000! 
    3858 000227f0     8602          move    *a0,a2,L
    3859 00022800           wijqnot_spec4
    3860 00022800     09e0          movi    [X2,0],a0                       ;x val
         00022810 00f00000  
    3861 00022830     09e1          movi    [Y2,0],a1                       ;y val
         00022840 00d00000  
    3862 00022860     09c3          movi    120,a3                          ;z pos
         00022870     0078  
    3863 00022880     09e4          movi    DMAWNZ,a4                       ;DMA flags
         00022890 00008002  
    3864 000228b0     56a5          clr     a5                              ;object ID
    3865 000228c0     56c6          clr     a6                              ;x vel
    3866 000228d0     56e7          clr     a7                              ;y vel
    3867 000228e0     0d5f          calla   BEGINOBJ2
         000228f0 00000000! 
    3868                    
    3869 00022910     0960          rets
    3870                    
    3871                    
    3872                    
    3873 00022920            SUBRP  stats_shadow
    3874                    
    3875              0100  zmieSHAD1       equ     PDATA
    3876              0120  zmieSHAD2       equ     zmieSHAD1+20h
    3877              0140  zmieSHAD3       equ     zmieSHAD2+20h
    3878              0160  zmieSHAD4       equ     zmieSHAD3+20h
    3879                    
    3880                            .asg    46-3,SHADXOFF
    3881                            .asg    6+5,SHADYOFF
    3882                    
    3883 00022920     09e0          movi    [STARTX1-SHADXOFF,0],a0 ;x val
         00022930 004f0000  
    3884 00022950     09e1          movi    [STARTY1-SHADYOFF,0],a1 ;y val
         00022960 00220000  
TMS340 COFF Macro Assembler Version 6.10     Tue Dec 19 01:45:12 2023
 Copyright (c) 1985-1991  Texas Instruments Incorporated 

attract mode                                                         PAGE   90

    3885 00022980     09e2          movi    stshad1,a2              ;* image
         00022990 00000000! 
    3886 000229b0     09c3          movi    300,a3                  ;z pos
         000229c0     012c  
    3887 000229d0     09e4          movi    DMAWNZ,a4               ;DMA flags
         000229e0 00008002  
    3888 00022a00     56a5          clr     a5                      ;object ID
    3889 00022a10     56c6          clr     a6                      ;x vel
    3890 00022a20     56e7          clr     a7                      ;y vel
    3891 00022a30     0d5f          calla   BEGINOBJ
         00022a40 00000000! 
    3892 00022a60     b30d          move    a8,*a13(zmieSHAD1),L
         00022a70     0100  
    3893                    
    3894 00022a80     09e0          movi    [STARTX2-SHADXOFF,0],a0 ;x val
         00022a90 01130000  
    3895 00022ab0     09e1          movi    [STARTY1-SHADYOFF,0],a1 ;y val
         00022ac0 00220000  
    3896 00022ae0     09e2          movi    stshad1,a2              ;* image
         00022af0 00000000! 
    3897 00022b10     09c3          movi    300,a3                  ;z pos
         00022b20     012c  
    3898 00022b30     09e4          movi    DMAWNZ,a4               ;DMA flags
         00022b40 00008002  
    3899 00022b60     56a5          clr     a5                      ;object ID
    3900 00022b70     56c6          clr     a6                      ;x vel
    3901 00022b80     56e7          clr     a7                      ;y vel
    3902 00022b90     0d5f          calla   BEGINOBJ
         00022ba0 00000000! 
    3903 00022bc0     b30d          move    a8,*a13(zmieSHAD2),L
         00022bd0     0120  
    3904                    
    3905 00022be0     09e0          movi    [STARTX1-SHADXOFF,0],a0 ;x val
         00022bf0 004f0000  
    3906 00022c10     09e1          movi    [STARTY2-SHADYOFF,0],a1 ;y val
         00022c20 008d0000  
    3907 00022c40     09e2          movi    stshad1,a2              ;* image
         00022c50 00000000! 
    3908 00022c70     09c3          movi    300,a3                  ;z pos
         00022c80     012c  
    3909 00022c90     09e4          movi    DMAWNZ,a4               ;DMA flags
         00022ca0 00008002  
    3910 00022cc0     56a5          clr     a5                      ;object ID
    3911 00022cd0     56c6          clr     a6                      ;x vel
    3912 00022ce0     56e7          clr     a7                      ;y vel
    3913 00022cf0     0d5f          calla   BEGINOBJ
         00022d00 00000000! 
    3914 00022d20     b30d          move    a8,*a13(zmieSHAD3),L
         00022d30     0140  
    3915                    
    3916 00022d40     09e0          movi    [STARTX2-SHADXOFF,0],a0 ;x val
         00022d50 01130000  
    3917 00022d70     09e1          movi    [STARTY2-SHADYOFF,0],a1 ;y val
         00022d80 008d0000  
    3918 00022da0     09e2          movi    stshad1,a2              ;* image
TMS340 COFF Macro Assembler Version 6.10     Tue Dec 19 01:45:12 2023
 Copyright (c) 1985-1991  Texas Instruments Incorporated 

attract mode                                                         PAGE   91

         00022db0 00000000! 
    3919 00022dd0     09c3          movi    300,a3                  ;z pos
         00022de0     012c  
    3920 00022df0     09e4          movi    DMAWNZ,a4               ;DMA flags
         00022e00 00008002  
    3921 00022e20     56a5          clr     a5                      ;object ID
    3922 00022e30     56c6          clr     a6                      ;x vel
    3923 00022e40     56e7          clr     a7                      ;y vel
    3924 00022e50     0d5f          calla   BEGINOBJ
         00022e60 00000000! 
    3925 00022e80     b30d          move    a8,*a13(zmieSHAD4),L
         00022e90     0160  
    3926                    
    3927 00022ea0     574a          clr     a10
    3928 00022eb0           zmiebig_mac
    3929 00022eb0                   SLEEPK  1
    3930 00022ef0     0bca          xori    1,a10
         00022f00 00000001  
    3931                    
    3932 00022f20     4d40          move    a10,a0
    3933 00022f30     24a0          sll     5,a0                    ;x 32 bits
    3934 00022f40     0b20          addi    zmieshadows,a0
         00022f50 00023100' 
    3935 00022f70     860b          move    *a0,a11,L               ;* image
    3936                    
    3937 00022f80     b7a8          move    *a13(zmieSHAD1),a8,L
         00022f90     0100  
    3938 00022fa0     0d3f          callr   zmiechange_shad
         00022fb0     000d  
    3939 00022fc0     b7a8          move    *a13(zmieSHAD2),a8,L
         00022fd0     0120  
    3940 00022fe0     0d3f          callr   zmiechange_shad
         00022ff0     0009  
    3941 00023000     b7a8          move    *a13(zmieSHAD3),a8,L
         00023010     0140  
    3942 00023020     0d3f          callr   zmiechange_shad
         00023030     0005  
    3943 00023040     b7a8          move    *a13(zmieSHAD4),a8,L
         00023050     0160  
    3944 00023060     0d3f          callr   zmiechange_shad
         00023070     0001  
    3945                    
    3946 00023080     c0e2          jruc    zmiebig_mac
    3947                    
    3948 00023090           zmiechange_shad
    3949 00023090     4d60          move    a11,a0
    3950 000230a0     b501          move    *a8(OCTRL),a1           ;DMA flags
         000230b0     00f0  
    3951 000230c0     0d5f          calla   obj_aniq                ;change object image
         000230d0 00000000! 
    3952 000230f0     0960          rets
    3953                    
    3954                    
    3955 00023100           zmieshadows
    3956 00023100 00000000!         .long   stshad1,stshad2
TMS340 COFF Macro Assembler Version 6.10     Tue Dec 19 01:45:12 2023
 Copyright (c) 1985-1991  Texas Instruments Incorporated 

attract mode                                                         PAGE   92

    3957                    
    3958                    
    3959                            .asg    18,COLOFF1
    3960                            .asg    67,COLOFF2
    3961                    
    3962 00023140            SUBRP  print_pstats
    3963                    
    3964 00023140     09e2          movi    ekzistats_setup,a2
         00023150 00025760' 
    3965 00023170     0d5f          calla   setup_message
         00023180 00000000! 
    3966                    
    3967                    
    3968                    
    3969 000231a0     b7a0          move    *a13(HTS_PALETTE1),a0,L
         000231b0     0140  
    3970 000231c0     0780          move    a0,@message_palette,L
         000231d0 00000000! 
    3971                    
    3972 000231f0     b5a0          move    *a13(HTS_STARTY),a0
         00023200     0110  
    3973 00023210     0580          move    a0,@mess_cursy
         00023220 00000000! 
    3974 00023240     b5a0          move    *a13(HTS_STARTX),a0
         00023250     0100  
    3975 00023260     0580          move    a0,@mess_cursx
         00023270 00000000! 
    3976 00023290     09e4          movi    ekzistr_shots,a4
         000232a0 00025810' 
    3977 000232c0     0d5f          calla   print_string_R2
         000232d0 00000000! 
    3978                    
    3979 000232f0     b5a0          move    *a13(HTS_STARTX),a0
         00023300     0100  
    3980 00023310     0b00          addi    COLOFF1,a0
         00023320     0012  
    3981 00023330     0580          move    a0,@mess_cursx
         00023340 00000000! 
    3982 00023360     b7aa          move    *a13(HTS_STATSADDR),a10,L
         00023370     0120  
    3983 00023380     b540          move    *a10(PS_2PTS_MADE*10h),a0
         00023390     0010  
    3984 000233a0     b542          move    *a10(PS_3PTS_MADE*10h),a2
         000233b0     0030  
    3985 000233c0     4040          add     a2,a0
    3986 000233d0                   PUSH    a0
    3987 000233e0     09c1          movi    99,a1                   ;max value
         000233f0     0063  
    3988 00023400     0d5f          calla   dec_to_asc
         00023410 00000000! 
    3989 00023430     0d5f          calla   copy_string
         00023440 00000000! 
    3990 00023460     0d5f          calla   print_string_R
         00023470 00000000! 
    3991                    
TMS340 COFF Macro Assembler Version 6.10     Tue Dec 19 01:45:12 2023
 Copyright (c) 1985-1991  Texas Instruments Incorporated 

attract mode                                                         PAGE   93

    3992 00023490     b5a0          move    *a13(HTS_STARTX),a0
         000234a0     0100  
    3993 000234b0     0b00          addi    COLOFF1,a0
         000234c0     0012  
    3994 000234d0     0580          move    a0,@mess_cursx
         000234e0 00000000! 
    3995 00023500     09e4          movi    ekzistr_slash,a4
         00023510 000258b0' 
    3996 00023530     0d5f          calla   print_string2
         00023540 00000000! 
    3997                    
    3998 00023560     b5a0          move    *a13(HTS_STARTX),a0
         00023570     0100  
    3999 00023580     0b00          addi    COLOFF1+8,a0
         00023590     001a  
    4000 000235a0     0580          move    a0,@mess_cursx
         000235b0 00000000! 
    4001 000235d0     b7aa          move    *a13(HTS_STATSADDR),a10,L
         000235e0     0120  
    4002 000235f0     b540          move    *a10(PS_2PTS_TRY*10h),a0
         00023600     0000  
    4003 00023610     b543          move    *a10(PS_3PTS_TRY*10h),a3
         00023620     0020  
    4004 00023630     4060          add     a3,a0
    4005 00023640     09c1          movi    99,a1                   ;max value
         00023650     0063  
    4006 00023660     0d5f          calla   dec_to_asc
         00023670 00000000! 
    4007 00023690     0d5f          calla   copy_string
         000236a0 00000000! 
    4008 000236c0     0d5f          calla   print_string
         000236d0 00000000! 
    4009                    
    4010                    
    4011 000236f0     b5a0          move    *a13(HTS_STARTX),a0
         00023700     0100  
    4012 00023710     0b00          addi    COLOFF2,a0
         00023720     0043  
    4013                    
    4014 00023730     1460          subk    3,a0
    4015                            
    4016 00023740     0580          move    a0,@mess_cursx
         00023750 00000000! 
    4017 00023770                   PULL    a3                      ;total points scored
    4018 00023780     09c0          movi    100,a0
         00023790     0064  
    4019 000237a0     5e03          mpyu    a0,a3
    4020 000237b0     b7aa          move    *a13(HTS_STATSADDR),a10,L
         000237c0     0120  
    4021 000237d0     b540          move    *a10(PS_2PTS_TRY*10h),a0
         000237e0     0000  
    4022 000237f0     b541          move    *a10(PS_3PTS_TRY*10h),a1
         00023800     0020  
    4023 00023810     4020          add     a1,a0
    4024 00023820     ca02          jrz     ekzizippo1
TMS340 COFF Macro Assembler Version 6.10     Tue Dec 19 01:45:12 2023
 Copyright (c) 1985-1991  Texas Instruments Incorporated 

attract mode                                                         PAGE   94

    4025 00023830     5a03          divu    a0,a3
    4026 00023840     4c60          move    a3,a0
    4027 00023850           ekzizippo1
    4028 00023850     09c1          movi    100,a1                  ;max value
         00023860     0064  
    4029 00023870     0d5f          calla   dec_to_asc
         00023880 00000000! 
    4030 000238a0     0d5f          calla   copy_string
         000238b0 00000000! 
    4031 000238d0     09e4          movi    ekzistr_pct,a4
         000238e0 000258c0' 
    4032 00023900     0d5f          calla   concat_rom_string
         00023910 00000000! 
    4033 00023930     0d5f          calla   print_string_R
         00023940 00000000! 
    4034                    
    4035                    
    4036                    
    4037                    
    4038 00023960     b7a0          move    *a13(HTS_PALETTE2),a0,L
         00023970     0160  
    4039 00023980     0780          move    a0,@message_palette,L
         00023990 00000000! 
    4040                    
    4041 000239b0     b5a0          move    *a13(HTS_STARTY),a0
         000239c0     0110  
    4042 000239d0     0b00          addi    1*YSPACING1,a0
         000239e0     000b  
    4043 000239f0     0580          move    a0,@mess_cursy
         00023a00 00000000! 
    4044 00023a20     b5a0          move    *a13(HTS_STARTX),a0
         00023a30     0100  
    4045 00023a40     0580          move    a0,@mess_cursx
         00023a50 00000000! 
    4046 00023a70     09e4          movi    ekzistr_3pts,a4
         00023a80 00025820' 
    4047 00023aa0     0d5f          calla   print_string_R2
         00023ab0 00000000! 
    4048                    
    4049 00023ad0     b5a0          move    *a13(HTS_STARTX),a0
         00023ae0     0100  
    4050 00023af0     0b00          addi    COLOFF1,a0
         00023b00     0012  
    4051 00023b10     0580          move    a0,@mess_cursx
         00023b20 00000000! 
    4052 00023b40     b7aa          move    *a13(HTS_STATSADDR),a10,L
         00023b50     0120  
    4053 00023b60     b540          move    *a10(PS_3PTS_MADE*10h),a0
         00023b70     0030  
    4054 00023b80     09c1          movi    99,a1                   ;max value
         00023b90     0063  
    4055 00023ba0     0d5f          calla   dec_to_asc
         00023bb0 00000000! 
    4056 00023bd0     0d5f          calla   copy_string
         00023be0 00000000! 
TMS340 COFF Macro Assembler Version 6.10     Tue Dec 19 01:45:12 2023
 Copyright (c) 1985-1991  Texas Instruments Incorporated 

attract mode                                                         PAGE   95

    4057 00023c00     0d5f          calla   print_string_R
         00023c10 00000000! 
    4058                    
    4059 00023c30     b5a0          move    *a13(HTS_STARTX),a0
         00023c40     0100  
    4060 00023c50     0b00          addi    COLOFF1,a0
         00023c60     0012  
    4061 00023c70     0580          move    a0,@mess_cursx
         00023c80 00000000! 
    4062 00023ca0     09e4          movi    ekzistr_slash,a4
         00023cb0 000258b0' 
    4063 00023cd0     0d5f          calla   print_string2
         00023ce0 00000000! 
    4064                    
    4065                    
    4066 00023d00     b5a0          move    *a13(HTS_STARTX),a0
         00023d10     0100  
    4067 00023d20     0b00          addi    COLOFF1+8,a0
         00023d30     001a  
    4068 00023d40     0580          move    a0,@mess_cursx
         00023d50 00000000! 
    4069 00023d70     b7aa          move    *a13(HTS_STATSADDR),a10,L
         00023d80     0120  
    4070 00023d90     b540          move    *a10(PS_3PTS_TRY*10h),a0
         00023da0     0020  
    4071 00023db0     09c1          movi    99,a1                   ;max value
         00023dc0     0063  
    4072 00023dd0     0d5f          calla   dec_to_asc
         00023de0 00000000! 
    4073 00023e00     0d5f          calla   copy_string
         00023e10 00000000! 
    4074 00023e30     0d5f          calla   print_string
         00023e40 00000000! 
    4075                    
    4076                    
    4077 00023e60     b5a0          move    *a13(HTS_STARTX),a0
         00023e70     0100  
    4078 00023e80     0b00          addi    COLOFF2,a0
         00023e90     0043  
    4079                    
    4080 00023ea0     1460          subk    3,a0
    4081                            
    4082 00023eb0     0580          move    a0,@mess_cursx
         00023ec0 00000000! 
    4083                    
    4084 00023ee0     b7aa          move    *a13(HTS_STATSADDR),a10,L
         00023ef0     0120  
    4085 00023f00     b543          move    *a10(PS_3PTS_MADE*10h),a3
         00023f10     0030  
    4086 00023f20     09c0          movi    100,a0
         00023f30     0064  
    4087 00023f40     5e03          mpyu    a0,a3
    4088 00023f50     b540          move    *a10(PS_3PTS_TRY*10h),a0
         00023f60     0020  
    4089 00023f70     ca02          jrz     ekzizippo2
TMS340 COFF Macro Assembler Version 6.10     Tue Dec 19 01:45:12 2023
 Copyright (c) 1985-1991  Texas Instruments Incorporated 

attract mode                                                         PAGE   96

    4090 00023f80     5a03          divu    a0,a3
    4091 00023f90     4c60          move    a3,a0
    4092 00023fa0           ekzizippo2
    4093 00023fa0     09c1          movi    100,a1                  ;max value
         00023fb0     0064  
    4094 00023fc0     0d5f          calla   dec_to_asc
         00023fd0 00000000! 
    4095 00023ff0     0d5f          calla   copy_string
         00024000 00000000! 
    4096 00024020     09e4          movi    ekzistr_pct,a4
         00024030 000258c0' 
    4097 00024050     0d5f          calla   concat_rom_string
         00024060 00000000! 
    4098 00024080     0d5f          calla   print_string_R
         00024090 00000000! 
    4099                    
    4100                    
    4101                            .if 0
    4102                    
    4103                    
    4104                            move    *a13(HTS_PALETTE3),a0,L
    4105                            move    a0,@message_palette,L
    4106                    
    4107                            move    *a13(HTS_STARTY),a0
    4108                            addi    2*YSPACING1,a0
    4109                            move    a0,@mess_cursy
    4110                            move    *a13(HTS_STARTX),a0
    4111                            move    a0,@mess_cursx
    4112                            movi    ekzistr_free,a4
    4113                            calla   print_string_R2
    4114                    
    4115                            move    *a13(HTS_STARTX),a0
    4116                            addi    COLOFF1,a0
    4117                            move    a0,@mess_cursx
    4118                            move    *a13(HTS_STATSADDR),a10,L
    4119                            move    *a10(PS_FREE_MADE*10h),a0
    4120                            movi    99,a1                   ;max value
    4121                            calla   dec_to_asc
    4122                            calla   copy_string
    4123                            calla   print_string_R
    4124                    
    4125                            move    *a13(HTS_STARTX),a0
    4126                            addi    COLOFF1,a0
    4127                            move    a0,@mess_cursx
    4128                            movi    ekzistr_slash,a4
    4129                            calla   print_string2
    4130                    
    4131                    
    4132                            move    *a13(HTS_STARTX),a0
    4133                            addi    COLOFF1+8,a0
    4134                            move    a0,@mess_cursx
    4135                            move    *a13(HTS_STATSADDR),a10,L
    4136                            move    *a10(PS_FREE_TRY*10h),a0
    4137                            movi    99,a1                   ;max value
    4138                            calla   dec_to_asc
TMS340 COFF Macro Assembler Version 6.10     Tue Dec 19 01:45:12 2023
 Copyright (c) 1985-1991  Texas Instruments Incorporated 

attract mode                                                         PAGE   97

    4139                            calla   copy_string
    4140                            calla   print_string
    4141                    
    4142                    
    4143                            move    *a13(HTS_STARTX),a0
    4144                            addi    COLOFF2,a0
    4145                            move    a0,@mess_cursx
    4146                    
    4147                            move    *a13(HTS_STATSADDR),a10,L
    4148                            move    *a10(PS_FREE_MADE*10h),a3
    4149                            movi    100,a0
    4150                            mpyu    a0,a3
    4151                            move    *a10(PS_FREE_TRY*10h),a0
    4152                            jrz     ekzizippo3
    4153                            divu    a0,a3
    4154                            move    a3,a0
    4155                    ekzizippo3
    4156                            movi    100,a1                  ;max value
    4157                            calla   dec_to_asc
    4158                            calla   copy_string
    4159                            movi    ekzistr_pct,a4
    4160                            calla   concat_rom_string
    4161                            calla   print_string_R
    4162                            .endif
    4163                    
    4164                    
    4165                    
    4166                    
    4167 000240b0     b7a0          move    *a13(HTS_PALETTE4),a0,L
         000240c0     01a0  
    4168 000240d0     0780          move    a0,@message_palette,L
         000240e0 00000000! 
    4169                    
    4170 00024100     b5a0          move    *a13(HTS_STARTY),a0
         00024110     0110  
    4171 00024120     0b00          addi    2*YSPACING1,a0
         00024130     0016  
    4172 00024140     0580          move    a0,@mess_cursy
         00024150 00000000! 
    4173 00024170     b5a0          move    *a13(HTS_STARTX),a0
         00024180     0100  
    4174 00024190     0580          move    a0,@mess_cursx
         000241a0 00000000! 
    4175 000241c0     09e4          movi    ekzistr_points,a4
         000241d0 00025840' 
    4176 000241f0     0d5f          calla   print_string_R2
         00024200 00000000! 
    4177                    
    4178 00024220     b5a0          move    *a13(HTS_STARTX),a0
         00024230     0100  
    4179 00024240     0b00          addi    COLOFF1+8,a0
         00024250     001a  
    4180 00024260     0580          move    a0,@mess_cursx
         00024270 00000000! 
    4181                    
TMS340 COFF Macro Assembler Version 6.10     Tue Dec 19 01:45:12 2023
 Copyright (c) 1985-1991  Texas Instruments Incorporated 

attract mode                                                         PAGE   98

    4182 00024290     b7aa          move    *a13(HTS_STATSADDR),a10,L
         000242a0     0120  
    4183 000242b0     b546          move    *a10(PS_FREE_MADE*10h),a6
         000242c0     00b0  
    4184 000242d0     b540          move    *a10(PS_2PTS_MADE*10h),a0
         000242e0     0010  
    4185 000242f0     2420          sll     1,a0                    ;X 2
    4186 00024300     4006          add     a0,a6
    4187 00024310     b540          move    *a10(PS_3PTS_MADE*10h),a0
         00024320     0030  
    4188 00024330     4006          add     a0,a6
    4189 00024340     2420          sll     1,a0                    ;X 2
    4190 00024350     40c0          add     a6,a0
    4191 00024360     09c1          movi    999,a1                  ;max value
         00024370     03e7  
    4192 00024380     0d5f          calla   dec_to_asc
         00024390 00000000! 
    4193 000243b0     0d5f          calla   copy_string
         000243c0 00000000! 
    4194 000243e0     0d5f          calla   print_string_R
         000243f0 00000000! 
    4195                    
    4196                    
    4197                    
    4198                    
    4199 00024410     b7a0          move    *a13(HTS_PALETTE5),a0,L
         00024420     01c0  
    4200 00024430     0780          move    a0,@message_palette,L
         00024440 00000000! 
    4201                    
    4202 00024460     b5a0          move    *a13(HTS_STARTY),a0
         00024470     0110  
    4203 00024480     0b00          addi    3*YSPACING1,a0
         00024490     0021  
    4204 000244a0     0580          move    a0,@mess_cursy
         000244b0 00000000! 
    4205 000244d0     b5a0          move    *a13(HTS_STARTX),a0
         000244e0     0100  
    4206 000244f0     0580          move    a0,@mess_cursx
         00024500 00000000! 
    4207 00024520     09e4          movi    ekzistr_dunks,a4
         00024530 00025850' 
    4208 00024550     0d5f          calla   print_string_R2
         00024560 00000000! 
    4209                    
    4210 00024580     b5a0          move    *a13(HTS_STARTX),a0
         00024590     0100  
    4211 000245a0     0b00          addi    COLOFF1+8,a0
         000245b0     001a  
    4212 000245c0     0580          move    a0,@mess_cursx
         000245d0 00000000! 
    4213                    
    4214 000245f0     b7aa          move    *a13(HTS_STATSADDR),a10,L
         00024600     0120  
    4215 00024610     b540          move    *a10(PS_DUNKS_MADE*10h),a0
TMS340 COFF Macro Assembler Version 6.10     Tue Dec 19 01:45:12 2023
 Copyright (c) 1985-1991  Texas Instruments Incorporated 

attract mode                                                         PAGE   99

         00024620     0050  
    4216 00024630     09c1          movi    99,a1                   ;max value
         00024640     0063  
    4217 00024650     0d5f          calla   dec_to_asc
         00024660 00000000! 
    4218 00024680     0d5f          calla   copy_string
         00024690 00000000! 
    4219 000246b0     0d5f          calla   print_string_R
         000246c0 00000000! 
    4220                    
    4221                    
    4222                    
    4223                    
    4224 000246e0     b7a0          move    *a13(HTS_PALETTE6),a0,L
         000246f0     01e0  
    4225 00024700     0780          move    a0,@message_palette,L
         00024710 00000000! 
    4226                    
    4227 00024730     b5a0          move    *a13(HTS_STARTY),a0
         00024740     0110  
    4228 00024750     0b00          addi    4*YSPACING1,a0
         00024760     002c  
    4229 00024770     0580          move    a0,@mess_cursy
         00024780 00000000! 
    4230 000247a0     b5a0          move    *a13(HTS_STARTX),a0
         000247b0     0100  
    4231 000247c0     0580          move    a0,@mess_cursx
         000247d0 00000000! 
    4232 000247f0     09e4          movi    ekzistr_assists,a4
         00024800 00025860' 
    4233 00024820     0d5f          calla   print_string_R2
         00024830 00000000! 
    4234                    
    4235 00024850     b5a0          move    *a13(HTS_STARTX),a0
         00024860     0100  
    4236 00024870     0b00          addi    COLOFF1+8,a0
         00024880     001a  
    4237 00024890     0580          move    a0,@mess_cursx
         000248a0 00000000! 
    4238                    
    4239 000248c0     b7aa          move    *a13(HTS_STATSADDR),a10,L
         000248d0     0120  
    4240 000248e0     b540          move    *a10(PS_ASSISTS*10h),a0
         000248f0     00c0  
    4241 00024900     09c1          movi    99,a1                   ;max value
         00024910     0063  
    4242 00024920     0d5f          calla   dec_to_asc
         00024930 00000000! 
    4243 00024950     0d5f          calla   copy_string
         00024960 00000000! 
    4244 00024980     0d5f          calla   print_string_R
         00024990 00000000! 
    4245                    
    4246                    
    4247                    
TMS340 COFF Macro Assembler Version 6.10     Tue Dec 19 01:45:12 2023
 Copyright (c) 1985-1991  Texas Instruments Incorporated 

attract mode                                                         PAGE  100

    4248                    
    4249 000249b0     b7a0          move    *a13(HTS_PALETTE7),a0,L
         000249c0     0200  
    4250 000249d0     0780          move    a0,@message_palette,L
         000249e0 00000000! 
    4251                    
    4252 00024a00     b5a0          move    *a13(HTS_STARTY),a0
         00024a10     0110  
    4253 00024a20     0b00          addi    5*YSPACING1,a0
         00024a30     0037  
    4254 00024a40     0580          move    a0,@mess_cursy
         00024a50 00000000! 
    4255 00024a70     b5a0          move    *a13(HTS_STARTX),a0
         00024a80     0100  
    4256 00024a90     0580          move    a0,@mess_cursx
         00024aa0 00000000! 
    4257 00024ac0     09e4          movi    ekzistr_steals,a4
         00024ad0 00025870' 
    4258 00024af0     0d5f          calla   print_string_R2
         00024b00 00000000! 
    4259                    
    4260 00024b20     b5a0          move    *a13(HTS_STARTX),a0
         00024b30     0100  
    4261 00024b40     0b00          addi    COLOFF1+8,a0
         00024b50     001a  
    4262 00024b60     0580          move    a0,@mess_cursx
         00024b70 00000000! 
    4263                    
    4264 00024b90     b7aa          move    *a13(HTS_STATSADDR),a10,L
         00024ba0     0120  
    4265 00024bb0     b540          move    *a10(PS_STEALS*10h),a0
         00024bc0     0090  
    4266 00024bd0     09c1          movi    99,a1                   ;max value
         00024be0     0063  
    4267 00024bf0     0d5f          calla   dec_to_asc
         00024c00 00000000! 
    4268 00024c20     0d5f          calla   copy_string
         00024c30 00000000! 
    4269 00024c50     0d5f          calla   print_string_R
         00024c60 00000000! 
    4270                    
    4271                    
    4272                    
    4273                    
    4274 00024c80     b7a0          move    *a13(HTS_PALETTE8),a0,L
         00024c90     0220  
    4275 00024ca0     0780          move    a0,@message_palette,L
         00024cb0 00000000! 
    4276                    
    4277 00024cd0     b5a0          move    *a13(HTS_STARTY),a0
         00024ce0     0110  
    4278 00024cf0     0b00          addi    6*YSPACING1,a0
         00024d00     0042  
    4279 00024d10     0580          move    a0,@mess_cursy
         00024d20 00000000! 
TMS340 COFF Macro Assembler Version 6.10     Tue Dec 19 01:45:12 2023
 Copyright (c) 1985-1991  Texas Instruments Incorporated 

attract mode                                                         PAGE  101

    4280 00024d40     b5a0          move    *a13(HTS_STARTX),a0
         00024d50     0100  
    4281 00024d60     0580          move    a0,@mess_cursx
         00024d70 00000000! 
    4282 00024d90     09e4          movi    ekzistr_blocks,a4
         00024da0 00025880' 
    4283 00024dc0     0d5f          calla   print_string_R2
         00024dd0 00000000! 
    4284                    
    4285 00024df0     b5a0          move    *a13(HTS_STARTX),a0
         00024e00     0100  
    4286 00024e10     0b00          addi    COLOFF1+8,a0
         00024e20     001a  
    4287 00024e30     0580          move    a0,@mess_cursx
         00024e40 00000000! 
    4288                    
    4289 00024e60     b7aa          move    *a13(HTS_STATSADDR),a10,L
         00024e70     0120  
    4290 00024e80     b540          move    *a10(PS_BLOCKS*10h),a0
         00024e90     0060  
    4291 00024ea0     09c1          movi    99,a1                   ;max value
         00024eb0     0063  
    4292 00024ec0     0d5f          calla   dec_to_asc
         00024ed0 00000000! 
    4293 00024ef0     0d5f          calla   copy_string
         00024f00 00000000! 
    4294 00024f20     0d5f          calla   print_string_R
         00024f30 00000000! 
    4295                    
    4296                    
    4297                    
    4298 00024f50     b7a0          move    *a13(HTS_PALETTE9),a0,L
         00024f60     0240  
    4299 00024f70     0780          move    a0,@message_palette,L
         00024f80 00000000! 
    4300                    
    4301 00024fa0     b5a0          move    *a13(HTS_STARTY),a0
         00024fb0     0110  
    4302 00024fc0     0b00          addi    7*YSPACING1,a0
         00024fd0     004d  
    4303 00024fe0     0580          move    a0,@mess_cursy
         00024ff0 00000000! 
    4304 00025010     b5a0          move    *a13(HTS_STARTX),a0
         00025020     0100  
    4305 00025030     0580          move    a0,@mess_cursx
         00025040 00000000! 
    4306 00025060     09e4          movi    ekzistr_rebounds,a4
         00025070 00025890' 
    4307 00025090     0d5f          calla   print_string_R2
         000250a0 00000000! 
    4308                    
    4309                    
    4310 000250c0     b5a0          move    *a13(HTS_STARTX),a0
         000250d0     0100  
    4311 000250e0     0b00          addi    COLOFF1,a0
TMS340 COFF Macro Assembler Version 6.10     Tue Dec 19 01:45:12 2023
 Copyright (c) 1985-1991  Texas Instruments Incorporated 

attract mode                                                         PAGE  102

         000250f0     0012  
    4312 00025100     0580          move    a0,@mess_cursx
         00025110 00000000! 
    4313 00025130     b7aa          move    *a13(HTS_STATSADDR),a10,L
         00025140     0120  
    4314 00025150     b540          move    *a10(PS_OFF_REB*10h),a0
         00025160     0070  
    4315 00025170     09c1          movi    99,a1                   ;max value
         00025180     0063  
    4316 00025190     0d5f          calla   dec_to_asc
         000251a0 00000000! 
    4317 000251c0     0d5f          calla   copy_string
         000251d0 00000000! 
    4318 000251f0     0d5f          calla   print_string_R
         00025200 00000000! 
    4319                    
    4320 00025220     b5a0          move    *a13(HTS_STARTX),a0
         00025230     0100  
    4321 00025240     0b00          addi    COLOFF1,a0
         00025250     0012  
    4322 00025260     0580          move    a0,@mess_cursx
         00025270 00000000! 
    4323 00025290     09e4          movi    ekzistr_slash,a4
         000252a0 000258b0' 
    4324 000252c0     0d5f          calla   print_string2
         000252d0 00000000! 
    4325                    
    4326 000252f0     b5a0          move    *a13(HTS_STARTX),a0
         00025300     0100  
    4327 00025310     0b00          addi    COLOFF1+8,a0
         00025320     001a  
    4328 00025330     0580          move    a0,@mess_cursx
         00025340 00000000! 
    4329 00025360     b7aa          move    *a13(HTS_STATSADDR),a10,L
         00025370     0120  
    4330 00025380     b540          move    *a10(PS_DEF_REB*10h),a0
         00025390     0080  
    4331 000253a0     b541          move    *a10(PS_OFF_REB*10h),a1
         000253b0     0070  
    4332 000253c0     4020          add     a1,a0
    4333 000253d0     09c1          movi    99,a1                   ;max value
         000253e0     0063  
    4334 000253f0     0d5f          calla   dec_to_asc
         00025400 00000000! 
    4335 00025420     0d5f          calla   copy_string
         00025430 00000000! 
    4336 00025450     0d5f          calla   print_string
         00025460 00000000! 
    4337                    
    4338                    
    4339 00025480     b7a0          move    *a13(HTS_PALETTEa),a0,L
         00025490     0260  
    4340 000254a0     0780          move    a0,@message_palette,L
         000254b0 00000000! 
    4341                    
TMS340 COFF Macro Assembler Version 6.10     Tue Dec 19 01:45:12 2023
 Copyright (c) 1985-1991  Texas Instruments Incorporated 

attract mode                                                         PAGE  103

    4342 000254d0     b5a0          move    *a13(HTS_STARTY),a0
         000254e0     0110  
    4343 000254f0     0b00          addi    8*YSPACING1,a0
         00025500     0058  
    4344 00025510     0580          move    a0,@mess_cursy
         00025520 00000000! 
    4345 00025540     b5a0          move    *a13(HTS_STARTX),a0
         00025550     0100  
    4346 00025560     0580          move    a0,@mess_cursx
         00025570 00000000! 
    4347 00025590     09e4          movi    ekzistr_injury,a4
         000255a0 000258a0' 
    4348 000255c0     0d5f          calla   print_string_R2
         000255d0 00000000! 
    4349                    
    4350 000255f0     b5a0          move    *a13(HTS_STARTX),a0
         00025600     0100  
    4351 00025610     0b00          addi    COLOFF1+8,a0
         00025620     001a  
    4352 00025630     0580          move    a0,@mess_cursx
         00025640 00000000! 
    4353                    
    4354 00025660     b7aa          move    *a13(HTS_STATSADDR),a10,L
         00025670     0120  
    4355 00025680     b540          move    *a10(PS_INJURY*10h),a0
         00025690     00d0  
    4356 000256a0     09c1          movi    99,a1                   ;max value
         000256b0     0063  
    4357 000256c0     0d5f          calla   dec_to_asc
         000256d0 00000000! 
    4358 000256f0     0d5f          calla   copy_string
         00025700 00000000! 
    4359 00025720     0d5f          calla   print_string_R
         00025730 00000000! 
    4360                    
    4361                    
    4362 00025750     0960          rets
    4363                    
    4364                    
    4365 00025760           ekzistats_setup
    4366 00025760                   RJR_STR sgmd8_ascii,4,0,200,LN0,SGMD8YEL,0
    4367                    
    4368 00025800           ekzistr_plyrstats
    4369 00025800       8f          .string 8fh,0
    4370                    
    4371 00025810           ekzistr_shots
    4372 00025810       08          .string 08h,0
    4373 00025820           ekzistr_3pts
    4374 00025820       09          .string 09h,0
    4375 00025830           ekzistr_free
    4376 00025830       0a          .string 0ah,0
    4377 00025840           ekzistr_points
    4378 00025840       0b          .string 0bh,0
    4379 00025850           ekzistr_dunks
    4380 00025850       0c          .string 0ch,0
TMS340 COFF Macro Assembler Version 6.10     Tue Dec 19 01:45:12 2023
 Copyright (c) 1985-1991  Texas Instruments Incorporated 

attract mode                                                         PAGE  104

    4381 00025860           ekzistr_assists
    4382 00025860       0d          .string 0dh,0
    4383 00025870           ekzistr_steals
    4384 00025870       0e          .string 0eh,0
    4385 00025880           ekzistr_blocks
    4386 00025880       0f          .string 0fh,0
    4387 00025890           ekzistr_rebounds
    4388 00025890       10          .string 10h,0
    4389 000258a0           ekzistr_injury
    4390 000258a0       11          .string 11h,0
    4391 000258b0           ekzistr_slash
    4392 000258b0       2f          .string "/",0
    4393 000258c0           ekzistr_pct
    4394 000258c0       25          .string "%",0
    4395 000258d0           ekzistr_off
    4396 000258d0       20          .string " O / ",0
    4397 00025900           ekzistr_def
    4398 00025900       20          .string " D",0
    4399 00025920                   .even
    4400                    
    4401                    
    4402                            .asg    8,eympNOINITOFF
    4403                            .asg    21,eympOFF1
    4404                            .asg    12,eympSGMDYSPC
    4405                            .asg    33,eympWLOFF
    4406                            .asg    160,eympCOL1
    4407                            .asg    210,eympCOL2
    4408                            .asg    4,eympROFF1
    4409                    
    4410 00025920            SUBR   rank_screen
    4411                    
    4412                    
    4413 00025920     05a0          move    @PSTATUS,a0                     ;if nobody has entered their
         00025930 00000000! 
    4414 00025950     1fe0          btst    0,a0                            ;initials, then skip this
    4415 00025960     ca04          jrz     eympnop1
    4416 00025970     05a0          move    @player1_data+PR_INIT1,a0
         00025980 00000040! 
    4417 000259a0     cf1e          jrnn    eymphave_initials
    4418 000259b0           eympnop1
    4419 000259b0     05a0          move    @PSTATUS,a0
         000259c0 00000000! 
    4420 000259e0     1fc0          btst    1,a0
    4421 000259f0     ca04          jrz     eympnop2
    4422 00025a00     05a0          move    @player2_data+PR_INIT1,a0
         00025a10 00000040! 
    4423 00025a30     cf15          jrnn    eymphave_initials
    4424 00025a40           eympnop2
    4425 00025a40     05a0          move    @PSTATUS,a0
         00025a50 00000000! 
    4426 00025a70     1fa0          btst    2,a0
    4427 00025a80     ca04          jrz     eympnop3
    4428 00025a90     05a0          move    @player3_data+PR_INIT1,a0
         00025aa0 00000040! 
    4429 00025ac0     cf0c          jrnn    eymphave_initials
TMS340 COFF Macro Assembler Version 6.10     Tue Dec 19 01:45:12 2023
 Copyright (c) 1985-1991  Texas Instruments Incorporated 

attract mode                                                         PAGE  105

    4430 00025ad0           eympnop3
    4431 00025ad0     05a0          move    @PSTATUS,a0
         00025ae0 00000000! 
    4432 00025b00     1f80          btst    3,a0
    4433 00025b10     ca04          jrz     eympnop4
    4434 00025b20     05a0          move    @player4_data+PR_INIT1,a0
         00025b30 00000040! 
    4435 00025b50     cf03          jrnn    eymphave_initials
    4436 00025b60           eympnop4
    4437 00025b60                   RETP
    4438                    
    4439 00025b90           eymphave_initials
    4440                    
    4441 00025b90     0d5f          calla   display_blank
         00025ba0 00000000! 
    4442 00025bc0     0d5f          calla   WIPEOUT                 ;CLEAN SYSTEM OUT
         00025bd0 00000000! 
    4443                    
    4444 00025bf0     09c0          movi    4<<10+4<<5+7,a0
         00025c00     1087  
    4445 00025c10     0580          move    a0,@IRQSKYE             ;background color
         00025c20 00000000! 
    4446                    
    4447 00025c40     1820          movk    1,a0                    ;page flipping on
    4448 00025c50     0580          move    a0,@dpageflip
         00025c60 00000000! 
    4449                    
    4450 00025c80     1880          movk    INPLYRINFO,a0
    4451 00025c90     0580          move    a0,@GAMSTATE
         00025ca0 00000000! 
    4452                    
    4453 00025cc0     09e0          movi    SCRNEND,a0              ;[256,405]
         00025cd0 00fe01b0  
    4454 00025cf0     0780          move    a0,@SCRNLR,L
         00025d00 00000000! 
    4455                    
    4456 00025d20     5600          clr     a0
    4457 00025d30     0780          move    a0,@WORLDTLX,L
         00025d40 00000000! 
    4458 00025d60     0780          move    a0,@WORLDTLY,L
         00025d70 00000000! 
    4459                    
    4460 00025d90                   SLEEPK  2
    4461                    
    4462 00025dd0     09e0          movi    eymprank_mod,a0
         00025de0 00026350' 
    4463 00025e00     05a1          move    @TWOPLAYERS,a1          ;0 = NO, 1 = YES 2 players
         00025e10 00000000! 
    4464 00025e30     ca03          jrz     eympnot_2a
    4465 00025e40     09e0          movi    eymprank_kit_mod,a0
         00025e50 000263f0' 
    4466 00025e70           eympnot_2a
    4467 00025e70     0780          move    a0,@BAKMODS,L
         00025e80 00000000! 
    4468 00025ea0     0d5f          calla   BGND_UD1
TMS340 COFF Macro Assembler Version 6.10     Tue Dec 19 01:45:12 2023
 Copyright (c) 1985-1991  Texas Instruments Incorporated 

attract mode                                                         PAGE  106

         00025eb0 00000000! 
    4469                    
    4470                            .ref    create_bits2
    4471 00025ed0     0d5f          calla   create_bits2
         00025ee0 00000000! 
    4472                    
    4473 00025f00     09e8          MOVI    [3,9],a8                ;START AT COLOR 3, CYCLE 9 COLORS
         00025f10 00030009  
    4474 00025f30     09e9          MOVI    SGMD8PLV,a9             ;PAL NAME
         00025f40 00000000! 
    4475 00025f60     09ea          MOVI    COLTAB,a10              ;TABLE TO CYCLE WITH
         00025f70 0001e810' 
    4476 00025f90     186b          MOVK    3,a11                   ;RATE OF CYCLE IN TICKS
    4477 00025fa0                   CREATE  CYCPID,CYCLE_TABLE      ;START PROCESS TO DO CYCLE
    4478                    
    4479 00026020                   CREATE0 credits3
    4480                    
    4481                    
    4482                    
    4483 00026090     182a          movk    1,a10
    4484 000260a0     0d3f          callr   print_column
         000260b0     00dc  
    4485 000260c0     184a          movk    2,a10
    4486 000260d0     0d3f          callr   print_column
         000260e0     00d9  
    4487                    
    4488 000260f0     09e0          movi    eymprank_mod,a0
         00026100 00026350' 
    4489 00026120     05a1          move    @TWOPLAYERS,a1          ;0 = NO, 1 = YES 2 players
         00026130 00000000! 
    4490 00026150     cb06          jrnz    eympis_2
    4491                    
    4492 00026160     574a          clr     a10
    4493 00026170     0d3f          callr   print_column
         00026180     00cf  
    4494 00026190     186a          movk    3,a10
    4495 000261a0     0d3f          callr   print_column
         000261b0     00cc  
    4496 000261c0           eympis_2
    4497                    
    4498                    
    4499 000261c0                   SLEEPK  2
    4500 00026200     0d5f          calla   display_unblank
         00026210 00000000! 
    4501                    
    4502 00026230     09ca          movi    10*TSEC,a10
         00026240     0212  
    4503 00026250           eympwhopper_with_cheese
    4504 00026250                   SLEEPK  1
    4505 00026290     0d5f          calla   get_all_buttons_cur2
         000262a0 00000000! 
    4506 000262c0     cb01          jrnz    eympexit
    4507 000262d0     3d2a          dsj     a10,eympwhopper_with_cheese
    4508 000262e0           eympexit
    4509 000262e0                   SLEEPK  1
TMS340 COFF Macro Assembler Version 6.10     Tue Dec 19 01:45:12 2023
 Copyright (c) 1985-1991  Texas Instruments Incorporated 

attract mode                                                         PAGE  107

    4510                    
    4511 00026320                   RETP
    4512                    
    4513 00026350           eymprank_mod
    4514 00026350 00000000!         .long   selbackBMOD
    4515 00026370     0000          .word   0,2
    4516 00026390 00000000!         .long   namebox2BMOD
    4517 000263b0     0009          .word   9,207-14
    4518 000263d0 00000000          .long   0
    4519                    
    4520 000263f0           eymprank_kit_mod
    4521 000263f0 00000000!         .long   selbackkBMOD
    4522 00026410     0000          .word   0,2
    4523 00026430 00000000!         .long   nameboxkBMOD
    4524 00026450     0009          .word   9,207-14
    4525 00026470 00000000          .long   0
    4526                    
    4527                    
    4528                            .asg    22,RANKY
    4529                            .asg    38,RECY
    4530                            .asg    48+1,WLY
    4531                            .asg    58+2,PCTY
    4532                    
    4533                            .asg    77,STREAKY1
    4534                            .asg    87,STREAKY2
    4535                    
    4536                            .asg    105,HAVDEFY1
    4537                            .asg    115,HAVDEFY2
    4538                            .asg    125,HAVDEFY3
    4539                            .asg    135,HAVDEFY4
    4540                    
    4541                            .asg    154,NEXTY1
    4542                            .asg    164,NEXTY2
    4543                            .asg    175+2,NEXTY3
    4544                    
    4545                            .asg    213-7,INITY
    4546                    
    4547 00026490           eympheading_setup
    4548 00026490                   RJR_STR osgemd_ascii,8,0,200,6,GREENPAL,0
    4549 00026530           eympinitials_setup1
    4550 00026530                   RJR_STR osgemd_ascii,5,2,94,6,GOLD,0
    4551 000265d0           eymprank_setup1
    4552 000265d0                   RJR_STR osgmd8_ascii,3,0,0,RANKY,SGMD8WHT,0
    4553 00026670           eympinitials_setup2
    4554 00026670                   RJR_STR sgmd8_ascii,8,0,160,6,SGMD8YEL,0
    4555 00026710           eympinitials_setup3
    4556 00026710                   RJR_STR sgmd8_ascii,3,0,267,0,SGMD8YEL,0
    4557 000267b0           eympinitials_setup4
    4558 000267b0                   RJR_STR sgmd8_ascii,3,0,340,0,SGMD8YEL,0
    4559                    
    4560 00026850           eympnoinits_setup
    4561 00026850                   RJR_STR osgemd_ascii,8,0,200,6,GOLD,0
    4562 000268f0           eympstr_heading
    4563 000268f0       4e          .string "New Player Stats:",0
    4564 00026980           eympstr_abc
TMS340 COFF Macro Assembler Version 6.10     Tue Dec 19 01:45:12 2023
 Copyright (c) 1985-1991  Texas Instruments Incorporated 

attract mode                                                         PAGE  108

    4565 00026980       41          .string "ABC",0
    4566 000269a0           eympstr_noinit
    4567 000269a0       4e          .string "NO INITIALS ENTERED",0
    4568 00026a40           eympstr_cpu
    4569 00026a40       43          .string "CPU",0
    4570 00026a60           eympstr_num
    4571 00026a60       23          .string "#",0
    4572 00026a70           eympstr_rank
    4573 00026a70       80          .string 80h,0           ;"RANK #"
    4574 00026a80           eympstr_record
    4575 00026a80       81          .string 81h,0           ;"RECORD: "
    4576 00026a90       8a  eympstr_w       .string 8ah," - ",0     ;" (W) - "
    4577 00026ab8       8b  eympstr_l       .string 8bh,0           ;"(L)"
    4578                    
    4579 00026ac8           eympstr_pct
    4580 00026ac8       83          .string 83h,"  .",0     ;"PCT: ."
    4581 00026af0           eympstr_pct100
    4582 00026af0       83          .string 83h,"  1.000",0 ;"PCT: 1.000"
    4583 00026b38           eympstr_streak
    4584 00026b38       53          .string "STREAK:",0
    4585 00026b78           eympstr_win
    4586 00026b78       20          .string " WIN",0
    4587 00026ba0           eympstr_wins
    4588 00026ba0       20          .string " WINS",0
    4589 00026bd0           eympstr_none
    4590 00026bd0       4e          .string "NONE",0
    4591 00026bf8           eympstr_next
    4592 00026bf8       6e          .string "next cpu",0
    4593 00026c40           eympstr_vs
    4594 00026c40       6f          .string "opponent:",0
    4595                    
    4596                    
    4597 00026c90       87  eympstr_hd0     .string 87h,0           ;"YOU HAVE"
    4598 00026ca0       85  eympstr_hd1     .string 85h,' ',0       ;"DEFEATED XX"
    4599 00026cb8       88  eympstr_hd2     .string 88h,0           ;"OF THE 27"
    4600 00026cc8       89  eympstr_hd3     .string 89h,0           ;"NBA TEAMS"
    4601 00026cd8       20  eympstr_all     .string " ",8ch,0       ;" ALL"
    4602 00026cf0       2d  eympstr_dash    .string "-",0
    4603                    
    4604                    
    4605 00026d00                   .even
    4606                    
    4607 00026d00           eymppdatas
    4608 00026d00 00000000!         .long   player1_data
    4609 00026d20 00000000!         .long   player2_data
    4610 00026d40 00000000!         .long   player3_data
    4611 00026d60 00000000!         .long   player4_data
    4612                    
    4613 00026d80           eympcenter_xs
    4614 00026d80     0034          .word   52,56,  0,0             ;player 1
    4615 00026dc0     0095          .word   149,145,101,0           ;player 2
    4616 00026e00     00f6          .word   246,250,295,0           ;player 3
    4617 00026e40     0157          .word   343,339,0,0             ;player 4
    4618                    
    4619                    
TMS340 COFF Macro Assembler Version 6.10     Tue Dec 19 01:45:12 2023
 Copyright (c) 1985-1991  Texas Instruments Incorporated 

attract mode                                                         PAGE  109

    4620 00026e80           print_column
    4621                    
    4622 00026e80     05a0          move    @PSTATUS2,a0
         00026e90 00000000! 
    4623 00026eb0     4b40          btst    a10,a0
    4624 00026ec0     ca00          jrz     eympcpu_player
         00026ed0     019e  
    4625                    
    4626 00026ee0     4d40          move    a10,a0
    4627 00026ef0     24a0          sll     5,a0                    ;x 32 bits
    4628 00026f00     0b20          addi    eymppdatas,a0
         00026f10 00026d00' 
    4629 00026f30     860b          move    *a0,a11,L
    4630                    
    4631 00026f40     b560          move    *a11(PR_INIT1),a0
         00026f50     0040  
    4632 00026f60     ce00          jrn     eympno_initials
         00026f70     0193  
    4633                    
    4634 00026f80     09e2          movi    eympinitials_setup1,a2
         00026f90 00026530' 
    4635 00026fb0     0d5f          calla   setup_message
         00026fc0 00000000! 
    4636                    
    4637 00026fe0     4d40          move    a10,a0
    4638 00026ff0     24c0          sll     6,a0                    ;x16x4
    4639 00027000     0b20          addi    eympcenter_xs+10h,a0
         00027010 00026d90' 
    4640 00027030     05a1          move    @TWOPLAYERS,a1          ;0 = NO, 1 = YES 2 players
         00027040 00000000! 
    4641 00027060     ca02          jrz     eympnot_2c
    4642 00027070     0b00          addi    10h,a0
         00027080     0010  
    4643 00027090           eympnot_2c
    4644 00027090     8400          move    *a0,a0
    4645 000270a0     0580          move    a0,@mess_cursx
         000270b0 00000000! 
    4646                    
    4647 000270d0     09c0          movi    INITY,a0
         000270e0     00ce  
    4648 000270f0     0580          move    a0,@mess_cursy
         00027100 00000000! 
    4649 00027120     09e3          movi    message_buffer,a3
         00027130 00000000! 
    4650 00027150     4d64          move    a11,a4
    4651 00027160     0b04          addi    PR_INIT1,a4
         00027170     0040  
    4652 00027180     0d5f          calla   get_initials_string
         00027190 00000000! 
    4653 000271b0     0d5f          calla   print_string_C
         000271c0 00000000! 
    4654                    
    4655                    
    4656 000271e0     09e2          movi    eymprank_setup1,a2
         000271f0 000265d0' 
TMS340 COFF Macro Assembler Version 6.10     Tue Dec 19 01:45:12 2023
 Copyright (c) 1985-1991  Texas Instruments Incorporated 

attract mode                                                         PAGE  110

    4657 00027210     0d5f          calla   setup_message
         00027220 00000000! 
    4658                    
    4659 00027240     4d40          move    a10,a0
    4660 00027250     24c0          sll     6,a0                    ;x16x4
    4661 00027260     0b20          addi    eympcenter_xs,a0
         00027270 00026d80' 
    4662 00027290     09e2          movi    Stats,a2                ;* image
         000272a0 00000000! 
    4663 000272c0     05a1          move    @TWOPLAYERS,a1          ;0 = NO, 1 = YES 2 players
         000272d0 00000000! 
    4664 000272f0     ca05          jrz     eympnot_2d
    4665 00027300     0b00          addi    20h,a0
         00027310     0020  
    4666 00027320     09e2          movi    Stats_B,a2
         00027330 00000000! 
    4667 00027350           eympnot_2d
    4668 00027350     8400          move    *a0,a0
    4669                    
    4670 00027360     0580          move    a0,@mess_cursx
         00027370 00000000! 
    4671 00027390     2600          sll     16,a0
    4672 000273a0     09e1          movi    [4,0],a1                ;y val
         000273b0 00040000  
    4673 000273d0     1823          movk    1,a3                    ;z pos
    4674 000273e0     09e4          movi    DMAWNZ,a4               ;DMA flags
         000273f0 00008002  
    4675 00027410     56a5          clr     a5                      ;OBJ ID
    4676 00027420     56c6          clr     a6                      ;x vel
    4677 00027430     56e7          clr     a7                      ;y vel
    4678 00027440                   PUSH    a10,a11
    4679 00027460     0d5f          calla   BEGINOBJ2               ;create "stats" heading
         00027470 00000000! 
    4680 00027490                   PULL    a10,a11
    4681                    
    4682                    
    4683 000274b0     09e0          movi    SGMD8WHT,a0
         000274c0 00000000! 
    4684 000274e0     0780          move    a0,@message_palette,L
         000274f0 00000000! 
    4685                    
    4686 00027510     09e4          movi    eympstr_rank,a4
         00027520 00026a70' 
    4687 00027540     0d3f          callr   copy_rom_string
         00027550     d8aa! 
    4688 00027560     b560          move    *a11(PR_RANK),a0        ;rank
         00027570     01b0  
    4689 00027580     0b40          cmpi    10,a0
         00027590     fff5  
    4690 000275a0     c706          jrgt    eympnotten
    4691 000275b0     09e1          movi    SGMD8PLV,a1             ;highlight cycle colour
         000275c0 00000000! 
    4692 000275e0     0781          move    a1,@message_palette,L
         000275f0 00000000! 
    4693 00027610           eympnotten
TMS340 COFF Macro Assembler Version 6.10     Tue Dec 19 01:45:12 2023
 Copyright (c) 1985-1991  Texas Instruments Incorporated 

attract mode                                                         PAGE  111

    4694 00027610     09c1          movi    999,a1                  ;max value
         00027620     03e7  
    4695 00027630     0d3f          callr   dec_to_asc
         00027640     d89b! 
    4696 00027650     0d3f          callr   concat_string
         00027660     d899! 
    4697 00027670     0d3f          callr   print_string_C          ;centered
         00027680     d897! 
    4698                    
    4699                    
    4700 00027690     09e0          movi    SGMD8PLY,a0
         000276a0 00000000! 
    4701 000276c0     0780          move    a0,@message_palette,L
         000276d0 00000000! 
    4702                    
    4703 000276f0     09c0          movi    RECY,a0
         00027700     0026  
    4704 00027710     0580          move    a0,@mess_cursy
         00027720 00000000! 
    4705 00027740     09e4          movi    eympstr_record,a4               ;"RECORD:"
         00027750 00026a80' 
    4706 00027770     0d3f          callr   print_string_C2         ;centered
         00027780     d887! 
    4707                    
    4708                    
    4709 00027790     09e0          movi    SGMD8WHT,a0
         000277a0 00000000! 
    4710 000277c0     0780          move    a0,@message_palette,L
         000277d0 00000000! 
    4711                    
    4712 000277f0     09c0          movi    WLY,a0
         00027800     0031  
    4713 00027810     0580          move    a0,@mess_cursy
         00027820 00000000! 
    4714 00027840     b560          move    *a11(PR_WON),a0         ;games won
         00027850     0010  
    4715 00027860     09c1          movi    999,a1                  ;max value
         00027870     03e7  
    4716 00027880     0d3f          callr   dec_to_asc
         00027890     d876! 
    4717 000278a0     0d3f          callr   copy_string
         000278b0     d874! 
    4718 000278c0     09e4          movi    eympstr_w,a4
         000278d0 00026a90' 
    4719 000278f0     0d3f          callr   concat_rom_string
         00027900     d86f! 
    4720 00027910     b560          move    *a11(PR_LOST),a0        ;games lost
         00027920     0020  
    4721 00027930     09c1          movi    999,a1                  ;max value
         00027940     03e7  
    4722 00027950     0d3f          callr   dec_to_asc
         00027960     d869! 
    4723 00027970     0d3f          callr   concat_string
         00027980     d867! 
    4724 00027990     09e4          movi    eympstr_l,a4
TMS340 COFF Macro Assembler Version 6.10     Tue Dec 19 01:45:12 2023
 Copyright (c) 1985-1991  Texas Instruments Incorporated 

attract mode                                                         PAGE  112

         000279a0 00026ab8' 
    4725 000279c0     0d3f          callr   concat_rom_string
         000279d0     d862! 
    4726 000279e0     0d3f          callr   print_string_C          ;centered
         000279f0     d860! 
    4727                    
    4728                    
    4729 00027a00     09e0          movi    SGMD8PLY,a0
         00027a10 00000000! 
    4730 00027a30     0780          move    a0,@message_palette,L
         00027a40 00000000! 
    4731                    
    4732 00027a60     09c0          movi    PCTY,a0
         00027a70     003c  
    4733 00027a80     0580          move    a0,@mess_cursy          ;message cursor pos Y
         00027a90 00000000! 
    4734 00027ab0     b562          move    *a11(PR_LOST),a2        ;games lost
         00027ac0     0020  
    4735 00027ad0     ca16          jrz     eympno_losses
    4736 00027ae0     09e4          movi    eympstr_pct,a4          ;"PCT: ."
         00027af0 00026ac8' 
    4737 00027b10     0d3f          callr   copy_rom_string
         00027b20     d84d! 
    4738 00027b30     b562          move    *a11(PR_LOST),a2        ;games lost
         00027b40     0020  
    4739 00027b50     b561          move    *a11(PR_WON),a1         ;games won
         00027b60     0010  
    4740 00027b70     4022          add     a1,a2                   ;total games
    4741 00027b80     09c0          movi    1000,a0
         00027b90     03e8  
    4742 00027ba0     5c01          mpys    a0,a1                   ;games won * 1000
    4743 00027bb0     5841          divs    a2,a1                   ;/ total games
    4744 00027bc0     4c20          move    a1,a0
    4745 00027bd0     0d3f          callr   dec_to_pct
         00027be0     d841! 
    4746 00027bf0     0d3f          callr   concat_string
         00027c00     d83f! 
    4747 00027c10     0d3f          callr   print_string_C          ;centered
         00027c20     d83d! 
    4748 00027c30     c005          jruc    eympskip_loss
    4749                    
    4750 00027c40           eympno_losses
    4751 00027c40     09e4          movi    eympstr_pct100,a4               ;"PCT: 1.000"
         00027c50 00026af0' 
    4752 00027c70     0d3f          callr   print_string_C2         ;centered
         00027c80     d837! 
    4753 00027c90           eympskip_loss
    4754                    
    4755                    
    4756 00027c90     09e0          movi    SGMD8WHT,a0
         00027ca0 00000000! 
    4757 00027cc0     0780          move    a0,@message_palette,L
         00027cd0 00000000! 
    4758                    
    4759 00027cf0     b560          move    *a11(PR_WINSTREAK),a0   ;no. consecutive wins
TMS340 COFF Macro Assembler Version 6.10     Tue Dec 19 01:45:12 2023
 Copyright (c) 1985-1991  Texas Instruments Incorporated 

attract mode                                                         PAGE  113

         00027d00     01a0  
    4760 00027d10     0b40          cmpi    3,a0
         00027d20     fffc  
    4761 00027d30     c406          jrlt    eympno_hilght
    4762 00027d40     09e1          movi    SGMD8PLV,a1             ;highlight cycle colour
         00027d50 00000000! 
    4763 00027d70     0781          move    a1,@message_palette,L
         00027d80 00000000! 
    4764 00027da0           eympno_hilght
    4765                    
    4766 00027da0     09c0          movi    STREAKY1,a0
         00027db0     004d  
    4767 00027dc0     0580          move    a0,@mess_cursy          ;message cursor pos Y
         00027dd0 00000000! 
    4768 00027df0     09e4          movi    eympstr_streak,a4
         00027e00 00026b38' 
    4769 00027e20     0d3f          callr   print_string_C2
         00027e30     d81c! 
    4770                    
    4771 00027e40     09c0          movi    STREAKY2,a0
         00027e50     0057  
    4772 00027e60     0580          move    a0,@mess_cursy          ;message cursor pos Y
         00027e70 00000000! 
    4773 00027e90     b560          move    *a11(PR_WINSTREAK),a0   ;no. consecutive wins
         00027ea0     01a0  
    4774 00027eb0     cb06          jrnz    eympnot0
    4775 00027ec0     09e4          movi    eympstr_none,a4
         00027ed0 00026bd0' 
    4776 00027ef0     0d3f          callr   print_string_C2
         00027f00     d80f! 
    4777 00027f10     c014          jruc    eympcontws
    4778 00027f20           eympnot0
    4779 00027f20                   PUSH    a0
    4780 00027f30     09c1          movi    99,a1                   ;max value
         00027f40     0063  
    4781 00027f50     0d3f          callr   dec_to_asc
         00027f60     d809! 
    4782 00027f70     0d3f          callr   copy_string
         00027f80     d807! 
    4783 00027f90                   PULL    a0
    4784 00027fa0     09e4          movi    eympstr_wins,a4
         00027fb0 00026ba0' 
    4785 00027fd0     1420          dec     a0
    4786 00027fe0     cb03          jrnz    eympiswins
    4787 00027ff0     09e4          movi    eympstr_win,a4
         00028000 00026b78' 
    4788 00028020           eympiswins
    4789 00028020     0d3f          callr   concat_rom_string
         00028030     d7fc! 
    4790 00028040     0d3f          callr   print_string_C
         00028050     d7fa! 
    4791 00028060           eympcontws
    4792                    
    4793                    
    4794 00028060     09e0          movi    SGMD8PLY,a0
TMS340 COFF Macro Assembler Version 6.10     Tue Dec 19 01:45:12 2023
 Copyright (c) 1985-1991  Texas Instruments Incorporated 

attract mode                                                         PAGE  114

         00028070 00000000! 
    4795 00028090     0780          move    a0,@message_palette,L
         000280a0 00000000! 
    4796                    
    4797 000280c0     09c0          movi    HAVDEFY1,a0
         000280d0     0069  
    4798 000280e0     0580          move    a0,@mess_cursy          ;message cursor pos Y
         000280f0 00000000! 
    4799 00028110     09e4          movi    eympstr_hd0,a4          ;"YOU HAVE"
         00028120 00026c90' 
    4800 00028140     0d3f          callr   print_string_C2         ;centered
         00028150     d7ea! 
    4801                    
    4802 00028160     09e0          movi    SGMD8WHT,a0
         00028170 00000000! 
    4803 00028190     0780          move    a0,@message_palette,L
         000281a0 00000000! 
    4804                    
    4805 000281c0     09c0          movi    HAVDEFY2,a0
         000281d0     0073  
    4806 000281e0     0580          move    a0,@mess_cursy          ;message cursor pos Y
         000281f0 00000000! 
    4807 00028210     09e4          movi    eympstr_hd1,a4          ;"DEFEATED NN"
         00028220 00026ca0' 
    4808 00028240     0d3f          callr   copy_rom_string
         00028250     d7da! 
    4809                    
    4810 00028260     b560          move    *a11(PR_NUMDEF),a0      ;number teams defeated
         00028270     0180  
    4811 00028280     0b40          cmpi    27,a0
         00028290     ffe4  
    4812 000282a0     c806          jrlo    eympnot_all
    4813                    
    4814 000282b0     09e4          movi    eympstr_all,a4          ;" ALL"
         000282c0 00026cd8' 
    4815 000282e0     0d3f          callr   concat_rom_string
         000282f0     d7d0! 
    4816 00028300     c006          jruc    eympskipit
    4817 00028310           eympnot_all
    4818 00028310     09c1          movi    27,a1                   ;max value
         00028320     001b  
    4819                    
    4820 00028330     0d3f          callr   dec_to_asc
         00028340     d7cb! 
    4821 00028350     0d3f          callr   concat_string
         00028360     d7c9! 
    4822 00028370           eympskipit
    4823 00028370     0d3f          callr   print_string_C          ;centered
         00028380     d7c7! 
    4824 00028390     09e0          movi    SGMD8PLY,a0
         000283a0 00000000! 
    4825 000283c0     0780          move    a0,@message_palette,L
         000283d0 00000000! 
    4826                    
    4827 000283f0     09c0          movi    HAVDEFY3,a0
TMS340 COFF Macro Assembler Version 6.10     Tue Dec 19 01:45:12 2023
 Copyright (c) 1985-1991  Texas Instruments Incorporated 

attract mode                                                         PAGE  115

         00028400     007d  
    4828 00028410     0580          move    a0,@mess_cursy          ;message cursor pos Y
         00028420 00000000! 
    4829 00028440     09e4          movi    eympstr_hd2,a4          ;"OF THE 27"
         00028450 00026cb8' 
    4830 00028470     0d3f          callr   print_string_C2         ;centered
         00028480     d7b7! 
    4831                    
    4832 00028490     09c0          movi    HAVDEFY4,a0
         000284a0     0087  
    4833 000284b0     0580          move    a0,@mess_cursy          ;message cursor pos Y
         000284c0 00000000! 
    4834 000284e0     09e4          movi    eympstr_hd3,a4          ;"NBA TEAMS"
         000284f0 00026cc8' 
    4835 00028510     0d3f          callr   print_string_C2         ;centered
         00028520     d7ad! 
    4836                    
    4837                    
    4838 00028530     b560          move    *a11(PR_NUMDEF),a0      ;number teams defeated
         00028540     0180  
    4839 00028550     0b40          cmpi    27,a0
         00028560     ffe4  
    4840 00028570     ca33          jreq    eympdefeated_all
    4841                    
    4842 00028580     09c0          movi    NEXTY1,a0
         00028590     009a  
    4843 000285a0     0580          move    a0,@mess_cursy          ;message cursor pos Y
         000285b0 00000000! 
    4844 000285d0     09e4          movi    eympstr_next,a4
         000285e0 00026bf8' 
    4845 00028600     0d3f          callr   print_string_C2
         00028610     d79e! 
    4846                    
    4847 00028620     09c0          movi    NEXTY2,a0
         00028630     00a4  
    4848 00028640     0580          move    a0,@mess_cursy          ;message cursor pos Y
         00028650 00000000! 
    4849 00028670     09e4          movi    eympstr_vs,a4
         00028680 00026c40' 
    4850 000286a0     0d3f          callr   print_string_C2
         000286b0     d794! 
    4851                    
    4852                    
    4853 000286c0     09e0          movi    SGMD8WHT,a0
         000286d0 00000000! 
    4854 000286f0     0780          move    a0,@message_palette,L
         00028700 00000000! 
    4855                    
    4856 00028720     09c0          movi    NEXTY3,a0
         00028730     00b1  
    4857 00028740     0580          move    a0,@mess_cursy          ;message cursor pos Y
         00028750 00000000! 
    4858                    
    4859 00028770     b761          move    *a11(PR_TEAMSDEF),a1,L
         00028780     0160  
TMS340 COFF Macro Assembler Version 6.10     Tue Dec 19 01:45:12 2023
 Copyright (c) 1985-1991  Texas Instruments Incorporated 

attract mode                                                         PAGE  116

    4860 00028790     0b81          andi    07ffffffh,a1
         000287a0 f8000000  
    4861 000287c0     0d5f          calla   get_opponent_team
         000287d0 00000000! 
    4862 000287f0     4c40          move    a2,a0
    4863 00028800     0b00          addi    90h,a0                  ;asc table cities start offset
         00028810     0090  
    4864 00028820     05e0          movb    a0,@message_buffer+00h
         00028830 00000000! 
    4865 00028850     5600          clr     a0
    4866 00028860     05e0          movb    a0,@message_buffer+08h
         00028870 00000008! 
    4867 00028890     0d3f          callr   print_string_C
         000288a0     d775! 
    4868                    
    4869 000288b0           eympdefeated_all
    4870 000288b0           eympno_initials
    4871 000288b0     0960          rets
    4872                    
    4873                    
    4874 000288c0           eympcpu_player
    4875                    
    4876                            .if 0
    4877                            movi    eympinitials_setup1,a2
    4878                            calla   setup_message
    4879                    
    4880                            move    a10,a0
    4881                            sll     5,a0                    ;x16x2
    4882                            addi    eympcenter_xs+10h,a0
    4883                            move    *a0,a0
    4884                            move    a0,@mess_cursx
    4885                    
    4886                            movi    INITY,a0
    4887                            move    a0,@mess_cursy
    4888                            movi    eympstr_cpu,a4
    4889                            calla   print_string_C2
    4890                            
    4891                            .endif
    4892                            
    4893 000288c0     0960          rets
    4894                    
    4895                    
    4896                    
    4897                    
    4898 000288d0           deloff  SLEEP   1ch
    4899 00028920     0d3f          callr   deloffbot
         00028930     0001  
    4900 00028940     c0f8          jruc    deloff
    4901                    
    4902 00028950           deloffbot:
    4903 00028950     07a1          move    @WORLDTLY,a1,L
         00028960 00000000! 
    4904 00028980     0b21          addi    [260,0],a1
         00028990 01040000  
    4905 000289b0     2e01          srl     16,a1
TMS340 COFF Macro Assembler Version 6.10     Tue Dec 19 01:45:12 2023
 Copyright (c) 1985-1991  Texas Instruments Incorporated 

attract mode                                                         PAGE  117

    4906 000289c0     09e3          movi    RAMLST,a3
         000289d0 00000020- 
    4907 000289f0     5600          clr     a0
    4908 00028a00     8203          move    a0,*a3,L
    4909 00028a10     09e0          movi    OBJLST,a0
         00028a20 00000000! 
    4910 00028a40           sobjs1
    4911 00028a40     8600          move    *a0,a0,L
    4912 00028a50     ca0a          jreq    sobjsx
    4913 00028a60     b402          move    *a0(OYPOS),a2
         00028a70     00b0  
    4914 00028a80     4841          cmp     a2,a1
    4915 00028a90     c9fa          jrnc    sobjs1
    4916 00028aa0           contab
    4917 00028aa0     9203          move    a0,*a3+,L               ;img to be deleted
    4918 00028ab0     5684          clr     a4
    4919 00028ac0     8283          move    a4,*a3,L                ;zero next entry
    4920 00028ad0     b283          move    a4,*a3(32),L            ;zero next entry
         00028ae0     0020  
    4921 00028af0     c0f4          jruc    sobjs1
    4922 00028b00           sobjsx
    4923 00028b00     09e1          movi    RAMLST,a1
         00028b10 00000020- 
    4924 00028b30     9620  delt    move    *a1+,a0,L
    4925 00028b40     ca06          jrz     delx
    4926 00028b50                   PUSH    a1
    4927 00028b60     0d5f          calla   DELOBJ
         00028b70 00000000! 
    4928 00028b90                   PULL    a1
    4929 00028ba0     c0f8          jruc    delt
    4930 00028bb0     0960  delx    rets
    4931                    
    4932                    
    4933 00028bc0            SUBR   winning_msg
    4934 00028bc0     09c0          movi    65-15,a0
         00028bd0     0032  
    4935 00028be0     0580          move    a0,@mess_line_spacing
         00028bf0 00000000! 
    4936                    
    4937 00028c10     09e2          movi    LN0_setup,a2
         00028c20 00029010' 
    4938 00028c40     0d5f          calla   setup_message
         00028c50 00000000! 
    4939                    
    4940 00028c70     09c0          movi    CLSDEAD|123,a0
         00028c80     207b  
    4941 00028c90     0580          move    a0,@mess_objid
         00028ca0 00000000! 
    4942                    
    4943 00028cc0     05ae          move    @team1,a14
         00028cd0 00000000! 
    4944 00028cf0     05a0          move    @scores,a0
         00028d00 00000000! 
    4945 00028d20     05a1          move    @scores+16,a1
         00028d30 00000010! 
TMS340 COFF Macro Assembler Version 6.10     Tue Dec 19 01:45:12 2023
 Copyright (c) 1985-1991  Texas Instruments Incorporated 

attract mode                                                         PAGE  118

    4946 00028d50     4801          cmp     a0,a1
    4947 00028d60     c403          jrlt    hotaok
    4948 00028d70     05ae          move    @team2,a14
         00028d80 00000000! 
    4949 00028da0     24ae  hotaok  sll     5,a14
    4950 00028db0     4dca          move    a14,a10
    4951 00028dc0     0b2e          addi    strings,a14
         00028dd0 000290b0' 
    4952 00028df0     87c4          move    *a14,a4,L
    4953                    
    4954                    
    4955 00028e00     0d5f          calla   print_string_C2
         00028e10 00000000! 
    4956                    
    4957                            .REF    flash_bigtxt2
    4958 00028e30                   CREATE0 flash_bigtxt2
    4959 00028ea0     4c09          move    a0,a9
    4960                    
    4961                            
    4962 00028eb0                   SLEEP   3*60
    4963                    
    4964 00028f00     4d20          move    a9,a0
    4965 00028f10     0d5f          calla   KILL
         00028f20 00000000! 
    4966                    
    4967                    
    4968 00028f40     09c0          movi    TYPTEXT,a0
         00028f50     0700  
    4969 00028f60     0d5f          calla   obj_del1c
         00028f70 00000000! 
    4970 00028f90     09c0          movi    CLSDEAD|123,a0
         00028fa0     207b  
    4971 00028fb0     0d5f          calla   obj_del1c               ;delete text
         00028fc0 00000000! 
    4972 00028fe0                   DIE
    4973                    
    4974                    
    4975 00029010           LN0_setup
    4976 00029010                   RJR_STR omlgmd_ascii,10,1,200,60,LGMDGLD,0              ;PURP
    4977 000290b0                   .even
    4978                    
    4979 000290b0 00029430' strings .long   hotas1,hotas2,hotas3,hotas4,hotas5,hotas6,hotas7,hotas8,hotas9,hotas10
    4980 000291f0 000299d8'         .long   hotas11,hotas12,hotas13,hotas14,hotas15,hotas16,hotas17,hotas18,hotas19,hotas20
    4981 00029330 00029ee0'         .long   hotas21,hotas22,hotas23,hotas24,hotas25,hotas26,hotas27,hotas28
    4982                    
    4983                    
    4984 00029430       41  hotas1  .string "ATLANTA HAWKS",1
    4985 000294a0       57          .string "WIN!",0
    4986 000294c8       42  hotas2  .string "BOSTON CELTICS",1
    4987 00029540       57          .string "WIN!",0
    4988 00029568       43  hotas3  .string "CHARLOTTE",1
    4989 000295b8       57          .string "WINS!",0
    4990 000295e8       43  hotas4  .string "CHICAGO BULLS",1
    4991 00029658       57          .string "WIN!",0
    4992 00029680       54  hotas5  .string "THE CAVALIERS",1
TMS340 COFF Macro Assembler Version 6.10     Tue Dec 19 01:45:12 2023
 Copyright (c) 1985-1991  Texas Instruments Incorporated 

attract mode                                                         PAGE  119

    4993 000296f0       57          .string "WIN!",0
    4994 00029718       54  hotas6  .string "THE MAVERICKS",1
    4995 00029788       57          .string "WIN!",0
    4996 000297b0       54  hotas7  .string "THE NUGGETS",1
    4997 00029810       57          .string "WIN!",0
    4998 00029838       54  hotas8  .string "THE PISTONS",1
    4999 00029898       57          .string "WIN!",0
    5000 000298c0       54  hotas9  .string "THE WARRIORS",1
    5001 00029928       57          .string "WIN!",0
    5002 00029950       54  hotas10 .string "THE ROCKETS",1
    5003 000299b0       57          .string "WIN!",0
    5004 000299d8       54  hotas11 .string "THE PACERS",1
    5005 00029a30       57          .string "WIN!",0
    5006 00029a58       54  hotas12 .string "THE CLIPPERS",1
    5007 00029ac0       57          .string "WIN!",0
    5008 00029ae8       54  hotas13 .string "THE LAKERS",1
    5009 00029b40       57          .string "WIN!",0
    5010 00029b68       4d  hotas14 .string "MIAMI HEAT",1
    5011 00029bc0       57          .string "WIN!",0
    5012 00029be8       54  hotas15 .string "THE BUCKS",1
    5013 00029c38       57          .string "WIN!",0
    5014 00029c60       54  hotas16 .string "THE WOLVES",1
    5015 00029cb8       57          .string "WIN!",0
    5016 00029ce0       54  hotas17 .string "THE NETS",1
    5017 00029d28       57          .string "WIN!",0
    5018 00029d50       54  hotas18 .string "THE KNICKS",1
    5019 00029da8       57          .string "WIN!",0
    5020 00029dd0       54  hotas19 .string "THE MAGIC",1
    5021 00029e20       57          .string "WIN!",0
    5022 00029e48       50  hotas20 .string "PHILADELPHIA",1
    5023 00029eb0       57          .string "WINS!",0
    5024 00029ee0       50  hotas21 .string "PHOENIX SUNS",1
    5025 00029f48       57          .string "WIN!",0
    5026 00029f70       54  hotas22 .string "THE BLAZERS",1
    5027 00029fd0       57          .string "WIN!",0
    5028 00029ff8       54  hotas23 .string "THE KINGS",1
    5029 0002a048       57          .string "WIN!",0
    5030 0002a070       54  hotas24 .string "THE SPURS",1
    5031 0002a0c0       57          .string "WIN!",0
    5032 0002a0e8       53  hotas25 .string "SUPERSONICS",1
    5033 0002a148       57          .string "WIN!",0
    5034 0002a170       55  hotas26 .string "UTAH JAZZ",1
    5035 0002a1c0       57          .string "WIN!",0
    5036 0002a1e8       54  hotas27 .string "THE BULLETS",1
    5037 0002a248       57          .string "WIN!",0
    5038 0002a270       54  hotas28 .string "THE CHAMPS",1
    5039 0002a2c8       57          .string "WIN AGAIN!",0
    5040                    
    5041 0002a320                   .even
    5042                    
    5043                            .end

 No Errors,  No Warnings
