TMS340 COFF Macro Assembler Version 6.10     Tue Dec 19 01:45:19 2023
 Copyright (c) 1985-1991  Texas Instruments Incorporated 

                                                                     PAGE    1

       1                            .width  132
       2                            .option b,d,l,t
       3                            .mnolist
       4                    
       5                    
       6                            .include        "gsp.equ"
       7                            .include        "sys.equ"
       8                            .include        mproc.equ
       9                            .include        mac2.asm
      10                            .include        link.equ
      11                            .include        imgtbl.glo
      12                            .include        "shawn.hdr"
      13                            .INCLUDE        GAME.EQU
      14                            .INCLUDE        DIPEQU.ASM
      15                    
      16                    
      17              0038  SCRXFUDGE       equ     56
      18                            .ref    fudge_switches, fudge_switches_diag, CKTEST, CPU_RET
      19                            .REF    SNDSND,INTIO,WARMSET,GET_AUD,STORE_AUDIT,WDOGDIS
      20                            .ref    dirqtimer, AUD1, GAMSTATE, KILL_AUD, PCMOSRET
      21                            .ref    CLR_AUD, FAC_SET, CMOS_VAL, ROM_NAME
      22                    
      23                            .DEF    POWERTST, DIAGCPUTEST, POWERCMOS
      24                            .def    SWITCHTEST, SWSET1, SWSET2
      25                            .DEF    CROSS_H,COL_BARS,BURN_IN,STRNEW1
      26                    
      27                            .DEF    CIRCLE,HVLINE,STRING,RECTANGLE,POINT,DSCRCLR,INITCOLR
      28                            .DEF    READ_DIP
      29                    
      30                            .REF    SNDTST
      31                            .REF    SYSCOPY
      32                            .REF    USA_1, USA_2, USA_3, USA_4, USA_ELECTITLE
      33                            .REF    GERMAN_1, GERMAN_2, GERMAN_3, GERMAN_4, GERMAN_ELECTITLE
      34                            .REF    FRENCH_1, FRENCH_2, FRENCH_3, FRENCH_4, FRENCH_ELECTITLE
      35                            .REF    DIPCOINTAB
      36                    
      37                    
      38                            .REF    GET_ADJ, GET_CSPT, NO_CREDS
      39                            .REF    PUT_ADJ, CRED_P, HEXTOASC, F_ADC_S, SET_COIN_ADJ
      40                            .REF    init_all, mainlp, DIAG_COLORS
      41                    
      42              ff92  CMOS_ERROR_SND  .EQU    0FF92H
      43              ff92  CPU_ERROR_SND   .EQU    0FF92H
      44              ff83  DIP_SND         .EQU    0FF83H
      45              ff80  SWITCH_SND      .EQU    0FF80H
      46                    
      47 00000000                   .BSS    SWSET1,32               ; FOR SWITCH TEST
      48 00000020                   .BSS    SWSET2,32
      49                    
      50 00000040                   .BSS    DIPVAL,16
      51 00000050                   .BSS    DIP1ST,16
      52                    
      53 00000060                   .BSS    FORCEDIP,16             ; FOR FORCING THE USE OF THE DIP
      54 00000070                   .BSS    CERRORS,32
      55 00000090                   .BSS    CPASSES,32
TMS340 COFF Macro Assembler Version 6.10     Tue Dec 19 01:45:19 2023
 Copyright (c) 1985-1991  Texas Instruments Incorporated 

                                                                     PAGE    2

      56 000000b0                   .BSS    SCHANGE,16
      57                    
      58                    PAUSE   .macro TIME, REG
      59                            MOVI    :TIME:,:REG:,L
      60                    LABEL?  NOP
      61                            DSJS    :REG:,LABEL?
      62                            .endm
      63                    
      64                    
      65                    BSET    .macro  P1,R1
      66                            MOVK    1,A14
      67                            SLL     :P1:,A14
      68                            OR      A14,:R1:
      69                            .endm
      70                    
      71                    
      72                    RJST    .macro  REG
      73                            MOVE    :REG:,:REG:
      74                            JRZ     MX?
      75                    MLP?
      76                            SRL     1,:REG:
      77                            JRNC    MLP?
      78                            SLL     1,:REG:
      79                            ADDK    1,:REG:
      80                    MX?
      81                            .endm
      82                    
      83                    
      84                    BUT_MAC .macro  X,Y,RADIUS,COLOR,MASK,SHIFT,EXTEND
      85                            .WORD   :X:     
      86                            .WORD   :Y:
      87                            .WORD   :RADIUS:
      88                            .LONG   :COLOR:
      89                            .LONG   :MASK:
      90                            .WORD   :SHIFT:
      91                            .WORD   :EXTEND:
      92                            .endm
      93                    
      94                    STR_MAC .macro  X,Y,STRING,COLOR,DIR
      95                            .WORD   :X:     
      96                            .WORD   :Y:
      97                            .LONG   :STRING:
      98                            .WORD   :COLOR:
      99                            .WORD   :DIR:
     100                            .endm
     101                    
     102                    VECMAC  .macro  COLOR,X1,Y1,X2,Y2
     103                            .WORD   :COLOR:
     104                            .WORD   :X1:
     105                            .WORD   :Y1:
     106                            .WORD   :X2:
     107                            .WORD   :Y2:
     108                            .endm
     109                    
     110                    DOTMAC  .macro  COLOR,X,Y
TMS340 COFF Macro Assembler Version 6.10     Tue Dec 19 01:45:19 2023
 Copyright (c) 1985-1991  Texas Instruments Incorporated 

                                                                     PAGE    3

     111                            .WORD   :COLOR:
     112                            .WORD   :X:
     113                            .WORD   :Y:
     114                            .endm
     115                    
     116                    RECTMAC .macro  COLOR,X,Y,W,H
     117                            .WORD   :W:
     118                            .WORD   :H:
     119                            .WORD   :X:
     120                            .WORD   :Y:
     121                            .WORD   :COLOR:
     122                            .endm
     123                    
     124                    CHIPMAC .macro  NUM,X1,Y1,X2,Y2,X3,Y3,STRING,DIR,X4,Y4,STUFFED
     125                            .WORD   :NUM:
     126                            .WORD   :X1:
     127                            .WORD   :Y1:
     128                            .WORD   :X2:
     129                            .WORD   :Y2:
     130                            .WORD   :X3:
     131                            .WORD   :Y3:
     132                            .LONG   :STRING:
     133                            .WORD   :DIR:
     134                            .WORD   :X4:
     135                            .WORD   :Y4:
     136                            .WORD   :STUFFED:
     137                            .endm
     138                    
     139              0000  CMNUM           EQU     0
     140              0010  CMLOC           EQU     CMNUM+16
     141              0010  CMXLOC          EQU     CMLOC
     142              0020  CMYLOC          EQU     CMLOC+16
     143              0030  CMSIZE          EQU     CMLOC+32
     144              0030  CMXSIZE         EQU     CMSIZE
     145              0040  CMYSIZE         EQU     CMSIZE+16
     146              0050  CMOFFSET        EQU     CMSIZE+32
     147              0070  CMSTRING        EQU     CMOFFSET+32
     148              0090  CMDIR           EQU     CMSTRING+32
     149              00a0  CMPINLOC        EQU     CMDIR+16
     150              00c0  CMSTUFFED       EQU     CMPINLOC+32
     151              00d0  CMEND           EQU     CMSTUFFED+16
     152                            
     153                    
     154                    
     155                    RAM_CHIP .macro TAB_LINK,CHIP_NO, WIDTH, INTERLEAVE, START_ADDR, END_ADDR
     156                    
     157                            .WORD   :WIDTH:
     158                            .WORD   :INTERLEAVE:
     159                            .WORD   :CHIP_NO:
     160                            .LONG   :START_ADDR:
     161                            .LONG   :END_ADDR:
     162                            .LONG   :TAB_LINK:
     163                            .endm
     164                    
     165              0000  RAM_WDTH EQU    000H                ; OFFSETS INTO RAM CHIP RECORD
TMS340 COFF Macro Assembler Version 6.10     Tue Dec 19 01:45:19 2023
 Copyright (c) 1985-1991  Texas Instruments Incorporated 

                                                                     PAGE    4

     166              0010  RAM_ITLV EQU    010H
     167              0020  RAM_NMBR EQU    020H
     168              0030  RAM_SADR EQU    030H
     169              0050  RAM_EADR EQU    050H
     170              0070  RAM_LINK        EQU     070H
     171              0090  RAM_SIZE EQU    090H
     172                    
     173              0000  ROM_CKSM        EQU     000H
     174              0010  ROM_WDTH        EQU     010H                ; OFFSETS INTO ROM CHIP RECORD
     175              0020  ROM_ITLV        EQU     020H
     176              0030  ROM_NMBR        EQU     030H
     177              0040  ROM_SADR        EQU     040H
     178              0060  ROM_EADR        EQU     060H
     179              0080  ROM_LINK        EQU     080H
     180              00a0  ROM_SIZE        EQU     0A0H
     181                    
     182                    
     183                    ROM_CHIP .macro TAB_LINK,CHIP_NO, WIDTH, INTERLEAVE, START_ADDR, END_ADDR, CHECK_SUM
     184                    
     185                            .WORD   :CHECK_SUM:
     186                            .WORD  :WIDTH:
     187                            .WORD  :INTERLEAVE:
     188                            .WORD  :CHIP_NO:
     189                            .LONG  :START_ADDR:
     190                            .LONG  :END_ADDR:
     191                            .LONG   :TAB_LINK:
     192                    
     193                             .endm
     194                    
     195                    
     196          5a5a5a5a  RANDOM_SEED EQU 5A5A5A5Ah              ; RAM TESTS: PSEUDO-RANDOM SEQUENCE
     197              001f  ZERO_EXTEND EQU 1Fh                    ; PARAMETERS
     198              0020  SIGN_EXTEND EQU 20h
     199              ffdc  PAL_SELECT  EQU 0FFDCH                 ; ENABLE VIDEO PALETTE MAP ACCESS
     200                    
     201                    
     202 00000000                   .text
     203 00000000                   .even
     204                    
     205                    
     206 00000000           POWERTST
     207 00000000     0360          dint
     208 00000010     0570          setf    16,1,0
     209 00000020     0740          setf    32,0,1
     210 00000030     09ef          MOVI    STCKST,SP,L
         00000040 010ffff0  
     211 00000060     0580          move    a0,@WATCHDOG            ;Reset
         00000070 01d81070  
     212                    
     213                    
     214 00000090     57ce          clr     a14
     215 000000a0     058e          move    a14,@DMACTRL
         000000b0 01a80010  
     216 000000d0     058e          move    a14,@DMACTRL
         000000e0 01a80010  
TMS340 COFF Macro Assembler Version 6.10     Tue Dec 19 01:45:19 2023
 Copyright (c) 1985-1991  Texas Instruments Incorporated 

                                                                     PAGE    5

     217                    
     218 00000100                   FCALL   INTIO,B6
     219                    
     220                    
     221 00000140     09ed          MOVI    SYSCINIT,A13
         00000150 0000fff8  
     222 00000170     058d          MOVE    A13,@SYSCTRL
         00000180 01f00000  
     223                    
     224 000001a0                   FCALL   CPUTEST,SP
     225 000001e0     c080          JAUC    WARMSET
         000001f0 00000000! 
     226                    
     227                    
     228                    
     229                    
     230 00000210           POWERCMOS:      
     231 00000210     0360          DINT
     232 00000220     09e1          MOVI    SYSCINIT,A1
         00000230 0000fff8  
     233 00000250     0581          MOVE    A1,@SYSCTRL,W
         00000260 01f00000  
     234                    
     235 00000280     0d5f          CALLA   WDOGDIS                 ; GET RID OF WATCH DOG
         00000290 00000000! 
     236                    
     237 000002b0     57ad          CLR     A13                     ; USED TO DECIDE WHETHER PAUSE OR NOT
     238 000002c0     058d          MOVE    A13,@DMACTRL,W
         000002d0 01a80010  
     239 000002f0     058d          MOVE    A13,@DMACTRL,W
         00000300 01a80010  
     240 00000320                   FCALL   INITCOLR,B5             ; FIX UP THE COLORS
     241 00000360                   FCALL   INTIO,B6
     242 000003a0                   FCALL   DSCRCLR,B6              ; MAKE SURE OF SCREEN
     243 000003e0     09e0          MOVI    ROM_NAME,A0
         000003f0 00000000! 
     244 00000410                   FCALL   STRINGCENTER,B6         ; GET WIDTH OF STRING
     245 00000450     0b21          ADDI    [30,0],A1
         00000460 001e0000  
     246 00000480     5642          CLR     A2
     247 00000490     09c3          MOVI    COLOR_YELLOW,A3
         000004a0     0505  
     248 000004b0                   FCALL   STRING,B6
     249                    
     250 000004f0     0d5f          CALLA   CMOS_VAL                ; CHECKSUM AUDITS/ADJUSTMENTS
         00000500 00000000! 
     251 00000520     ca41          JREQ    CMOSOK
     252 00000530     5600          clr     a0                      ;Full
     253 00000540     0d5f          CALLA   FAC_SET
         00000550 00000000! 
     254 00000570     0d5f          CALLA   CLR_AUD
         00000580 00000000! 
     255                    
     256 000005a0     182d          MOVK    1,A13                   ; FLAG ERROR
     257 000005b0     0d5f          CALLA   CMOS_VAL                ; TRY AGAIN
TMS340 COFF Macro Assembler Version 6.10     Tue Dec 19 01:45:19 2023
 Copyright (c) 1985-1991  Texas Instruments Incorporated 

                                                                     PAGE    6

         000005c0 00000000! 
     258 000005e0     ca23          JREQ    CMOSB1                  ; BR = OK WE'RE IN
     259                    
     260 000005f0     09e0          MOVI    CMOS_BAD,A0
         00000600 000017e0' 
     261 00000620                   FCALL   STRINGCENTER,B6
     262 00000660     0b21          ADDI    [50,0],A1
         00000670 00320000  
     263 00000690     5642          CLR     A2
     264 000006a0     09c3          MOVI    COLOR_RED,A3
         000006b0     0303  
     265 000006c0                   FCALL   STRING,B6
     266 00000700     09e0          MOVI    CMOS_UNFAC,A0
         00000710 00001880' 
     267 00000730                   FCALL   STRINGCENTER,B6
     268 00000770     0b21          ADDI    [65,0],A1
         00000780 00410000  
     269 000007a0     5642          CLR     A2
     270 000007b0     09c3          MOVI    COLOR_RED,A3
         000007c0     0303  
     271 000007d0                   FCALL   STRING,B6
     272 00000810     c023          JRUC    CMOS1
     273 00000820           CMOSB1
     274 00000820     09e0          MOVI    CMOS_FACRES,A0
         00000830 00001690' 
     275 00000850                   FCALL   STRINGCENTER,B6
     276 00000890     0b21          ADDI    [50,0],A1
         000008a0 00320000  
     277 000008c0     5642          CLR     A2
     278 000008d0     09c3          MOVI    COLOR_RED,A3
         000008e0     0303  
     279 000008f0                   FCALL   STRING,B6
     280 00000930     c011          JRUC    CMOS1
     281 00000940           CMOSOK
     282 00000940     09e0          MOVI    CMOS_OK,A0
         00000950 000019a0' 
     283 00000970                   FCALL   STRINGCENTER,B6
     284 000009b0     0b21          ADDI    [50,0],A1
         000009c0 00320000  
     285 000009e0     5642          CLR     A2
     286 000009f0     09c3          MOVI    COLOR_GREEN,A3
         00000a00     0606  
     287 00000a10                   FCALL   STRING,B6
     288                    
     289 00000a50           CMOS1
     290 00000a50     0d5f          CALLA   CRED_P                  ;CHECK OUT CREDITS, THIS WILL CLEAR
         00000a60 00000000! 
     291                                                            ;IF NECESSARY.  THANX LINKY!
     292                    
     293 00000a80     0d3f          CALLR   READ_DIP
         00000a90     0973  
     294 00000aa0     0b80          ANDI    DPUSECMOS,A0
         00000ab0 fffffeff  
     295 00000ad0     cb14          JRNZ    CMOS3                   ; BR = USING CMOS COINAGE
     296                    
TMS340 COFF Macro Assembler Version 6.10     Tue Dec 19 01:45:19 2023
 Copyright (c) 1985-1991  Texas Instruments Incorporated 

                                                                     PAGE    7

     297 00000ae0     09e0          MOVI    CMOS_DIP,A0
         00000af0 000013e0' 
     298 00000b10                   FCALL   STRINGCENTER,B6
     299 00000b50     0b21          ADDI    [110,0],A1
         00000b60 006e0000  
     300 00000b80     5642          CLR     A2
     301 00000b90     09c3          MOVI    COLOR_WHITE,A3
         00000ba0     0202  
     302 00000bb0                   FCALL   STRING,B6
     303                            
     304 00000bf0     0d3f          CALLR   SET_DIP_COINAGE
         00000c00     0705  
     305 00000c10     c011          JRUC    CMOS4
     306                    
     307 00000c20           CMOS3
     308 00000c20     09e0          MOVI    CMOS_CMOS,A0
         00000c30 000014a0' 
     309 00000c50                   FCALL   STRINGCENTER,B6
     310 00000c90     0b21          ADDI    [110,0],A1
         00000ca0 006e0000  
     311 00000cc0     5642          CLR     A2
     312 00000cd0     09c3          MOVI    COLOR_WHITE,A3
         00000ce0     0202  
     313 00000cf0                   FCALL   STRING,B6
     314 00000d30           CMOS4   
     315 00000d30     07a0          MOVE    @SWITCH,A0,L            ; CHECK SLAM SWITCH
         00000d40 01600000  
     316 00000d60     03e0          NOT     A0
     317 00000d70     0b80          ANDI    00080000H,A0
         00000d80 fff7ffff  
     318 00000da0     ca12          JRZ     CMOSRET
     319 00000db0     09e0          MOVI    CMOS_TILT,A0
         00000dc0 000012f0' 
     320 00000de0                   FCALL   STRINGCENTER,B6
     321 00000e20     0b21          ADDI    [205,0],A1
         00000e30 00cd0000  
     322 00000e50     5642          CLR     A2
     323 00000e60     09c3          MOVI    COLOR_RED,A3
         00000e70     0303  
     324 00000e80                   FCALL   STRING,B6
     325 00000ec0     182d          MOVK    1,A13                   ; FLAG ERROR
     326 00000ed0           CMOSRET
     327 00000ed0     4dad          MOVE    A13,A13
     328 00000ee0     ca32          JRZ     CTMP0
     329                    
     330 00000ef0     09e0          MOVI    CMOS_ERROR_SND,A0
         00000f00 0000ff92  
     331 00000f20     0580          MOVE    A0,@SOUND,W
         00000f30 01d01030  
     332                    
     333 00000f50     09e0          MOVI    CMOS_WAIT,A0
         00000f60 00001540' 
     334 00000f80                   FCALL   STRINGCENTER,B6
     335 00000fc0     0b21          ADDI    [230,0],A1
         00000fd0 00e60000  
TMS340 COFF Macro Assembler Version 6.10     Tue Dec 19 01:45:19 2023
 Copyright (c) 1985-1991  Texas Instruments Incorporated 

                                                                     PAGE    8

     336 00000ff0     5642          CLR     A2
     337 00001000     09c3          MOVI    COLOR_RED,A3
         00001010     0303  
     338 00001020                   FCALL   STRING,B6
     339 00001060     0d5f          CALLA   WDOGDIS                 ; DISABLE WOOF WOOF
         00001070 00000000! 
     340                    
     341 00001090     0d5f          CALLA   fudge_switches          ;get fudged switches in a0
         000010a0 00000000! 
     342 000010c0     0b80          andi    BUTTONS|START_BITS,a0
         000010d0 f9db0f0f  
     343 000010f0     0780          MOVE    A0,@SWSET1,L
         00001100 00000000- 
     344 00001120           CTMP1
     345 00001120     0580          move    a0,@WATCHDOG            ;Reset
         00001130 01d81070  
     346 00001150     0d5f          CALLA   fudge_switches          ;get fudged switches in a0
         00001160 00000000! 
     347 00001180     0b80          andi    BUTTONS|START_BITS,a0
         00001190 f9db0f0f  
     348 000011b0     07a1          MOVE    @SWSET1,A1,L
         000011c0 00000000- 
     349 000011e0     4801          CMP     A0,A1
     350 000011f0     caf2          JRZ     CTMP1
     351 00001200     c00b          JRUC    CTMP2
     352 00001210           CTMP0
     353 00001210     09c0          MOVI    200H,A0
         00001220     0200  
     354 00001230           CTMP_WAIT
     355 00001230     0580          move    a0,@WATCHDOG            ;Reset
         00001240 01d81070  
     356 00001260                   PAUSE   1000H,B6
     357 000012b0     3d20          DSJS    A0,CTMP_WAIT
     358 000012c0           CTMP2
     359 000012c0     c080          JAUC    PCMOSRET
         000012d0 00000000! 
     360                    
     361                    
     362                    
     363 000012f0           CMOS_TILT
     364 000012f0       57          .STRING "WARNING -- SLAM SWITCH CLOSED",0
     365 000013e0                   .EVEN
     366                            
     367 000013e0           CMOS_DIP
     368 000013e0       55          .STRING "USING DIPSWITCH COINAGE",0
     369 000014a0                   .EVEN
     370                    
     371 000014a0           CMOS_CMOS
     372 000014a0       55          .STRING "USING CMOS COINAGE",0
     373 00001540                   .EVEN
     374                    
     375 00001540           CMOS_WAIT
     376 00001540       45          .STRING "ERRORS DETECTED -- ANY BUTTON TO CONTINUE",0
     377 00001690                   .EVEN
     378                    
TMS340 COFF Macro Assembler Version 6.10     Tue Dec 19 01:45:19 2023
 Copyright (c) 1985-1991  Texas Instruments Incorporated 

                                                                     PAGE    9

     379 00001690           CMOS_FACRES
     380 00001690       43          .STRING "CMOS INVALID -- FACTORY SETTINGS RESTORED",0
     381 000017e0                   .EVEN
     382                    
     383 000017e0           CMOS_BAD
     384 000017e0       43          .STRING "CMOS CHIP UJ11 BAD",0
     385 00001880                   .EVEN
     386                    
     387 00001880           CMOS_UNFAC
     388 00001880       55          .STRING "UNABLE TO RESTORE FACTORY SETTINGS",0
     389 000019a0                   .EVEN
     390                    
     391 000019a0           CMOS_OK
     392 000019a0       43          .STRING "CMOS OK",0
     393 000019e0                   .EVEN
     394                    
     395                    
     396 000019e0           BURN_IN:
     397 000019e0     0360          DINT
     398 000019f0     09c0          MOVI    AUDAUTO,A0              ;ZERO OUT BURNIN AUDIT
         00001a00     0017  
     399 00001a10     0d5f          CALLA   KILL_AUD
         00001a20 00000000! 
     400 00001a40           BURNLOOP
     401 00001a40     0d5f          CALLA   WDOGDIS                 ;MAKE SURE THE DOG IS ASLEEP
         00001a50 00000000! 
     402 00001a70                   FCALL   CPUTEST,SP
     403 00001ab0           BURNSP:
     404 00001ab0     0570          setf    16,1,0
     405 00001ac0     0740          setf    32,0,1
     406 00001ad0     09ef          MOVI    STCKST,SP,L             ;RESTORE THE STACK PTR
         00001ae0 010ffff0  
     407 00001b00     09e0          MOVI    SYSCINIT,A0             ;RE-INITIALIZE SYSTEM CONTROL
         00001b10 0000fff8  
     408 00001b30     0580          MOVE    A0,@SYSCTRL,W
         00001b40 01f00000  
     409 00001b60     0580          MOVE    A0,@SYSCOPY,W           ;KEEP A COPY IN RAM
         00001b70 00000000! 
     410 00001b90     09c0          MOVI    AUDAUTO,A0
         00001ba0     0017  
     411 00001bb0     0d5f          CALLA   AUD1                    ;ANOTHER ONE WORKED
         00001bc0 00000000! 
     412 00001be0     c0e5          JRUC    BURNLOOP
     413                    
     414                    
     415 00001bf0           DIAGCPUTEST:
     416 00001bf0     0d5f          CALLA   WDOGDIS
         00001c00 00000000! 
     417 00001c20     0360          DINT
     418 00001c30                   FCALL   CPUTEST,SP
     419 00001c70           DIAGSP:
     420 00001c70     0570          SETF    16,1,0                  ; WORD NO SIGN EXTEND
     421 00001c80     0740          SETF    32,0,1                  ; LONG WORD
     422 00001c90     09ef          MOVI    STCKST,SP,L
         00001ca0 010ffff0  
TMS340 COFF Macro Assembler Version 6.10     Tue Dec 19 01:45:19 2023
 Copyright (c) 1985-1991  Texas Instruments Incorporated 

                                                                     PAGE   10

     423 00001cc0     0d5f          CALLA   init_all
         00001cd0 00000000! 
     424                    
     425 00001cf0     0d5f          CALLA   DIAG_COLORS             ;FIRE UP THE COLORS
         00001d00 00000000! 
     426                    
     427 00001d20                   CREATE  DIAG_PID,CPU_RET
     428 00001da0     09c0          MOVI    INDIAG,A0
         00001db0     ffff  
     429 00001dc0     0580          MOVE    A0,@GAMSTATE,W
         00001dd0 00000000! 
     430 00001df0     c080          JAUC    mainlp
         00001e00 00000000! 
     431                    
     432                    
     433              0019  CPUT_X  .EQU    25      ;TEXT X POSITION
     434              0080  CPUT_Y1 .EQU    128     ;TEXT ROW 1 Y POSITION
     435              008c  CPUT_Y2 .EQU    140     ;TEXT ROW 2 Y POSITION
     436              0098  CPUT_Y3 .EQU    152     ;TEXT ROW 3 Y POSITION
     437          00800019  CPUT_CLR .EQU   [CPUT_Y1,CPUT_X]        ;CLEAR START
     438          002700af  CPUT_CLRS .EQU  [CPUT_Y3-CPUT_Y1+15,200-CPUT_X]
     439                    
     440 00001e20           CPUTEST:        
     441 00001e20     0580          move    a0,@WATCHDOG            ;Reset
         00001e30 01d81070  
     442 00001e50                   FCALL   INITCOLR,B5             ;HEY! IT LOOKS BETTER THIS WAY
     443 00001e90                   FCALL   DSCRCLR,B6              ;BLOW THE SCREEN OR IT LOOKS TOO UGLY
     444                    
     445 00001ed0     5610          CLR     B0
     446 00001ee0     09ed          MOVI    0FFFCH,A13
         00001ef0 0000fffc  
     447 00001f10     058d          MOVE    A13,@SYSCTRL,W          ;MAKE SURE WE'RE WRITING TO BIT MAP
         00001f20 01f00000  
     448 00001f40     09ee          MOVI    VRAMCHIPS,A14           ;VERIFY BIT MAP
         00001f50 000136a0' 
     449 00001f70                   FCALL   RAMCHECK,B5
     450                    
     451                    
     452 00001fb0     09ed          MOVI    PAL_SELECT,A13
         00001fc0 0000ffdc  
     453 00001fe0     058d          MOVE    A13,@SYSCTRL,W
         00001ff0 01f00000  
     454 00002010     09ee          MOVI    PALCHIPS,A14            ;VERIFY OBJECT PALETTE RAM
         00002020 00013a20' 
     455 00002040                   FCALL   RAMCHECK,B5
     456 00002080     4e1c          MOVE    B0,A12
     457                            
     458                    
     459 00002090     09ed          MOVI    0FFFCH,A13
         000020a0 0000fffc  
     460 000020c0     058d          MOVE    A13,@SYSCTRL,W
         000020d0 01f00000  
     461 000020f0                   FCALL   INITCOLR,B5             ;RELOAD THE COLORS
     462 00002130                   FCALL   DSCRCLR,B6
     463                    
TMS340 COFF Macro Assembler Version 6.10     Tue Dec 19 01:45:19 2023
 Copyright (c) 1985-1991  Texas Instruments Incorporated 

                                                                     PAGE   11

     464 00002170                   FCALL   CPUDRAW,B5              ;SHOW THE CPU
     465 000021b0     09ea          MOVI    CPU,A10                 ;WE GOT THIS FAR, CPU MUST BE OK
         000021c0 00011880' 
     466 000021e0     09cb          MOVI    1,A11
         000021f0     0001  
     467 00002200                   FCALL   CHIPOUT,B5
     468                    
     469 00002240     09e9          MOVI    VRAMTAB,A9
         00002250 00012c20' 
     470 00002270                   FCALL   CHIPTABLE,B5            ;PLOT OUT THE CHIP TABLE
     471                    
     472 000022b0     4d8c          MOVE    A12,A12
     473 000022c0     ca0f          JRZ     PSRAMCK
     474 000022d0           PBADRAM
     475 000022d0     09e0          MOVI    RAMBADMESS,A0
         000022e0 000035f0' 
     476 00002300     09e1          MOVI    [CPUT_Y1,CPUT_X],A1
         00002310 00800019  
     477 00002330     5642          CLR     A2
     478 00002340     09c3          MOVI    COLOR_RED,A3
         00002350     0303  
     479 00002360                   FCALL   STRING,B6
     480 000023a0     c000          JRUC    PCPUBAD
         000023b0     00ba  
     481                    
     482 000023c0           PSRAMCK
     483 000023c0     09e0          MOVI    SRAMCHECK,A0
         000023d0 00013c80' 
     484 000023f0     09e1          MOVI    [CPUT_Y1,CPUT_X],A1
         00002400 00800019  
     485 00002420     5642          CLR     A2
     486 00002430     09c3          MOVI    COLOR_YELLOW,A3
         00002440     0505  
     487 00002450                   FCALL   STRING,B6
     488                    
     489 00002490     5610          CLR     B0
     490 000024a0     09ee          MOVI    SRAMCHIPS,A14           ;VERIFY SCRATCH RAMS
         000024b0 00013d30' 
     491 000024d0                   FCALL   RAMCHECK,B5
     492 00002510     4e1c          MOVE    B0,A12
     493                            
     494 00002520     09e0          MOVI    CPUT_CLR,A0
         00002530 00800019  
     495 00002550     09e1          MOVI    CPUT_CLRS,A1
         00002560 002700af  
     496 00002580     09c2          MOVI    COLOR_BLACK,A2
         00002590     1414  
     497 000025a0                   FCALL   RECTANGLE,B6
     498                    
     499 000025e0     4d8c          MOVE    A12,A12
     500 000025f0     cbcd          JRNZ    PBADRAM
     501                    
     502 00002600           PROMCK
     503 00002600     09e0          MOVI    ROMCMESS,A0
         00002610 00003510' 
TMS340 COFF Macro Assembler Version 6.10     Tue Dec 19 01:45:19 2023
 Copyright (c) 1985-1991  Texas Instruments Incorporated 

                                                                     PAGE   12

     504 00002630     09e1          MOVI    [CPUT_Y1,CPUT_X],A1
         00002640 00800019  
     505 00002660     5642          CLR     A2
     506 00002670     09c3          MOVI    COLOR_YELLOW,A3
         00002680     0505  
     507 00002690                   FCALL   STRING,B6
     508                    
     509 000026d0     09e0          MOVI    CPUEXIT1_MESS,A0
         000026e0 00003760' 
     510 00002700     09e1          MOVI    [CPUT_Y2,CPUT_X],A1
         00002710 008c0019  
     511 00002730     5642          CLR     A2
     512 00002740     09c3          MOVI    COLOR_YELLOW,A3
         00002750     0505  
     513 00002760                   FCALL   STRING,B6
     514                    
     515 000027a0     09e0          MOVI    CPUEXIT2_MESS,A0
         000027b0 000037f0' 
     516 000027d0     09e1          MOVI    [CPUT_Y3,CPUT_X],A1
         000027e0 00980019  
     517 00002800     5642          CLR     A2
     518 00002810     09c3          MOVI    COLOR_YELLOW,A3
         00002820     0505  
     519 00002830                   FCALL   STRING,B6
     520                    
     521 00002870     5610          CLR     B0                      ;KEEP THE STATS HERE
     522                    
     523                    
     524                    
     525                    
     526 00002880     09ee          MOVI    PROMCHIPS,A14
         00002890 00015100' 
     527 000028b0                   FCALL   ROMCHECK,B5
     528 000028f0     cb07          JRNZ    PROMABORT
     529                    
     530 00002900     09ee          MOVI    IROMCHIPS,A14
         00002910 00015280' 
     531 00002930                   FCALL   ROMCHECK,B5
     532 00002970           PROMABORT
     533 00002970     4e1c          MOVE    B0,A12
     534 00002980     09e0          MOVI    CPUT_CLR,A0
         00002990 00800019  
     535 000029b0     09e1          MOVI    CPUT_CLRS,A1
         000029c0 002700af  
     536 000029e0     09c2          MOVI    COLOR_BLACK,A2
         000029f0     1414  
     537 00002a00                   FCALL   RECTANGLE,B6
     538                    
     539 00002a40     4d8c          MOVE    A12,A12
     540 00002a50     cb37          JRNZ    PBADROM
     541                    
     542 00002a60           PDMACK
     543 00002a60     09e0          MOVI    DMACMESS,A0
         00002a70 000033e0' 
     544 00002a90     09e1          MOVI    [CPUT_Y1,CPUT_X],A1
TMS340 COFF Macro Assembler Version 6.10     Tue Dec 19 01:45:19 2023
 Copyright (c) 1985-1991  Texas Instruments Incorporated 

                                                                     PAGE   13

         00002aa0 00800019  
     545 00002ac0     5642          CLR     A2
     546 00002ad0     09c3          MOVI    COLOR_YELLOW,A3
         00002ae0     0505  
     547 00002af0                   FCALL   STRING,B6
     548                    
     549 00002b30                   FCALL   DMACHECK,B5             ;CHECK THE DMA
     550 00002b70     09ea          MOVI    DMA,A10
         00002b80 00011950' 
     551 00002ba0     4c0b          MOVE    A0,A11
     552 00002bb0     4c0c          MOVE    A0,A12
     553 00002bc0     102b          INC     A11                     ;GREEN/RED
     554 00002bd0                   FCALL   CHIPOUT,B5
     555                    
     556 00002c10     09e0          MOVI    CPUT_CLR,A0
         00002c20 00800019  
     557 00002c40     09e1          MOVI    CPUT_CLRS,A1
         00002c50 002700af  
     558 00002c70     09c2          MOVI    COLOR_BLACK,A2
         00002c80     1414  
     559 00002c90                   FCALL   RECTANGLE,B6
     560                    
     561 00002cd0     4d8c          MOVE    A12,A12
     562 00002ce0     ca6a          JRZ     PCPUGOOD
     563 00002cf0     09e0          MOVI    DMABADMESS,A0
         00002d00 00003460' 
     564 00002d20     09e1          MOVI    [CPUT_Y1,CPUT_X],A1
         00002d30 00800019  
     565 00002d50     5642          CLR     A2
     566 00002d60     09c3          MOVI    COLOR_RED,A3
         00002d70     0303  
     567 00002d80                   FCALL   STRING,B6
     568 00002dc0     c019          JRUC    PCPUBAD
     569                    
     570 00002dd0           PBADROM
     571 00002dd0     09e0          MOVI    CPUT_CLR,A0
         00002de0 00800019  
     572 00002e00     09e1          MOVI    CPUT_CLRS,A1
         00002e10 002700af  
     573 00002e30     09c2          MOVI    COLOR_BLACK,A2
         00002e40     1414  
     574 00002e50                   FCALL   RECTANGLE,B6
     575 00002e90     09e0          MOVI    ROMBADMESS,A0
         00002ea0 00003580' 
     576 00002ec0     09e1          MOVI    [CPUT_Y1,CPUT_X],A1
         00002ed0 00800019  
     577 00002ef0     5642          CLR     A2
     578 00002f00     09c3          MOVI    COLOR_RED,A3
         00002f10     0303  
     579 00002f20                   FCALL   STRING,B6
     580                    
     581 00002f60           PCPUBAD
     582 00002f60     09e0          MOVI    CPUPAUSE,A0
         00002f70 000036d0' 
     583 00002f90     09e1          MOVI    [CPUT_Y2,CPUT_X],A1
TMS340 COFF Macro Assembler Version 6.10     Tue Dec 19 01:45:19 2023
 Copyright (c) 1985-1991  Texas Instruments Incorporated 

                                                                     PAGE   14

         00002fa0 008c0019  
     584 00002fc0     5642          CLR     A2
     585 00002fd0     09c3          MOVI    COLOR_RED,A3
         00002fe0     0303  
     586 00002ff0                   FCALL   STRING,B6
     587                    
     588 00003030           PCPUWAIT
     589 00003030     0580          move    a0,@WATCHDOG            ;Reset
         00003040 01d81070  
     590                    
     591                            .IF     TUNIT
     592 00003060     09e0          MOVI    CPU_ERROR_SND,A0
         00003070 0000ff92  
     593 00003090     0580          MOVE    A0,@SOUND,W
         000030a0 01d01030  
     594                            .ELSE
     595                            MOVI    0FD00H|CPU_ERROR_SND,A0
     596                            MOVE    A0,@SOUND,W
     597                            MOVI    0FF00H|CPU_ERROR_SND,A0
     598                            MOVE    A0,@SOUND,W             ; LET HIM HEAR IT
     599                            .ENDIF
     600                    
     601 000030c0     4fa5          MOVE    A13,B5
     602 000030d0                   PAUSE   10000,B6
     603 00003120                   FCALL   fudge_switches_diag,B6
     604 00003160     0b80          andi    BUTTONS|START_BITS,a0
         00003170 f9db0f0f  
     605 00003190     4e01          MOVE    A0,B1
     606 000031a0     09d0          MOVI    -1,B0                   ; ASSUME DON'T TIMEOUT
         000031b0     ffff  
     607 000031c0     0b6f          CMPI    DIAGSP,SP
         000031d0 ffffe38f' 
     608 000031f0     ca07          JRZ     PCPUTMP1
     609 00003200     0b6f          CMPI    BURNSP,SP
         00003210 ffffe54f' 
     610 00003230     ca03          JRZ     PCPUTMP1
     611 00003240     09f0          MOVI    200000H,B0
         00003250 00200000  
     612 00003270           PCPUTMP1
     613 00003270     0580          move    a0,@WATCHDOG            ;Reset
         00003280 01d81070  
     614 000032a0     4c10          MOVE    B0,B0
     615 000032b0     ce02          JRN     PCPUNOTIMEOUT
     616 000032c0     1430          DEC     B0
     617 000032d0     ca0d          JRZ     PCPURET                 ; TIMEOUT HERE
     618 000032e0           PCPUNOTIMEOUT
     619 000032e0                   FCALL   fudge_switches_diag,B6
     620 00003320     0b80          andi    BUTTONS|START_BITS,a0
         00003330 f9db0f0f  
     621 00003350     4e31          MOVE    B1,A1
     622 00003360     4801          CMP     A0,A1
     623 00003370     cb03          JRNZ    PCPURET
     624 00003380     c0ee          JRUC    PCPUTMP1
     625 00003390           PCPUGOOD
     626 00003390     5600          CLR     A0
TMS340 COFF Macro Assembler Version 6.10     Tue Dec 19 01:45:19 2023
 Copyright (c) 1985-1991  Texas Instruments Incorporated 

                                                                     PAGE   15

     627 000033a0     c001          JRUC    PCPUREALRET
     628 000033b0           PCPURET
     629 000033b0     1820          MOVK    1,A0
     630 000033c0           PCPUREALRET
     631 000033c0     4c00          MOVE    A0,A0
     632 000033d0                   FRET    SP
     633                    
     634 000033e0           DMACMESS
     635 000033e0       43          .STRING "CHECKING CUSTOM",0
     636 00003460                   .EVEN
     637 00003460           DMABADMESS
     638 00003460       43          .STRING "CUSTOM CHIP UE13 BAD",0
     639 00003510                   .EVEN
     640                    
     641 00003510           ROMCMESS
     642 00003510       43          .STRING "CHECKING ROMS",0
     643 00003580                   .EVEN
     644 00003580           ROMBADMESS
     645 00003580       52          .STRING "ROM CHIPS BAD",0
     646 000035f0                   .EVEN
     647                    
     648 000035f0           RAMBADMESS
     649 000035f0       52          .STRING "RAM CHIPS BAD",0
     650 00003660                   .EVEN
     651                    
     652 00003660           CPUGOOD
     653 00003660       43          .STRING "CPU BOARD OK",0
     654 000036d0                   .EVEN
     655                    
     656 000036d0           CPUPAUSE
     657 000036d0       50          .STRING "PRESS ANY BUTTON",0
     658 00003760                   .EVEN
     659                    
     660 00003760           CPUEXIT1_MESS
     661 00003760       48          .STRING "HOLD START BUTTON",0
     662 000037f0                   .EVEN
     663 000037f0           CPUEXIT2_MESS
     664 000037f0       54          .STRING "TO EXIT.",0
     665 00003840                   .EVEN
     666                    
     667                    
     668                    
     669 00003840           CPUDRAW:
     670 00003840     09e9          MOVI    CPU_VECS,A9             ; POINT AT VECTOR TABLE
         00003850 00010b40' 
     671 00003870           CPUDLP1
     672 00003870     9522          MOVE    *A9+,A2,W               ; GET COLOR
     673 00003880     ca07          JRZ     CPUD1
     674 00003890     9720          MOVE    *A9+,A0,L               ; START POINT
     675 000038a0     9721          MOVE    *A9+,A1,L               ; END POINT
     676 000038b0                   FCALL   HVLINE,B6
     677 000038f0     c0f7          JRUC    CPUDLP1
     678 00003900           CPUD1
     679 00003900     4ebd          MOVE    B5,A13
     680 00003910                   FCALL   CHIPPLOT,B5             ; PLOT ALL THE CHIPS
TMS340 COFF Macro Assembler Version 6.10     Tue Dec 19 01:45:19 2023
 Copyright (c) 1985-1991  Texas Instruments Incorporated 

                                                                     PAGE   16

     681 00003950     09e0          MOVI    BOARDSTRING,A0
         00003960 00003ae0' 
     682 00003980     09e1          MOVI    [25,11],A1
         00003990 0019000b  
     683 000039b0     5642          CLR     A2
     684 000039c0     09c3          MOVI    COLOR_WHITE,A3
         000039d0     0202  
     685 000039e0                   FCALL   STRING,B6
     686 00003a20     09e0          MOVI    BOARDSTRING2,A0
         00003a30 00003b50' 
     687 00003a50     09e1          MOVI    [37,13],A1
         00003a60 0025000d  
     688 00003a80                   FCALL   STRING,B6
     689 00003ac0     4fa5          MOVE    A13,B5
     690 00003ad0                   FRET    B5
     691                    
     692 00003ae0           BOARDSTRING     
     693 00003ae0       41          .STRING "A-14816-40043",0
     694 00003b50                   .EVEN
     695                    
     696 00003b50           BOARDSTRING2
     697 00003b50       4e          .STRING "NBA JAM T.E.",0
     698 00003bc0                   .EVEN
     699                    
     700                    
     701 00003bc0           CHIPTABLE:
     702 00003bc0     4ebe          MOVE    B5,A14
     703 00003bd0           CTABLOOP
     704 00003bd0     972a          MOVE    *A9+,A10,L              ; GET POINTER TO CHIP RECORD
     705 00003be0     ca0b          JRZ     CTABDONE
     706 00003bf0     182b          MOVK    1,A11
     707 00003c00     b540          MOVE    *A10(CMNUM),A0,W        ; GET THE BIT NUMBER
         00003c10     0000  
     708 00003c20     4a0c          BTST    A0,A12                  ; CHECK BIT NUMBER
     709 00003c30     ca01          JRZ     CTABL2
     710 00003c40     184b          MOVK    2,A11
     711 00003c50           CTABL2
     712 00003c50                   FCALL   CHIPOUT,B5
     713 00003c90     c0f3          JRUC    CTABLOOP
     714                    
     715 00003ca0           CTABDONE
     716 00003ca0     4fc5          MOVE    A14,B5
     717 00003cb0                   FRET    B5
     718                            
     719                    
     720 00003cc0           CHIPPLOT:
     721 00003cc0     4ebe          MOVE    B5,A14
     722 00003cd0     09ea          MOVI    CPU_CHIPS,A10
         00003ce0 00011060' 
     723 00003d00           CPPLOTLOOP
     724 00003d00     576b          CLR     A11
     725 00003d10     8740          MOVE    *A10,A0,L
     726 00003d20     ca07          JRZ     CPPLOTDONE
     727 00003d30                   FCALL   CHIPOUT,B5
     728 00003d70     0b0a          ADDI    CMEND,A10
TMS340 COFF Macro Assembler Version 6.10     Tue Dec 19 01:45:19 2023
 Copyright (c) 1985-1991  Texas Instruments Incorporated 

                                                                     PAGE   17

         00003d80     00d0  
     729 00003d90     c0f6          JRUC    CPPLOTLOOP
     730                    
     731 00003da0           CPPLOTDONE
     732 00003da0     4fc5          MOVE    A14,B5
     733 00003db0                   FRET    B5
     734                            
     735                                    
     736 00003dc0           CHIPOUT:
     737 00003dc0     b745          MOVE    *A10(CMLOC),A5,L        ; CHIP OUTLINE
         00003dd0     0010  
     738 00003de0     4ca6          MOVE    A5,A6
     739 00003df0     4ca7          MOVE    A5,A7
     740 00003e00     4ca8          MOVE    A5,A8
     741 00003e10     b540          MOVE    *A10(CMXSIZE),A0,W
         00003e20     0030  
     742 00003e30     4006          ADD     A0,A6
     743 00003e40     4007          ADD     A0,A7
     744 00003e50     b540          MOVE    *A10(CMYSIZE),A0,W
         00003e60     0040  
     745 00003e70     2600          SLL     16,A0
     746 00003e80     4007          ADD     A0,A7
     747 00003e90     4008          ADD     A0,A8
     748 00003ea0     4ca0          MOVE    A5,A0
     749 00003eb0     4cc1          MOVE    A6,A1
     750 00003ec0     09c2          MOVI    COLOR_WHITE,A2
         00003ed0     0202  
     751 00003ee0                   FCALL   HVLINE,B6
     752 00003f20     4cc0          MOVE    A6,A0
     753 00003f30     4ce1          MOVE    A7,A1
     754 00003f40     0b21          ADDI    [1,0],A1
         00003f50 00010000  
     755 00003f70     09c2          MOVI    COLOR_WHITE,A2
         00003f80     0202  
     756 00003f90                   FCALL   HVLINE,B6
     757 00003fd0     4d00          MOVE    A8,A0
     758 00003fe0     4ce1          MOVE    A7,A1
     759 00003ff0     09c2          MOVI    COLOR_WHITE,A2
         00004000     0202  
     760 00004010                   FCALL   HVLINE,B6
     761 00004050     4ca0          MOVE    A5,A0
     762 00004060     4d01          MOVE    A8,A1
     763 00004070     09c2          MOVI    COLOR_WHITE,A2
         00004080     0202  
     764 00004090                   FCALL   HVLINE,B6
     765 000040d0     b540          MOVE    *A10(CMSTUFFED),A0,W    ; CHECK FOR STUFFED
         000040e0     00c0  
     766 000040f0     cb01          JRNZ    CONOSTUF
     767 00004100     186b          MOVK    3,A11                   ; WANT IT GREY, DUDE
     768                    
     769 00004110           CONOSTUF
     770 00004110     4d6b          MOVE    A11,A11                 ; CHECK FOR FILLING THE CHIP
     771 00004120     ca14          JRZ     CONOFILL
     772 00004130     b740          MOVE    *A10(CMLOC),A0,L
         00004140     0010  
TMS340 COFF Macro Assembler Version 6.10     Tue Dec 19 01:45:19 2023
 Copyright (c) 1985-1991  Texas Instruments Incorporated 

                                                                     PAGE   18

     773 00004150     0b20          ADDI    00010001H,A0
         00004160 00010001  
     774 00004180     b741          MOVE    *A10(CMSIZE),A1,L
         00004190     0030  
     775 000041a0     0d01          SUBI    00010001H,A1            ; GET INTERNAL AREA
         000041b0 fffefffe  
     776 000041d0     4d62          MOVE    A11,A2
     777 000041e0     2482          SLL     4,A2
     778 000041f0     0b22          ADDI    CHIPCOLORS,A2
         00004200 00004440' 
     779 00004220     8442          MOVE    *A2,A2,W                ; GET ME A COLOR
     780 00004230                   FCALL   RECTANGLE,B6
     781 00004270           CONOFILL
     782 00004270     b741          MOVE    *A10(CMPINLOC),A1,L     ; PIN LOCATION
         00004280     00a0  
     783 00004290     4ca0          MOVE    A5,A0
     784 000042a0     4020          ADD     A1,A0
     785 000042b0     09c1          MOVI    COLOR_WHITE,A1
         000042c0     0202  
     786 000042d0                   FCALL   POINT,B6
     787                    
     788 00004310     b740          MOVE    *A10(CMSTRING),A0,L     ; CHIP TEXT
         00004320     0070  
     789 00004330     4ca1          MOVE    A5,A1
     790 00004340     b742          MOVE    *A10(CMOFFSET),A2,L
         00004350     0050  
     791 00004360     4041          ADD     A2,A1
     792 00004370     b542          MOVE    *A10(CMDIR),A2,W
         00004380     0090  
     793 00004390     09c3          MOVI    COLOR_BLACK,A3
         000043a0     1414  
     794 000043b0     4d6b          MOVE    A11,A11                 ; CHECK FOR COLOR
     795 000043c0     cb02          JRNZ    COBLACK
     796 000043d0     09c3          MOVI    COLOR_WHITE,A3
         000043e0     0202  
     797 000043f0           COBLACK
     798 000043f0                   FCALL   STRING,B6
     799 00004430                   FRET    B5
     800                    
     801 00004440           CHIPCOLORS:
     802 00004440     1414          .WORD   COLOR_BLACK
     803 00004450     0606          .WORD   COLOR_GREEN
     804 00004460     0303          .WORD   COLOR_RED
     805 00004470     0101          .WORD   COLOR_GREY
     806                    
     807 00004480           DMACHECK
     808 00004480     0570          setf    16,1,0
     809                    
     810 00004490     0580          move    a0,@WATCHDOG            ;Reset
         000044a0 01d81070  
     811 000044c0     57ce          CLR     A14
     812 000044d0     058e          MOVE    A14,@DMACTRL,W
         000044e0 01a80010  
     813 00004500     058e          MOVE    A14,@DMACTRL,W
         00004510 01a80010  
TMS340 COFF Macro Assembler Version 6.10     Tue Dec 19 01:45:19 2023
 Copyright (c) 1985-1991  Texas Instruments Incorporated 

                                                                     PAGE   19

     814                    
     815 00004530     1a0e          MOVK    DMACF4,A14
     816 00004540     058e          MOVE    A14,@DMACONF,W          ;ADJUST WINDOW RIGHT/LEFT BORDER
         00004550 01a800f0  
     817 00004570     09ee          MOVI    [511,0],A14
         00004580 01ff0000  
     818 000045a0     078e          MOVE    A14,@DMAWINDOW,L        ;OPEN LEFT TO RIGHT
         000045b0 01a800c0  
     819 000045d0     09ce          MOVI    DMAWIN|DMACF4,A14
         000045e0     0030  
     820 000045f0     058e          MOVE    A14,@DMACONF,W          ;ADJUST WINDOW RIGHT/LEFT BORDER
         00004600 01a800f0  
     821 00004620     09ee          MOVI    [511,0],A14
         00004630 01ff0000  
     822 00004650     078e          MOVE    A14,@DMAWINDOW,L        ;FULL HEIGHT WINDOW
         00004660 01a800c0  
     823 00004680     09ee          MOVI    [100H,100H],A14
         00004690 01000100  
     824 000046b0     058e          MOVE    A14,@DMASCALEX
         000046c0 01a800a0  
     825                    
     826 000046e0     09ee          MOVI    [1,448],A14             ;BLOW OUT TRADEMARK
         000046f0 000101c0  
     827 00004710     078e          MOVE    A14,@DMAHSIZE,L
         00004720 01a80060  
     828                    
     829 00004740     57ce          CLR     A14
     830 00004750     058e          MOVE    A14,@DMAOFFST,W         ;OFFSET
         00004760 01a80000  
     831 00004780     058e          MOVE    A14,@DMACONST,W         ;CONSTANT
         00004790 01a80090  
     832 000047b0     078e          MOVE    A14,@DMAHORIZ,L         ;CLEAR DESTINATION ADDRESS
         000047c0 01a80040  
     833                    
     834 000047e0     09ee          MOVI    2000000H,A14            ;DMA LOGO LOCATION
         000047f0 02000000  
     835 00004810     078e          MOVE    A14,@DMASAGL,L
         00004820 01a80020  
     836                    
     837 00004840     09ce          MOVI    257,A14
         00004850     0101  
     838 00004860     058e          MOVE    A14,@DMAVERT,W          ;OFFSCREEN PLOT
         00004870 01a80050  
     839                    
     840 00004890     09ce          MOVI    0505H,A14
         000048a0     0505  
     841 000048b0     058e          MOVE    A14,@DMACMAP,W
         000048c0 01a80080  
     842                    
     843 000048e0     09ee          MOVI    8003H,A14               ;USE IMAGE ROM - WRITE ALWAYS
         000048f0 00008003  
     844 00004910     058e          MOVE    A14,@DMACTRL,W          ;KICK OFF THE DMA
         00004920 01a80010  
     845                    
     846 00004940     09ce          MOVI    7FFFH,A14               ;LOAD TIMEOUT COUNTER
TMS340 COFF Macro Assembler Version 6.10     Tue Dec 19 01:45:19 2023
 Copyright (c) 1985-1991  Texas Instruments Incorporated 

                                                                     PAGE   20

         00004950     7fff  
     847 00004960           DMACWAIT
     848 00004960     0580          move    a0,@WATCHDOG            ;Reset
         00004970 01d81070  
     849 00004990     05a0          MOVE    @DMACTRL,A0,W           ;DMA BUSY?
         000049a0 01a80010  
     850 000049c0     cf02          JRNN    DMADONE                 ;BR = NO, TIME TO CHECK
     851 000049d0     3d0e          DSJS    A14,DMACWAIT
     852 000049e0     c025          JRUC    DMACBAD                 ;DMA TIMED OUT
     853                    
     854 000049f0           DMADONE
     855 000049f0     5600          CLR     A0                      ;GET BACK TO A REAL PALETTE
     856 00004a00     0580          MOVE    A0,@DMACMAP,W
         00004a10 01a80080  
     857 00004a30     09e0          MOVI    0101000H,A0             ;LINEAR SCREEN LOCATION OF DATA
         00004a40 00101000  
     858 00004a60     09e1          MOVI    2000000H,A1             ;DMA LOGO LOCATION
         00004a70 02000000  
     859 00004a90     09c2          MOVI    448,A2                  ;NUMBER OF BYTES TO COMPARE
         00004aa0     01c0  
     860 00004ab0           DMACLOOP             
     861 00004ab0     8e03          MOVB    *A0,A3                  ;DESTINATION BYTE
     862 00004ac0     8e24          MOVB    *A1,A4                  ;SOURCE BYTE
     863 00004ad0     1100          ADDK    8,A0
     864 00004ae0     1101          ADDK    8,A1
     865 00004af0     4864          CMP     A3,A4
     866 00004b00     cb13          JRNZ    DMACBAD                 ;BR = DATA ERROR
     867 00004b10     3ce2          DSJS    A2,DMACLOOP
     868 00004b20     09ed          MOVI    PAL_SELECT,A13
         00004b30 0000ffdc  
     869 00004b50     058d          MOVE    A13,@SYSCTRL,W          ;ENABLE PALETTE
         00004b60 01f00000  
     870                    
     871 00004b80     09e0          MOVI    0101000H,A0             ;LOCATION
         00004b90 00101000  
     872 00004bb0     09c2          MOVI    224,A2                  ;NUMBER OF WORDS TO COMPARE
         00004bc0     00e0  
     873 00004bd0           DMACLOOP2
     874 00004bd0     9403          MOVE    *A0+,A3,W
     875 00004be0     0b43          CMPI    0505H,A3
         00004bf0     fafa  
     876 00004c00     cb03          JRNZ    DMACBAD
     877 00004c10     3ca2          DSJS    A2,DMACLOOP2
     878 00004c20     5600          CLR     A0
     879 00004c30     c00b          JRUC    DMACRET
     880 00004c40           DMACBAD
     881 00004c40     5600          CLR     A0                      ;GET BACK TO A REAL PALETTE
     882 00004c50     0580          MOVE    A0,@DMACTRL,W
         00004c60 01a80010  
     883 00004c80     0580          MOVE    A0,@DMACTRL,W
         00004c90 01a80010  
     884 00004cb0     0580          MOVE    A0,@DMACMAP,W
         00004cc0 01a80080  
     885 00004ce0     1820          MOVK    1,A0
     886 00004cf0           DMACRET
TMS340 COFF Macro Assembler Version 6.10     Tue Dec 19 01:45:19 2023
 Copyright (c) 1985-1991  Texas Instruments Incorporated 

                                                                     PAGE   21

     887 00004cf0     09ed          MOVI    0FFFCH,A13
         00004d00 0000fffc  
     888 00004d20     058d          MOVE    A13,@SYSCTRL,W
         00004d30 01f00000  
     889                    
     890 00004d50     0550          SETF    16,0,0
     891                    
     892 00004d60     4c00          MOVE    A0,A0
     893 00004d70                   FRET    B5
     894                    
     895                    
     896              8000  DOG_COUNT       .EQU    8000H   ;EVERY 32K
     897                            .align
     898                    
     899 00004e00           RAMCHECK:
     900 00004e00     0580          move    a0,@WATCHDOG            ;Reset
         00004e10 01d81070  
     901 00004e30     0550          SETF    16,0,0
     902 00004e40     0740          SETF    32,0,1
     903                    
     904                    
     905 00004e50           RAMLOOP:
     906 00004e50     5652          CLR     B2
     907 00004e60     b7cc          MOVE    *A14(RAM_SADR),A12,L    ; STARTING ADDRESS
         00004e70     0030  
     908 00004e80     b7cd          MOVE    *A14(RAM_EADR),A13,L    ; ENDING ADDRESS
         00004e90     0050  
     909 00004ea0     b5cb          MOVE    *A14(RAM_ITLV),A11,W    ; INTERLEAVE
         00004eb0     0010  
     910 00004ec0     b5ca          MOVE    *A14(RAM_WDTH),A10,W    ; WIDTH
         00004ed0     0000  
     911                    
     912                    
     913 00004ee0     458d          SUB     A12,A13                   ; (END-START)/INTERLEAVE+1
     914 00004ef0     5b6d          DIVU    A11,A13
     915 00004f00     102d          INC     A13
     916                    
     917                    
     918 00004f10     4d69          MOVE    A11,A9                  ; FS1 = INTERLEAVE
     919 00004f20     0b89          ANDI    ZERO_EXTEND,A9
         00004f30 ffffffe0  
     920 00004f50     d709          EXGF    A9,1
     921                    
     922 00004f60     4d49          MOVE    A10,A9                  ; FS0 = WIDTH
     923 00004f70     0b89          ANDI    ZERO_EXTEND,A9
         00004f80 ffffffe0  
     924 00004fa0     d509          EXGF    A9,0
     925                    
     926                    
     927 00004fb0     4da9          MOVE    A13,A9                    ; XEROX COUNT
     928 00004fc0     4d88          MOVE    A12,A8                    ; XEROX START
     929                    
     930 00004fd0     09e7          MOVI    RANDOM_SEED,A7
         00004fe0 5a5a5a5a  
     931 00005000     56a5          CLR     A5
TMS340 COFF Macro Assembler Version 6.10     Tue Dec 19 01:45:19 2023
 Copyright (c) 1985-1991  Texas Instruments Incorporated 

                                                                     PAGE   22

     932 00005010     09fe          MOVI    DOG_COUNT,B14
         00005020 00008000  
     933                    
     934 00005040           RAC1
     935 00005040     2027          SLA     1,A7                    ; GENERATE A PSEUDO
     936 00005050     cc02          JRV     RAC2                    ; RANDOM NUMBER
     937 00005060     1844          movk    2,a4
     938 00005070     5487          or      a4,a7
     939 00005080           RAC2
     940 00005080     4ce6          MOVE    A7,A6
     941 00005090     42a6          ADDC    A5,A6
     942                    
     943 000050a0     92c8          MOVE    A6,*A8+,1               ; WRITE
     944 000050b0     38de          DSJS    B14,RAC1_NODOG
     945 000050c0     05e0          movb    a0,@WATCHDOG            ;Reset
         000050d0 01d81070  
     946 000050f0     09fe          MOVI    DOG_COUNT,B14           ;AND RELOAD COUNT
         00005100 00008000  
     947 00005120           RAC1_NODOG
     948 00005120     3de9          DSJS    A9,RAC1
     949                    
     950                                                            ;READBACK IN ASCENDING ORDER
     951 00005130     4da9          MOVE    A13,A9                  ; XEROX COUNT
     952 00005140     4d88          MOVE    A12,A8                  ; XEROX START
     953                    
     954 00005150     09e7          MOVI    RANDOM_SEED,A7
         00005160 5a5a5a5a  
     955 00005180     09fe          MOVI    DOG_COUNT,B14
         00005190 00008000  
     956                    
     957 000051b0     2027  RAC3    SLA     1,A7                    ; GENERATE A PSEUDO
     958 000051c0     cc02          JRV     RAC4                    ; RANDOM NUMBER
     959 000051d0     1844          movk    2,a4
     960 000051e0     5487          or      a4,a7
     961 000051f0     4ce6  RAC4    MOVE    A7,A6
     962 00005200     42a6          ADDC    A5,A6
     963                    
     964 00005210     8504          move    *a8,a4,0                ;Read
     965 00005220     4168          add     a11,a8
     966 00005230     0526          ZEXT    A6
     967                    
     968 00005240     48c4          CMP     A6,A4
     969 00005250     cb09          jrne    rac5                    ;Error?
     970                    
     971 00005260     38de          DSJS    B14,RAC5_NODOG
     972 00005270     05e0          movb    a0,@WATCHDOG            ;Reset
         00005280 01d81070  
     973 000052a0     09fe          MOVI    DOG_COUNT,B14           ;AND RELOAD COUNT
         000052b0 00008000  
     974 000052d0           RAC5_NODOG
     975 000052d0     3e69          DSJS    A9,RAC3
     976                    
     977 000052e0     c008          jruc    showstat
     978                    
     979 000052f0           rac5                                    ;Error!
TMS340 COFF Macro Assembler Version 6.10     Tue Dec 19 01:45:19 2023
 Copyright (c) 1985-1991  Texas Instruments Incorporated 

                                                                     PAGE   23

     980 000052f0     0550          SETF    16,0,0                  ; RESET FIELDS
     981 00005300     0740          SETF    32,0,1
     982 00005310     b5c4          MOVE    *A14(RAM_NMBR),A4,W     ; GET BIT NUMBER TO SET
         00005320     0020  
     983 00005330     4e81          MOVE    A4,B1
     984 00005340     1832          MOVK    1,B2
     985 00005350     6232          SLL     B1,B2
     986 00005360     5450          OR      B2,B0                   ; SET THAT BIT
     987                    
     988                    
     989 00005370           showstat
     990 00005370     0550          SETF    16,0,0                  ; RESET FIELDS
     991 00005380     0740          SETF    32,0,1
     992 00005390     0580          move    a0,@WATCHDOG            ;Reset
         000053a0 01d81070  
     993                    
     994                    
     995                    
     996 000053c0     b7ca          MOVE    *A14(RAM_LINK),A10,L
         000053d0     0070  
     997 000053e0     ca0c          JRZ     RAMNOPLOT
     998 000053f0     182b          MOVK    1,A11
     999 00005400     4c52          MOVE    B2,B2
    1000 00005410     ca01          JRZ     RAMPLOT
    1001 00005420     184b          MOVK    2,A11
    1002 00005430           RAMPLOT
    1003 00005430     4eb9          MOVE    B5,A9                   ; I HOPE THIS ONE IS SAFE!
    1004 00005440     4e1d          MOVE    B0,A13
    1005 00005450                   FCALL   CHIPOUT,B5
    1006 00005490     4fa0          MOVE    A13,B0
    1007 000054a0     4f25          MOVE    A9,B5
    1008                    
    1009 000054b0           RAMNOPLOT
    1010 000054b0     0b0e          ADDI    RAM_SIZE,A14            ; ADVANCE TO NEXT GUY
         000054c0     0090  
    1011 000054d0     85c7          MOVE    *A14,A7,W
    1012 000054e0     cb96          JRNZ    RAMLOOP                 ; HERE WE GO AGAIN
    1013 000054f0                   FRET    B5
    1014                    
    1015                    
    1016                            .align
    1017                    
    1018 00005600           ROMCHECK:
    1019 00005600     0580          move    a0,@WATCHDOG            ;Reset
         00005610 01d81070  
    1020 00005630           ROMLOOP 
    1021 00005630     5652          CLR     B2
    1022 00005640     b7cd          MOVE    *A14(ROM_CKSM),A13,L    ; CHECK TO SEE IF ROM SOCKET THERE
         00005650     0000  
    1023 00005660     ca47          JRZ     ROMEMPTY
    1024 00005670     5708          CLR     A8                      ; CHECKSUM
    1025                    
    1026 00005680     09fe          MOVI    DOG_COUNT,B14
         00005690 00008000  
    1027                    
TMS340 COFF Macro Assembler Version 6.10     Tue Dec 19 01:45:19 2023
 Copyright (c) 1985-1991  Texas Instruments Incorporated 

                                                                     PAGE   24

    1028 000056b0     b7cc          MOVE    *A14(ROM_SADR),A12,L    ; STARTING ADDRESS
         000056c0     0040  
    1029 000056d0     b7cd          MOVE    *A14(ROM_EADR),A13,L    ; ENDING ADDRESS
         000056e0     0060  
    1030 000056f0     b5cb          MOVE    *A14(ROM_ITLV),A11,W    ; INTERLEAVE
         00005700     0020  
    1031 00005710     458d          SUB     A12,A13                 ; (( EADDR - SADDR ) / INTERLEAVE) + 1
    1032 00005720     5b6d          DIVU    A11,A13
    1033 00005730     102d          INC     A13
    1034 00005740     0748          setf    8,0,1
    1035 00005750           rcilp
    1036 00005750     8787          move    *a12,a7,1               ;Get a byte
    1037 00005760     416c          add     a11,a12
    1038 00005770     40e8          add     a7,a8
    1039 00005780     38de          dsjs    b14,rcilp_nodog
    1040 00005790     0580          move    a0,@WATCHDOG            ;Reset
         000057a0 01d81070  
    1041 000057c0     09fe          movi    DOG_COUNT,b14           ;AND RELOAD COUNT
         000057d0 00008000  
    1042 000057f0           rcilp_nodog
    1043 000057f0     3d6d          dsjs    a13,rcilp
    1044                    
    1045 00005800     0740          setf    32,0,1
    1046                    
    1047 00005810     b5c7          MOVE    *A14(ROM_CKSM),A7,W
         00005820     0000  
    1048 00005830           ROM_COMPARE
    1049 00005830     0527          ZEXT    A7
    1050 00005840     0528          ZEXT    A8
    1051 00005850     48e8          CMP     A7,A8
    1052 00005860     ca06          JRZ     ROMRELOOP
    1053 00005870     b5c4          MOVE    *A14(ROM_NMBR),A4,W     ; GET BIT NUMBER TO SET
         00005880     0030  
    1054 00005890     4e81          MOVE    A4,B1
    1055 000058a0     1832          MOVK    1,B2
    1056 000058b0     6232          SLL     B1,B2
    1057 000058c0     5450          OR      B2,B0                   ; SET THAT BIT
    1058 000058d0           ROMRELOOP
    1059 000058d0     0580          move    a0,@WATCHDOG            ;Reset
         000058e0 01d81070  
    1060 00005900     b7ca          MOVE    *A14(ROM_LINK),A10,L
         00005910     0080  
    1061 00005920     ca0c          JRZ     ROMNOPLOT
    1062 00005930     182b          MOVK    1,A11
    1063 00005940     4c52          MOVE    B2,B2
    1064 00005950     ca01          JRZ     ROMPLOT
    1065 00005960     184b          MOVK    2,A11
    1066 00005970           ROMPLOT
    1067 00005970     4eb9          MOVE    B5,A9                   ; I HOPE THIS ONE IS SAFE!
    1068 00005980     4e1d          MOVE    B0,A13
    1069 00005990                   FCALL   CHIPOUT,B5
    1070 000059d0     4fa0          MOVE    A13,B0
    1071 000059e0     4f25          MOVE    A9,B5
    1072                    
    1073 000059f0           ROMNOPLOT
TMS340 COFF Macro Assembler Version 6.10     Tue Dec 19 01:45:19 2023
 Copyright (c) 1985-1991  Texas Instruments Incorporated 

                                                                     PAGE   25

    1074 000059f0     0b0e          ADDI    ROM_SIZE,A14
         00005a00     00a0  
    1075 00005a10     07ad          MOVE    @SWITCH,A13,L
         00005a20 01600000  
    1076 00005a40     0b8d          ANDI    START_BITS,A13
         00005a50 f9dbffff  
    1077 00005a70     0b6d          CMPI    START_BITS,A13
         00005a80 f9dbffff  
    1078 00005aa0     cb01          JRNE    ROMABORT
    1079 00005ab0     c0b7          JRUC    ROMLOOP                 ;BACK FOR THE NEXT
    1080 00005ac0           ROMABORT
    1081 00005ac0                   CLRZ
    1082 00005ae0           ROMEMPTY
    1083 00005ae0                   FRET    B5
    1084                    
    1085                    
    1086 00005af0           CROSS_H
    1087 00005af0           CONV_PLOT
    1088 00005af0     09e9          MOVI    MON_RECS,A9
         00005b00 000061b0' 
    1089 00005b20           CPRLP1
    1090 00005b20     9522          MOVE    *A9+,A2,W               ; GET COLOR
    1091 00005b30     ca07          JRZ     CPRDONE
    1092 00005b40     9720          MOVE    *A9+,A0,L               ; START POINT
    1093 00005b50     9721          MOVE    *A9+,A1,L               ; DIMENSIONS
    1094 00005b60                   FCALL   RECTANGLE,B6
    1095 00005ba0     c0f7          JRUC    CPRLP1
    1096 00005bb0           CPRDONE
    1097 00005bb0     09e9          MOVI    MON_VECS,A9             ; POINT AT VECTOR TABLE
         00005bc0 00005d30' 
    1098 00005be0           CPVLP1
    1099 00005be0     9522          MOVE    *A9+,A2,W               ; GET COLOR
    1100 00005bf0     ca07          JRZ     CPVDONE
    1101 00005c00     9720          MOVE    *A9+,A0,L               ; START POINT
    1102 00005c10     9721          MOVE    *A9+,A1,L               ; END POINT
    1103 00005c20                   FCALL   HVLINE,B6
    1104 00005c60     c0f7          JRUC    CPVLP1
    1105 00005c70           CPVDONE
    1106 00005c70     09e9          MOVI    MON_DOTS,A9             ; POINT AT DOT TABLE
         00005c80 00006450' 
    1107 00005ca0           CPDLP1
    1108 00005ca0     9521          MOVE    *A9+,A1,W               ; GET COLOR
    1109 00005cb0     ca06          JRZ     CPDDONE
    1110 00005cc0     9720          MOVE    *A9+,A0,L               ; GET THE POINT
    1111 00005cd0                   FCALL   POINT,B6
    1112 00005d10     c0f8          JRUC    CPDLP1
    1113 00005d20           CPDDONE
    1114 00005d20     0960          RETS
    1115                    
    1116 00005d30           MON_VECS:
    1117 00005d30                   VECMAC  ROBO_WHITE,004,004,390,004
    1118 00005d80                   VECMAC  ROBO_WHITE,004,004,004,250
    1119 00005dd0                   VECMAC  ROBO_WHITE,004,250,390,250
    1120 00005e20                   VECMAC  ROBO_WHITE,390,250,390,004
    1121 00005e70                   VECMAC  ROBO_WHITE,060,005,060,250
TMS340 COFF Macro Assembler Version 6.10     Tue Dec 19 01:45:19 2023
 Copyright (c) 1985-1991  Texas Instruments Incorporated 

                                                                     PAGE   26

    1122 00005ec0                   VECMAC  ROBO_WHITE,115,005,115,250
    1123 00005f10                   VECMAC  ROBO_WHITE,170,005,170,250
    1124 00005f60                   VECMAC  ROBO_WHITE,225,005,225,250
    1125 00005fb0                   VECMAC  ROBO_WHITE,280,005,280,250
    1126 00006000                   VECMAC  ROBO_WHITE,335,005,335,250
    1127 00006050                   VECMAC  ROBO_WHITE,005,054,390,054
    1128 000060a0                   VECMAC  ROBO_WHITE,005,103,390,103
    1129 000060f0                   VECMAC  ROBO_WHITE,005,152,390,152
    1130 00006140                   VECMAC  ROBO_WHITE,005,201,390,201
    1131 00006190 00000000          .LONG   0
    1132                    
    1133 000061b0           MON_RECS:
    1134 000061b0                   VECMAC  ROBO_RED,       182,000,030,005 ; TOP
    1135 00006200                   VECMAC  ROBO_GREEN,     182,005,030,006
    1136 00006250                   VECMAC  ROBO_RED,       182,250,030,005 ; BOTTOM
    1137 000062a0                   VECMAC  ROBO_GREEN,     182,244,030,006
    1138 000062f0                   VECMAC  ROBO_RED,       000,117,005,020 ; LEFT
    1139 00006340                   VECMAC  ROBO_GREEN,     005,117,006,020
    1140 00006390                   VECMAC  ROBO_RED,       390,117,005,020 ; RIGHT
    1141 000063e0                   VECMAC  ROBO_GREEN,     384,117,006,020
    1142 00006430 00000000          .LONG   0
    1143                    
    1144 00006450           MON_DOTS:
    1145 00006450                   DOTMAC  ROBO_WHITE,032,029
    1146 00006480                   DOTMAC  ROBO_WHITE,087,029
    1147 000064b0                   DOTMAC  ROBO_WHITE,142,029
    1148 000064e0                   DOTMAC  ROBO_WHITE,197,029
    1149 00006510                   DOTMAC  ROBO_WHITE,252,029
    1150 00006540                   DOTMAC  ROBO_WHITE,307,029
    1151 00006570                   DOTMAC  ROBO_WHITE,362,029
    1152                    
    1153 000065a0                   DOTMAC  ROBO_WHITE,032,078
    1154 000065d0                   DOTMAC  ROBO_WHITE,087,078
    1155 00006600                   DOTMAC  ROBO_WHITE,142,078
    1156 00006630                   DOTMAC  ROBO_WHITE,197,078
    1157 00006660                   DOTMAC  ROBO_WHITE,252,078
    1158 00006690                   DOTMAC  ROBO_WHITE,307,078
    1159 000066c0                   DOTMAC  ROBO_WHITE,362,078
    1160                    
    1161 000066f0                   DOTMAC  ROBO_WHITE,032,127
    1162 00006720                   DOTMAC  ROBO_WHITE,087,127
    1163 00006750                   DOTMAC  ROBO_WHITE,142,127
    1164 00006780                   DOTMAC  ROBO_WHITE,197,127
    1165 000067b0                   DOTMAC  ROBO_WHITE,252,127
    1166 000067e0                   DOTMAC  ROBO_WHITE,307,127
    1167 00006810                   DOTMAC  ROBO_WHITE,362,127
    1168                    
    1169 00006840                   DOTMAC  ROBO_WHITE,032,176
    1170 00006870                   DOTMAC  ROBO_WHITE,087,176
    1171 000068a0                   DOTMAC  ROBO_WHITE,142,176
    1172 000068d0                   DOTMAC  ROBO_WHITE,197,176
    1173 00006900                   DOTMAC  ROBO_WHITE,252,176
    1174 00006930                   DOTMAC  ROBO_WHITE,307,176
    1175 00006960                   DOTMAC  ROBO_WHITE,362,176
    1176                    
TMS340 COFF Macro Assembler Version 6.10     Tue Dec 19 01:45:19 2023
 Copyright (c) 1985-1991  Texas Instruments Incorporated 

                                                                     PAGE   27

    1177 00006990                   DOTMAC  ROBO_WHITE,032,225
    1178 000069c0                   DOTMAC  ROBO_WHITE,087,225
    1179 000069f0                   DOTMAC  ROBO_WHITE,142,225
    1180 00006a20                   DOTMAC  ROBO_WHITE,197,225
    1181 00006a50                   DOTMAC  ROBO_WHITE,252,225
    1182 00006a80                   DOTMAC  ROBO_WHITE,307,225
    1183 00006ab0                   DOTMAC  ROBO_WHITE,362,225
    1184 00006ae0 00000000          .LONG   0
    1185                    
    1186 00006b00           PRIMARY_COLORS:
    1187 00006b00                   RECTMAC ROBO_RED,0,0,395,255
    1188 00006b50                   RECTMAC ROBO_GREEN,0,0,395,255
    1189 00006ba0                   RECTMAC ROBO_BLUE,0,0,395,255
    1190 00006bf0 00000000          .LONG   0
    1191                    
    1192 00006c10           COLOR_BARS:
    1193                    
    1194 00006c10                   RECTMAC ROBO_BLACK,   0, 0, 49, 16
    1195 00006c60                   RECTMAC ROBO_BLACK,  49, 0, 49, 16
    1196 00006cb0                   RECTMAC ROBO_BLACK,  98, 0, 49, 16
    1197 00006d00                   RECTMAC ROBO_BLACK, 147, 0, 49, 16
    1198 00006d50                   RECTMAC ROBO_BLACK, 196, 0, 49, 16      
    1199 00006da0                   RECTMAC ROBO_BLACK, 245, 0, 49, 16
    1200 00006df0                   RECTMAC ROBO_BLACK, 294, 0, 49, 16
    1201 00006e40                   RECTMAC ROBO_BLACK, 343, 0, 49, 16
    1202 00006e90 00000000          .LONG   0
    1203                    
    1204                    
    1205                    
    1206 00006eb0           COL_BARS
    1207 00006eb0           COLORBAR
    1208                    
    1209 00006eb0     09e0          MOVI    INTENSITIES_START,A0,L
         00006ec0 00007270' 
    1210 00006ee0     09e1          MOVI    COLRAM+100H,A1,L
         00006ef0 01800100  
    1211                    
    1212 00006f10     1a02          MOVK    16, A2                  ;5 BITS / COLOR
    1213 00006f20     1906          MOVK    8, A6                   ;# COLOR BARS
    1214 00006f30           CB3
    1215 00006f30     0b01          ADDI    0F00H,A1                        ;STEP TO NEXT PALETTE
         00006f40     0f00  
    1216 00006f50     9403          MOVE    *A0+,A3                 ;STARTING COLOR
    1217 00006f60     9404          MOVE    *A0+,A4                 ;COLOR DECREMENT
    1218                    
    1219 00006f70     4c45          MOVE    A2,A5
    1220                    
    1221 00006f80     9061  CB4     MOVE    A3,*A1+
    1222 00006f90     4483          SUB     A4,A3
    1223 00006fa0     3c65          DSJS    A5,CB4
    1224 00006fb0     3d26          DSJS    A6,CB3
    1225                    
    1226                    
    1227 00006fc0     57ce          CLR     A14
    1228 00006fd0     058e          MOVE    A14,@DMACTRL,W          ; HALT THE DMA
TMS340 COFF Macro Assembler Version 6.10     Tue Dec 19 01:45:19 2023
 Copyright (c) 1985-1991  Texas Instruments Incorporated 

                                                                     PAGE   28

         00006fe0 01a80010  
    1229 00007000     058e          MOVE    A14,@DMACTRL,W
         00007010 01a80010  
    1230 00007030     09ce          MOVI    0101H,A14
         00007040     0101  
    1231 00007050     4dc8          MOVE    A14,A8
    1232                    
    1233 00007060     09e3          MOVI COLOR_BARS,  A3, L        ; COLOR BAR TABLE
         00007070 00006c10' 
    1234 00007090     09ed          MOVI [16,0], A13, L             ; POSITION INCRMENT
         000070a0 00100000  
    1235 000070c0     09cc          MOVI    101H,A12
         000070d0     0101  
    1236 000070e0     1a0b          MOVK   16,  A11                 ; # INTENSITIES / BAR
    1237 000070f0     1906          MOVK    8,A6                    ;THIS MANY BARS
    1238 00007100           CB6
    1239 00007100     5642          CLR A2                       ; STARTING COLOR
    1240 00007110     9661          MOVE    *A3+,A1,L
    1241 00007120     ca0f          JRZ     CB8
    1242 00007130     0588          MOVE    A8,@DMACMAP,W           ;STUFF PALETTE
         00007140 01a80080  
    1243 00007160     9660          MOVE    *A3+,A0,L
    1244 00007170     1203          ADDK    16,A3
    1245 00007180     4d6a          MOVE    A11,A10
    1246 00007190           CB7
    1247 00007190                   FCALL RECTANGLE, B6
    1248 000071d0     41a0          ADD   A13, A0
    1249 000071e0     4182          ADD   A12, A2
    1250 000071f0     3cea          DSJS  A10, CB7
    1251 00007200     41c8          ADD     A14,A8                  ;NEXT PALETTE PLEASE
    1252 00007210     3e46          DSJ     A6,CB6
    1253                    
    1254 00007220           CB8
    1255 00007220     57ce          CLR     A14
    1256 00007230     058e          MOVE    A14,@DMACMAP
         00007240 01a80080  
    1257 00007260     0960          RETS
    1258                    
    1259                    
    1260 00007270           INTENSITIES_START
    1261                    
    1262 00007270     03e0          .WORD 03E0H                ; GREEN
    1263 00007280     0040          .WORD 0040H                ; BUMP GREEN
    1264                    
    1265 00007290     7c00          .WORD 7C00H                ; RED
    1266 000072a0     0800          .WORD 0800H                ; BUMP RED
    1267                    
    1268 000072b0     001f          .WORD 001FH                ; BLUE
    1269 000072c0     0002          .WORD 0002H                ; BUMP BLUE
    1270                    
    1271 000072d0     0000          .WORD 0000H                ; BLACK
    1272 000072e0     0000          .WORD 0000H                ; BUMP BLACK
    1273                    
    1274 000072f0     7fff          .WORD 7FFFH                ; WHITE
    1275 00007300     0842          .WORD 0842H                ; BUMP WHITE
TMS340 COFF Macro Assembler Version 6.10     Tue Dec 19 01:45:19 2023
 Copyright (c) 1985-1991  Texas Instruments Incorporated 

                                                                     PAGE   29

    1276                    
    1277 00007310     7fe0          .WORD 7FE0H                ; YELLOW
    1278 00007320     0840          .WORD 0840H                ; BUMP YELLOW
    1279                    
    1280 00007330     7c1f          .WORD 7C1FH                ; PURPLE
    1281 00007340     0802          .WORD 0802H                ; BUMP PURPLE
    1282                    
    1283 00007350     03ff          .WORD 03FFH                ; CYAN
    1284 00007360     0042          .WORD 0042H                ; BUMP CYAN
    1285                    
    1286 00007370 00000000          .LONG   0
    1287                    
    1288                    
    1289          00240000  DONEMASK        EQU     00240000H               ; P1 + P2 START
    1290 000000c0                   .BSS    DONECNT,32              ; FOR SWITCH TEST
    1291                    
    1292 00007390           SWITCHTEST
    1293 00007390                   PUSH    a12,a13
    1294                    
    1295 000073b0     1420          subk    1,a0
    1296 000073c0     ca00          jreq    DIPTEST
         000073d0     00da  
    1297                    
    1298 000073e0     1a0d          movk    10h,A13
    1299 000073f0     078d          MOVE    A13,@DONECNT,L
         00007400 000000c0- 
    1300 00007420     57ad          CLR     A13                     ; THE HOLD ME REGISTER
    1301 00007430     078d          MOVE    A13,@SWSET1,L
         00007440 00000000- 
    1302 00007460     078d          MOVE    A13,@SWSET2,L
         00007470 00000020- 
    1303 00007490     09e9          MOVI    BUT_TABLE,A9
         000074a0 0000acc0' 
    1304 000074c0     574a          CLR     A10
    1305 000074d0     0d3f          CALLR   BUT_PLOT                ; PLOT SOME BUTTONS
         000074e0     0314  
    1306 000074f0     09e9          MOVI    JOY_TABLE,A9
         00007500 0000b9d0' 
    1307 00007520     0d3f          CALLR   JOY_PLOT                ; PLOT THE JOYSTICKS
         00007530     033f  
    1308 00007540     09e9          MOVI    STR_TABLE,A9
         00007550 0000bc30' 
    1309 00007570     0d3f          CALLR   STR_PLOT                ; PLOT THE STRINGS
         00007580     0367  
    1310 00007590     09e9          MOVI    BUT_STRS,A9
         000075a0 0000c3d0' 
    1311 000075c0     0d3f          CALLR   STR_PLOT                ; PLOT THE BUTTON STRINGS
         000075d0     0362  
    1312                    
    1313 000075e0     09e0          MOVI    [180,0],A0
         000075f0 00b40000  
    1314 00007610     09e1          MOVI    [180,400],A1
         00007620 00b40190  
    1315 00007640     09c2          MOVI    ROBO_WHITE,A2
         00007650     0202  
TMS340 COFF Macro Assembler Version 6.10     Tue Dec 19 01:45:19 2023
 Copyright (c) 1985-1991  Texas Instruments Incorporated 

                                                                     PAGE   30

    1316 00007660                   FCALL   HVLINE,B6               ; DRAW LITTLE WHITE LINE
    1317 000076a0           SDLOOP
    1318 000076a0                   PULL    a12,a13
    1319 000076c0                   SLEEPK  1
    1320 00007700                   PUSH    a12,a13
    1321                    
    1322 00007720     07aa          MOVE    @SWITCH,A10,L           ; GRAB ME A SWITCH REGISTER
         00007730 01600000  
    1323 00007750     03ea          NOT     A10
    1324 00007760     4d40          MOVE    A10,A0
    1325 00007770     0b80          ANDI    DONEMASK,A0
         00007780 ffdbffff  
    1326 000077a0     0b60          CMPI    DONEMASK,A0,L           ; CHECK FOR DONE
         000077b0 ffdbffff  
    1327 000077d0     cb0d          JRNZ    SDGO
    1328 000077e0     07a0          MOVE    @DONECNT,A0,L           ;REQUIRE A CERTAIN TIME
         000077f0 000000c0- 
    1329 00007810     1420          DEC     A0
    1330 00007820     0780          MOVE    A0,@DONECNT,L
         00007830 000000c0- 
    1331 00007850     cb05          JRNE    SDGO
    1332                    
    1333 00007860           switchx PULL    a12,a13
    1334 00007880                   RETP
    1335                    
    1336 000078b0           SDGO
    1337 000078b0     07ab          MOVE    @SWSET1,A11,L
         000078c0 00000000- 
    1338 000078e0     496a          CMP     A11,A10                 ; CHECK FOR CHANGES
    1339 000078f0     ca0a          JRZ     SDCK2
    1340 00007900     078a          MOVE    A10,@SWSET1,L
         00007910 00000000- 
    1341 00007930     07aa          MOVE    @SWITCH+32,A10,L
         00007940 01600020  
    1342 00007960     03ea          NOT     A10
    1343 00007970     260a          SLL     16,A10
    1344 00007980     2e0a          SRL     16,A10
    1345 00007990     c00b          JRUC    SDPRC1
    1346 000079a0           SDCK2
    1347 000079a0     07aa          MOVE    @SWITCH+32,A10,L
         000079b0 01600020  
    1348 000079d0     03ea          NOT     A10
    1349 000079e0     260a          SLL     16,A10
    1350 000079f0     2e0a          SRL     16,A10
    1351 00007a00     07ab          MOVE    @SWSET2,A11,L
         00007a10 00000020- 
    1352 00007a30     496a          CMP     A11,A10
    1353 00007a40     cac5          JRZ     SDLOOP
    1354 00007a50           SDPRC1
    1355 00007a50     078a          MOVE    A10,@SWSET2,L
         00007a60 00000020- 
    1356 00007a80           SDPROC
    1357 00007a80     5600          CLR     A0
    1358 00007a90     0580          MOVE    A0,@SCHANGE
         00007aa0 000000b0- 
TMS340 COFF Macro Assembler Version 6.10     Tue Dec 19 01:45:19 2023
 Copyright (c) 1985-1991  Texas Instruments Incorporated 

                                                                     PAGE   31

    1359                    
    1360 00007ac0     09e9          MOVI    BUT_TABLE,A9
         00007ad0 0000acc0' 
    1361 00007af0     0d3f          CALLR   BUT_PLOT
         00007b00     02b2  
    1362 00007b10     09e9          MOVI    BUT_STRS,A9
         00007b20 0000c3d0' 
    1363 00007b40     0d3f          CALLR   STR_PLOT                ; PLOT THE BUTTON STRINGS
         00007b50     030a  
    1364 00007b60     09e9          MOVI    JOY_TABLE,A9
         00007b70 0000b9d0' 
    1365 00007b90     0d3f          CALLR   JOY_UPDATE              ; UPDATE THE JOYSTICK INFO
         00007ba0     02e5  
    1366                    
    1367 00007bb0     05a0          MOVE    @SCHANGE,A0
         00007bc0 000000b0- 
    1368 00007be0     caab          JRZ     SDLOOP
    1369                    
    1370 00007bf0     09e0          MOVI    SWITCH_SND,A0
         00007c00 0000ff80  
    1371 00007c20     0580          MOVE    A0,@SOUND
         00007c30 01d01030  
    1372 00007c50     c0a4          JRUC    SDLOOP
    1373                    
    1374                    
    1375                    
    1376 00007c60           SET_DIP_COINAGE
    1377 00007c60     098f          MMTM    SP,A0,A1,A2,A6
         00007c70     e200  
    1378                    
    1379 00007c80     0d3f          CALLR   READ_DIP
         00007c90     0253  
    1380 00007ca0     4c02          MOVE    A0,A2
    1381 00007cb0     0b82          ANDI    DPUSECMOS,A2            ;USING CMOS?
         00007cc0 fffffeff  
    1382 00007ce0     cb46          JRNZ    SDC_X                   ;BR=YES, DO NOT LOAD COINAGE
    1383                    
    1384 00007cf0     4c02          MOVE    A0,A2
    1385 00007d00     0b80          ANDI    DPCOUNTRY,A0
         00007d10 ffffcfff  
    1386                    
    1387 00007d30     2e80          SRL     DPCOUNTRY_SRL,A0        ; CHANGE TO TO MULTIPLE OF 32
    1388 00007d40     24a0          SLL     5,A0
    1389                    
    1390 00007d50     0b20          ADDI    DIPCOINTAB,A0
         00007d60 00000000! 
    1391 00007d80     8601          MOVE    *A0,A1,L                ; POINTER TO RIGHT COIN TABLE
    1392                    
    1393 00007d90     0b82          ANDI    DPCOINAGE,A2
         00007da0 fffff1ff  
    1394 00007dc0     0b42          CMPI    DPCOINAGE,A2            ; CHECK FOR FREEPLAY
         00007dd0     f1ff  
    1395 00007de0     ca2f          JRZ     CMOS21
    1396                    
    1397 00007df0     2ee2          SRL     DPCOINAGE_SRL,A2
TMS340 COFF Macro Assembler Version 6.10     Tue Dec 19 01:45:19 2023
 Copyright (c) 1985-1991  Texas Instruments Incorporated 

                                                                     PAGE   32

    1398 00007e00     2482          SLL     4,A2
    1399                    
    1400 00007e10     4041          ADD     A2,A1
    1401 00007e20     8421          MOVE    *A1,A1,W                ; WHICH COIN TABLE TO USE
    1402                    
    1403 00007e30     09c0          MOVI    ADJPRICE,A0
         00007e40     0001  
    1404 00007e50     0d5f          CALLA   GET_ADJ                 ;GET THE COIN SELECT NUMBER BEING USED.
         00007e60 00000000! 
    1405 00007e80     4801          CMP     A0,A1                   ;DID WE CHANGE COIN MODES
    1406 00007e90     ca06          JREQ    SDC_SAMEC
    1407 00007ea0     0d5f          CALLA   NO_CREDS                ;CLEAR CREDITS
         00007eb0 00000000! 
    1408 00007ed0     0d5f          CALLA   CRED_P                  ;LINK-OUT!
         00007ee0 00000000! 
    1409 00007f00           SDC_SAMEC
    1410 00007f00     09c0          MOVI    ADJPRICE,A0             ; MASTER PRICING
         00007f10     0001  
    1411 00007f20     0d5f          CALLA   PUT_ADJ                 ; STUFF IT IN CMOS
         00007f30 00000000! 
    1412 00007f50     09c0          MOVI    ADJFREPL,A0
         00007f60     0012  
    1413 00007f70     5621          CLR     A1                      ; MAKE SURE NO FREEPLAY
    1414 00007f80     0d5f          CALLA   PUT_ADJ
         00007f90 00000000! 
    1415 00007fb0           CMOS20
    1416 00007fb0     09c0          MOVI    ADJ1ST6,A0              ;MAKE THEM UNTOUCHED PLEASE
         00007fc0     0015  
    1417 00007fd0     1821          MOVK    1,A1
    1418 00007fe0     0d5f          CALLA   PUT_ADJ
         00007ff0 00000000! 
    1419                    
    1420 00008010     0d5f          CALLA   F_ADC_S                 ;CHECKSUM THE ADJUSTMENTS
         00008020 00000000! 
    1421                    
    1422 00008040     0d5f          CALLA   GET_CSPT
         00008050 00000000! 
    1423 00008070     0d5f          CALLA   SET_COIN_ADJ            ; SET THE ADJUSTMENTS UP IN CMOS
         00008080 00000000! 
    1424                    
    1425 000080a0     0d5f          CALLA   F_ADC_S                 ;CHECKSUM THE ADJUSTMENTS
         000080b0 00000000! 
    1426                    
    1427 000080d0     c007          JRUC    SDC_X
    1428 000080e0           CMOS21
    1429 000080e0     09c0          MOVI    ADJFREPL,A0
         000080f0     0012  
    1430 00008100     1821          MOVK    1,A1                    ; FREEPLAY, DUDE!
    1431 00008110     0d5f          CALLA   PUT_ADJ
         00008120 00000000! 
    1432 00008140     c0e6          JRUC    CMOS20
    1433 00008150           SDC_X
    1434 00008150     09af          MMFM    SP,A0,A1,A2,A6
         00008160     0047  
    1435 00008170     0960          RETS
TMS340 COFF Macro Assembler Version 6.10     Tue Dec 19 01:45:19 2023
 Copyright (c) 1985-1991  Texas Instruments Incorporated 

                                                                     PAGE   33

    1436                    
    1437                    
    1438 00008180           DIPTEST:
    1439 00008180     182e          MOVK    1,A14
    1440 00008190     058e          MOVE    A14,@DIP1ST,W           ;YES THIS IS THE FIRST TIME THROUGH
         000081a0 00000050- 
    1441 000081c0     0d3f          CALLR   READ_DIP
         000081d0     01ff  
    1442 000081e0     0580          MOVE    A0,@DIPVAL,W
         000081f0 00000040- 
    1443                    
    1444 00008210           DT_PLOT
    1445 00008210     09e9          MOVI    DIP_VECS,A9             ; POINT AT VECTOR TABLE
         00008220 0000c870' 
    1446 00008240           DTVLP1
    1447 00008240     9522          MOVE    *A9+,A2,W               ; GET COLOR
    1448 00008250     ca07          JRZ     DTVDONE
    1449 00008260     9720          MOVE    *A9+,A0,L               ; START POINT
    1450 00008270     9721          MOVE    *A9+,A1,L               ; END POINT
    1451 00008280                   FCALL   HVLINE,B6
    1452 000082c0     c0f7          JRUC    DTVLP1
    1453 000082d0           DTVDONE
    1454 000082d0     09e9          MOVI    DIP_STRS,A9
         000082e0 0000d1a0' 
    1455 00008300     0d3f          CALLR   STR_PLOT
         00008310     028e  
    1456                    
    1457 00008320     0d3f          CALLR   SET_DIP_COINAGE
         00008330     ff92  
    1458                    
    1459 00008340     0d3f          CALLR   DIPPLOT
         00008350     017c  
    1460 00008360     0d3f          CALLR   DIPSTATE
         00008370     0038  
    1461                    
    1462 00008380     05ae          MOVE    @DIP1ST,A14,W
         00008390 00000050- 
    1463 000083b0     cb06          JRNZ    DTL_SKIP_SND
    1464                    
    1465 000083c0     09e0          MOVI    DIP_SND,A0
         000083d0 0000ff83  
    1466 000083f0     0580          MOVE    A0,@SOUND,W
         00008400 01d01030  
    1467                    
    1468 00008420           DTL_SKIP_SND
    1469 00008420                   CLRM    @DIP1ST,W
    1470                    
    1471 00008460     0d5f          CALLA   fudge_switches          ;get fudged switches in a0
         00008470 00000000! 
    1472 00008490     0b80          andi    BUTTONS|START_BITS,a0
         000084a0 f9db0f0f  
    1473 000084c0     0780          MOVE    A0,@SWSET1,L
         000084d0 00000000- 
    1474 000084f0           DTLOOP
    1475 000084f0                   PULL    a12,a13
TMS340 COFF Macro Assembler Version 6.10     Tue Dec 19 01:45:19 2023
 Copyright (c) 1985-1991  Texas Instruments Incorporated 

                                                                     PAGE   34

    1476 00008510                   SLEEPK  1
    1477 00008550                   PUSH    a12,a13
    1478                    
    1479                    
    1480 00008570     0d5f          CALLA   fudge_switches          ;get fudged switches in a0
         00008580 00000000! 
    1481 000085a0     07a1          MOVE    @SWSET1,A1,L
         000085b0 00000000- 
    1482 000085d0     0b80          andi    BUTTONS|START_BITS,a0
         000085e0 f9db0f0f  
    1483 00008600     4801          CMP     A0,A1
    1484 00008610     cb0c          JRNZ    DT_X
    1485                    
    1486 00008620     0d3f          CALLR   READ_DIP
         00008630     01b9  
    1487 00008640     05a1          MOVE    @DIPVAL,A1,W
         00008650 00000040- 
    1488 00008670     0521          ZEXT    A1
    1489 00008680     4801          CMP     A0,A1
    1490 00008690     cae5          JRZ     DTLOOP                  ;BR = NO CHANGE
    1491 000086a0     0580          MOVE    A0,@DIPVAL,W            ;SAVE THE OLD
         000086b0 00000040- 
    1492 000086d0     c0b3          JRUC    DT_PLOT                 ;PLOT THE NEW SWITCH STUFF
    1493 000086e0           DT_X
    1494 000086e0     c000          JRUC    switchx
         000086f0     ff16  
    1495                    
    1496                    
    1497 00008700           DIPSTATE
    1498 00008700     09e0          MOVI    [32,74],A0
         00008710 0020004a  
    1499 00008730     09e1          MOVI    [104,140],A1
         00008740 0068008c  
    1500 00008760     09c2          MOVI    COLOR_BLACK,A2
         00008770     1414  
    1501 00008780                   FCALL   RECTANGLE,B6
    1502 000087c0     09e0          MOVI    [32,284],A0
         000087d0 0020011c  
    1503 000087f0     09e1          MOVI    [104,111],A1
         00008800 0068006f  
    1504 00008820     09c2          MOVI    COLOR_BLACK,A2
         00008830     1414  
    1505 00008840                   FCALL   RECTANGLE,B6
    1506                    
    1507 00008880     0d3f          CALLR   READ_DIP
         00008890     0193  
    1508 000088a0     4c0a          MOVE    A0,A10                  ;LET'S KEEP A COPY 
    1509                    
    1510 000088b0     5642          CLR     A2
    1511 000088c0     09c3          MOVI    COLOR_WHITE,A3
         000088d0     0202  
    1512                    
    1513 000088e0     56e7          CLR     A7
    1514 000088f0     09e1          MOVI    DUSECMOS_0,A1
         00008900 0000da70' 
TMS340 COFF Macro Assembler Version 6.10     Tue Dec 19 01:45:19 2023
 Copyright (c) 1985-1991  Texas Instruments Incorporated 

                                                                     PAGE   35

    1515 00008920     0b80          ANDI    DPUSECMOS,A0
         00008930 fffffeff  
    1516 00008950     ca04          JRZ     DS1
    1517 00008960     1827          MOVK    1,A7
    1518 00008970     09e1          MOVI    DUSECMOS_1,A1
         00008980 0000da00' 
    1519 000089a0           DS1
    1520 000089a0     4c20          MOVE    A1,A0
    1521 000089b0     09e1          MOVI    [39,75],A1
         000089c0 0027004b  
    1522 000089e0                   FCALL   STRING,B6
    1523                    
    1524 00008a20     4ce7          MOVE    A7,A7                   ;ARE WE CMOS OR DIPSWITCH
    1525 00008a30     ca0b          JRZ     DS_PC                   ;BR = DIPSWITCH
    1526                    
    1527 00008a40     09e1          MOVI    [63,75],A1
         00008a50 003f004b  
    1528 00008a70     09e0          MOVI    DUNUSED,A0              ;JUST PRINT UNUSED
         00008a80 0000e890' 
    1529 00008aa0                   FCALL   STRING,B6
    1530 00008ae0     c064          JRUC    DS_SC                   ;AND GO FOR THE NEXT SWITCHES
    1531                            
    1532 00008af0           DS_PC
    1533 00008af0     09c3          MOVI    COLOR_WHITE,A3
         00008b00     0202  
    1534 00008b10     09e1          MOVI    [51,75],A1
         00008b20 0033004b  
    1535 00008b40     09e0          MOVI    DCOINAGE,A0
         00008b50 0000dff0' 
    1536 00008b70                   FCALL   STRING,B6
    1537 00008bb0     4d40          MOVE    A10,A0
    1538 00008bc0     0b80          ANDI    DPCOUNTRY,A0
         00008bd0 ffffcfff  
    1539 00008bf0     2e80          SRL     DPCOUNTRY_SRL,A0                
    1540 00008c00     24a0          SLL     5,A0
    1541 00008c10     0b20          ADDI    DCOINTAB,A0
         00008c20 0000e660' 
    1542 00008c40     8601          MOVE    *A0,A1,L                ; POINTER TO RIGHT COIN TABLE
    1543 00008c50     4d40          MOVE    A10,A0
    1544 00008c60     0b80          ANDI    DPCOINAGE,A0
         00008c70 fffff1ff  
    1545 00008c90     2ee0          SRL     DPCOINAGE_SRL,A0
    1546 00008ca0     24a0          SLL     5,A0
    1547 00008cb0     4001          ADD     A0,A1
    1548 00008cc0     8620          MOVE    *A1,A0,L                ; NOW POINTING AT MESSAGE
    1549 00008cd0     5642          CLR     A2
    1550 00008ce0     09e1          MOVI    [51,132],A1
         00008cf0 00330084  
    1551 00008d10                   FCALL   STRING,B6
    1552                    
    1553 00008d50     09e0          MOVI    DTOSTART,A0
         00008d60 0000e1f0' 
    1554 00008d80     09e1          MOVI    [63,90],A1
         00008d90 003f005a  
    1555 00008db0                   FCALL   STRING,B6
TMS340 COFF Macro Assembler Version 6.10     Tue Dec 19 01:45:19 2023
 Copyright (c) 1985-1991  Texas Instruments Incorporated 

                                                                     PAGE   36

    1556                    
    1557 00008df0     09e0          MOVI    DTOCONTINUE,A0
         00008e00 0000e240' 
    1558 00008e20     09e1          MOVI    [75,90],A1
         00008e30 004b005a  
    1559 00008e50                   FCALL   STRING,B6
    1560                    
    1561 00008e90     09c0          MOVI    ADJCSTRT,A0
         00008ea0     000b  
    1562 00008eb0     0d5f          CALLA   GET_ADJ                 ; GET NUMBER NEEDED ( IN A0 )
         00008ec0 00000000! 
    1563 00008ee0     4c08          MOVE    A0,A8
    1564 00008ef0     0b48          CMPI    9,A8
         00008f00     fff6  
    1565 00008f10     c201          JRLS    DSTS_1
    1566 00008f20     1928          MOVK    9,A8
    1567 00008f30           DSTS_1
    1568 00008f30     0d5f          CALLA   HEXTOASC
         00008f40 00000000! 
    1569 00008f60     4d00          MOVE    A8,A0
    1570 00008f70     09e1          MOVI    [63,80],A1
         00008f80 003f0050  
    1571 00008fa0                   FCALL   STRING,B6
    1572                    
    1573 00008fe0     09c0          MOVI    ADJCCONT,A0
         00008ff0     000c  
    1574 00009000     0d5f          CALLA   GET_ADJ                 ; GET NUMBER NEEDED ( IN A0 )
         00009010 00000000! 
    1575 00009030     4c08          MOVE    A0,A8
    1576 00009040     0b48          CMPI    9,A8
         00009050     fff6  
    1577 00009060     c201          JRLS    DSTC_1
    1578 00009070     1928          MOVK    9,A8
    1579 00009080           DSTC_1
    1580 00009080     0d5f          CALLA   HEXTOASC
         00009090 00000000! 
    1581 000090b0     4d00          MOVE    A8,A0
    1582 000090c0     09e1          MOVI    [75,80],A1
         000090d0 004b0050  
    1583 000090f0                   FCALL   STRING,B6
    1584                    
    1585                    
    1586 00009130           DS_SC
    1587 00009130     4d40          MOVE    A10,A0
    1588 00009140     0b80          ANDI    DPCOUNTRY,A0
         00009150 ffffcfff  
    1589 00009170     2e80          SRL     DPCOUNTRY_SRL,A0
    1590 00009180     24a0          SLL     5,A0
    1591 00009190     0b20          ADDI    DCOUNTRY_TAB,A0
         000091a0 0000e110' 
    1592 000091c0     8600          MOVE    *A0,A0,L
    1593 000091d0     09e1          MOVI    [93,75],A1
         000091e0 005d004b  
    1594 00009200                   FCALL   STRING,B6
    1595                    
TMS340 COFF Macro Assembler Version 6.10     Tue Dec 19 01:45:19 2023
 Copyright (c) 1985-1991  Texas Instruments Incorporated 

                                                                     PAGE   37

    1596 00009240     4d47          MOVE    A10,A7
    1597 00009250     0b87          ANDI    DPCOUNTER,A7
         00009260 ffff3fff  
    1598 00009280     2e47          SRL     DPCOUNTER_SRL,A7
    1599 00009290     24c7          SLL     6,A7
    1600 000092a0     0b27          ADDI    DCOUNTER_TAB,A7
         000092b0 0000def0' 
    1601 000092d0     96e0          MOVE    *A7+,A0,L
    1602 000092e0     09e1          MOVI    [113,75],A1
         000092f0 0071004b  
    1603 00009310                   FCALL   STRING,B6
    1604 00009350     96e0          MOVE    *A7+,A0,L
    1605 00009360     09e1          MOVI    [125,75],A1
         00009370 007d004b  
    1606 00009390                   FCALL   STRING,B6
    1607                    
    1608                    
    1609 000093d0     4d40          MOVE    A10,A0                  ;ADD THE FOLLOWING FOR PLAYER #
    1610 000093e0     0b80          ANDI    DPPLAYERS,A0
         000093f0 fffffffe  
    1611 00009410                   RJST    A0
    1612 00009470     24a0          SLL     5,A0
    1613 00009480     0b20          ADDI    DPLAYER_TAB,A0
         00009490 0000e090' 
    1614 000094b0     8600          MOVE    *A0,A0,L
    1615                    
    1616                    
    1617                    
    1618                    
    1619                    
    1620                    
    1621 000094c0     09e1          MOVI    [39,285],A1
         000094d0 0027011d  
    1622 000094f0                   FCALL   STRING,B6
    1623                    
    1624 00009530     09e0          MOVI    DNOVALIDATOR,A0         ;ASSUME NO VALIDATOR
         00009540 0000e3e0' 
    1625 00009560     4d41          MOVE    A10,A1
    1626 00009570     0b81          ANDI    DPVALIDATOR,A1          ;DO WE HAVE ONE?
         00009580 fffffffd  
    1627 000095a0     ca03          JRZ     DSTS_NOV                ;BR = NO
    1628 000095b0     09e0          MOVI    DVALIDATOR,A0           ;ASSUME NO VALIDATOR
         000095c0 0000e450' 
    1629                    
    1630 000095e0           DSTS_NOV
    1631 000095e0     09e1          MOVI    [51,285],A1
         000095f0 0033011d  
    1632 00009610                   FCALL   STRING,B6
    1633                    
    1634                    
    1635 00009650     09e0          MOVI    DCLIPS,A0               ;Assume clips on
         00009660 0000e4d0' 
    1636 00009680     4d41          MOVE    A10,A1
    1637 00009690     0b81          ANDI    DPNOVIDCLIPS,A1
         000096a0 fffffffb  
TMS340 COFF Macro Assembler Version 6.10     Tue Dec 19 01:45:19 2023
 Copyright (c) 1985-1991  Texas Instruments Incorporated 

                                                                     PAGE   38

    1638 000096c0     ca03          JRZ     DSTS_NOC                ;BR = NO
    1639 000096d0     09e0          MOVI    DNOCLIPS,A0             ;Assume no clips wanted
         000096e0 0000e510' 
    1640                    
    1641 00009700           DSTS_NOC
    1642                    
    1643                    
    1644 00009700     09e1          MOVI    [63,285],A1
         00009710 003f011d  
    1645 00009730                   FCALL   STRING,B6
    1646                    
    1647 00009770     09e0          MOVI    DUNUSED,A0
         00009780 0000e890' 
    1648 000097a0     09e1          MOVI    [75,285],A1
         000097b0 004b011d  
    1649 000097d0                   FCALL   STRING,B6
    1650                    
    1651 00009810     09e0          MOVI    DUNUSED,A0
         00009820 0000e890' 
    1652 00009840     09e1          MOVI    [87,285],A1
         00009850 0057011d  
    1653 00009870                   FCALL   STRING,B6
    1654                    
    1655 000098b0     09e0          MOVI    DUNUSED,A0
         000098c0 0000e890' 
    1656 000098e0     09e1          MOVI    [99,285],A1
         000098f0 0063011d  
    1657 00009910                   FCALL   STRING,B6
    1658                    
    1659                    
    1660                    
    1661 00009950     09e0          MOVI    DPOWER,A0
         00009960 0000e550' 
    1662 00009980     4d41          MOVE    A10,A1
    1663 00009990     0b81          ANDI    DPPOWER,A1
         000099a0 ffffffbf  
    1664 000099c0     ca03          JRZ     DSTS_NOP
    1665 000099d0     09e0          MOVI    DNOPOWER,A0
         000099e0 0000e5c0' 
    1666                    
    1667 00009a00           DSTS_NOP
    1668                    
    1669 00009a00     09e1          MOVI    [111,285],A1
         00009a10 006f011d  
    1670 00009a30                   FCALL   STRING,B6
    1671                    
    1672 00009a70     09e0          MOVI    DTEST_0,A0
         00009a80 0000e2a0' 
    1673 00009aa0     09e1          MOVI    [123,285],A1
         00009ab0 007b011d  
    1674 00009ad0                   FCALL   STRING,B6
    1675                    
    1676 00009b10     0960          RETS                            
    1677                    
    1678                    
TMS340 COFF Macro Assembler Version 6.10     Tue Dec 19 01:45:19 2023
 Copyright (c) 1985-1991  Texas Instruments Incorporated 

                                                                     PAGE   39

    1679                    
    1680 00009b20           DIPPLOT:
    1681 00009b20     09e0          MOVI    [33,21],A0
         00009b30 00210015  
    1682 00009b50     09e1          MOVI    [104,38],A1
         00009b60 00680026  
    1683 00009b80     09c2          MOVI    COLOR_BLACK,A2
         00009b90     1414  
    1684 00009ba0                   FCALL   RECTANGLE,B6
    1685 00009be0     09e0          MOVI    [33,231],A0
         00009bf0 002100e7  
    1686 00009c10     09e1          MOVI    [104,38],A1
         00009c20 00680026  
    1687 00009c40     09c2          MOVI    COLOR_BLACK,A2
         00009c50     1414  
    1688 00009c60                   FCALL   RECTANGLE,B6
    1689 00009ca0     0d3f          CALLR   READ_DIP
         00009cb0     0051  
    1690 00009cc0     5642          CLR     A2
    1691 00009cd0           DIPLOOP
    1692 00009cd0     4c43          MOVE    A2,A3
    1693 00009ce0     24a3          SLL     5,A3
    1694 00009cf0     0b23          ADDI    DIPYTAB,A3
         00009d00 00009fd0' 
    1695 00009d20     8663          MOVE    *A3,A3,L
    1696 00009d30     2603          SLL     16,A3                   ; GOT THE Y LOC
    1697                    
    1698 00009d40     56a5          CLR     A5
    1699 00009d50     0b42          CMPI    8,A2
         00009d60     fff7  
    1700                            .IF TUNIT=0
    1701                            JRLO    DIPL2
    1702                            .ELSE
    1703 00009d70     c902          JRHS    DIPL2
    1704                            .ENDIF
    1705 00009d80     09c5          MOVI    210,A5
         00009d90     00d2  
    1706 00009da0           DIPL2
    1707 00009da0     eca3          MOVX    A5,A3
    1708                    
    1709 00009db0     4a40          BTST    A2,A0                   ; CHECK IF BIT IS SET
    1710 00009dc0     cb08          JRNZ    DIPON
    1711 00009dd0     09e1          MOVI    DP_OFF,A1
         00009de0 0000e870' 
    1712 00009e00     0b03          ADDI    29,A3
         00009e10     001d  
    1713 00009e20     09c4          MOVI    COLOR_GREY,A4
         00009e30     0101  
    1714 00009e40     c007          JRUC    DIPSTR
    1715                    
    1716 00009e50           DIPON
    1717 00009e50     09e1          MOVI    DP_ON,A1
         00009e60 0000e850' 
    1718 00009e80     0b03          ADDI    32,A3
         00009e90     0020  
TMS340 COFF Macro Assembler Version 6.10     Tue Dec 19 01:45:19 2023
 Copyright (c) 1985-1991  Texas Instruments Incorporated 

                                                                     PAGE   40

    1719 00009ea0     09c4          MOVI    COLOR_WHITE,A4
         00009eb0     0202  
    1720                    
    1721 00009ec0           DIPSTR
    1722 00009ec0     098f          MMTM    SP,A0,A2
         00009ed0     a000  
    1723 00009ee0     4c20          MOVE    A1,A0                   ; SET STRING
    1724 00009ef0     4c61          MOVE    A3,A1                   ; SET LOCATION
    1725 00009f00     4c83          MOVE    A4,A3
    1726 00009f10     5642          CLR     A2                      ; HORIZONTAL
    1727 00009f20                   FCALL   STRING,B6
    1728 00009f60     09af          MMFM    SP,A0,A2
         00009f70     0005  
    1729 00009f80     1022          INC     A2
    1730 00009f90     0b42          CMPI    16,A2
         00009fa0     ffef  
    1731 00009fb0     c8d1          JRLO    DIPLOOP
    1732 00009fc0     0960          RETS
    1733                    
    1734                    
    1735 00009fd0           DIPYTAB
    1736 00009fd0 00000027          .LONG   39,51,63,75,87,99,111,123
    1737 0000a0d0 00000027          .LONG   39,51,63,75,87,99,111,123
    1738                    
    1739                    
    1740                    
    1741 0000a1d0           READ_DIP:
    1742 0000a1d0     098f          MMTM    SP,A1,A2,A3
         0000a1e0     7000  
    1743                    
    1744 0000a1f0     05a0          MOVE    @DIPSWITCH,A0,W         ; READ IT IN
         0000a200 01600030  
    1745 0000a220     03e0          NOT     A0                      ; INVERT IT FOR TRUE BITS
    1746 0000a230     5621          CLR     A1
    1747 0000a240     18e2          movk    7,a2
    1748 0000a250           RDLOOP
    1749 0000a250     4a40          BTST    A2,A0
    1750 0000a260     ca05          JRZ     RD1
    1751 0000a270     18e3          MOVK    7,A3
    1752 0000a280     4443          SUB     A2,A3
    1753 0000a290                   BSET    A3,A1
    1754 0000a2c0           RD1
    1755 0000a2c0     1102          addk    8,a2
    1756 0000a2d0     4a40          BTST    A2,A0
    1757 0000a2e0     ca06          JRZ     RD2
    1758 0000a2f0     19e3          MOVK    15,A3
    1759 0000a300     4443          SUB     A2,A3
    1760 0000a310     1103          addk    8,a3
    1761 0000a320                   BSET    A3,A1
    1762 0000a350           RD2
    1763 0000a350     1502          subk    8,a2
    1764 0000a360     1422          DEC     A2
    1765 0000a370     cfed          JRNN    RDLOOP
    1766 0000a380     4c20          MOVE    A1,A0
    1767                    
TMS340 COFF Macro Assembler Version 6.10     Tue Dec 19 01:45:19 2023
 Copyright (c) 1985-1991  Texas Instruments Incorporated 

                                                                     PAGE   41

    1768 0000a390     09af          MMFM    SP,A1,A2,A3
         0000a3a0     000e  
    1769 0000a3b0     0960          RETS
    1770                    
    1771                    
    1772                            
    1773 0000a3c0           JOY_MESS
    1774 0000a3c0     09e8          MOVI    JJJTAB,A8
         0000a3d0 0000a570' 
    1775 0000a3f0     1887          MOVK    4,A7
    1776 0000a400           JML
    1777 0000a400     09c3          MOVI    ROBO_BLACK,A3
         0000a410     1414  
    1778 0000a420     2fea          SRL     1,A10
    1779 0000a430     c905          JRNC    JM1
    1780 0000a440     4d63          MOVE    A11,A3                  ; SET COLOR
    1781 0000a450     182e          MOVK    1,A14
    1782 0000a460     058e          MOVE    A14,@SCHANGE,W
         0000a470 000000b0- 
    1783 0000a490           JM1
    1784 0000a490     9700          MOVE    *A8+,A0,L
    1785 0000a4a0     4d21          MOVE    A9,A1                   ; CIRCLE CENTER
    1786 0000a4b0     8f02          MOVB    *A8,A2                  ;X CORRECTION
    1787 0000a4c0     1108          ADDK    8,A8
    1788 0000a4d0     4041          ADD     A2,A1
    1789 0000a4e0     8f02          MOVB    *A8,A2                  ;Y CORRECTION
    1790 0000a4f0     1108          ADDK    8,A8
    1791 0000a500     2602          SLL     16,A2
    1792 0000a510     4041          ADD     A2,A1
    1793 0000a520     5642          CLR     A2                      ; DIRECTION
    1794 0000a530     0d3f          CALLR   STRNEW
         0000a540     0592  
    1795 0000a550     3ec7          DSJS    A7,JML
    1796 0000a560     0960          RETS
    1797 0000a570           JJJTAB
    1798 0000a570 0000f440'         .LONG   UPMESS
    1799 0000a590       f9          .BYTE   -7,-25
    1800                    
    1801 0000a5a0 0000f460'         .LONG   DOWNMESS
    1802 0000a5c0       f3          .BYTE   -13,18
    1803                    
    1804 0000a5d0 0000f400'         .LONG   LEFTMESS
    1805 0000a5f0       d9          .BYTE   -39,-4
    1806                    
    1807 0000a600 0000f420'         .LONG   RIGHTMESS
    1808 0000a620       12          .BYTE   18,-4
    1809                    
    1810                    
    1811                    
    1812                    
    1813 0000a630           BUT_PLOT:
    1814 0000a630     5694          clr     b4                      ;OFFSET
    1815                    
    1816 0000a640     8721          MOVE    *A9,A1,L                ; XY LOC
    1817 0000a650     ca2c          JRZ     BPDONE
TMS340 COFF Macro Assembler Version 6.10     Tue Dec 19 01:45:19 2023
 Copyright (c) 1985-1991  Texas Instruments Incorporated 

                                                                     PAGE   42

    1818 0000a660     1009          ADDK    32,A9                   
    1819 0000a670     9520          MOVE    *A9+,A0                 ; RADIUS
    1820 0000a680     9726          MOVE    *A9+,A6,L               ; COLOR
    1821 0000a690     972b          MOVE    *A9+,A11,L              ; GET MASK
    1822 0000a6a0     1209          ADDK    16,A9                   ; SHIFT COUNT
    1823 0000a6b0     8528          MOVE    *A9,A8,W                ; JAMMA EXTEND-O-BIT
    1824 0000a6c0     ca04          JRZ     BPLOW
    1825 0000a6d0     07aa          MOVE    @SWSET2,A10,L
         0000a6e0 00000020- 
    1826 0000a700     c003          JRUC    BPAND
    1827 0000a710           BPLOW
    1828 0000a710     07aa          MOVE    @SWSET1,A10,L
         0000a720 00000000- 
    1829 0000a740           BPAND
    1830 0000a740     1209          ADDK    16,A9
    1831 0000a750     514b          AND     A10,A11                 ; MASK OFF SOMETHING USEFUL
    1832 0000a760     ca04          JRZ     BPHOLLOW
    1833 0000a770     0b26          ADDI    CFILL,A6                ; MASK IN THE FILL BITS
         0000a780 ffff0000  
    1834 0000a7a0     c00e          JRUC    BPCIRC
    1835 0000a7b0           BPHOLLOW
    1836 0000a7b0     098f          MMTM    SP,A0,A1,A6
         0000a7c0     c200  
    1837 0000a7d0     09c6          MOVI    ROBO_BLACK,A6
         0000a7e0     1414  
    1838 0000a7f0     0b26          ADDI    CFILL,A6
         0000a800 ffff0000  
    1839 0000a820                   FCALL   CIRCLE,B6
    1840 0000a860     09af          MMFM    SP,A0,A1,A6
         0000a870     0043  
    1841 0000a880     c004          JRUC    BPCIRC2
    1842 0000a890           BPCIRC
    1843 0000a890     182e          MOVK    1,A14
    1844 0000a8a0     058e          MOVE    A14,@SCHANGE,W
         0000a8b0 000000b0- 
    1845 0000a8d0           BPCIRC2
    1846 0000a8d0                   FCALL   CIRCLE,B6
    1847 0000a910     c0d1          JRUC    BUT_PLOT
    1848 0000a920           BPDONE
    1849 0000a920     0960          RETS
    1850                    
    1851                    
    1852 0000a930           JOY_PLOT:
    1853 0000a930     8721          MOVE    *A9,A1,L                ; XY LOC
    1854 0000a940     ca0a          JRZ     JPDONE
    1855 0000a950     1009          ADDK    32,A9                   
    1856 0000a960     9520          MOVE    *A9+,A0                 ; RADIUS
    1857 0000a970     8726          MOVE    *A9,A6,L                ; COLOR
    1858 0000a980     0b09          ADDI    96,A9
         0000a990     0060  
    1859 0000a9a0                   FCALL   CIRCLE,B6
    1860 0000a9e0     c0f4          JRUC    JOY_PLOT
    1861 0000a9f0           JPDONE
    1862 0000a9f0     0960          RETS
    1863                    
TMS340 COFF Macro Assembler Version 6.10     Tue Dec 19 01:45:19 2023
 Copyright (c) 1985-1991  Texas Instruments Incorporated 

                                                                     PAGE   43

    1864                    
    1865 0000aa00           JOY_UPDATE:
    1866 0000aa00     8721          MOVE    *A9,A1,L                ; XY LOC
    1867 0000aa10     ca1d          JRZ     JUDONE
    1868 0000aa20     0b09          ADDI    32,A9                   
         0000aa30     0020  
    1869 0000aa40     9520          MOVE    *A9+,A0                 ; RADIUS
    1870 0000aa50     972b          MOVE    *A9+,A11,L              ; COLOR
    1871 0000aa60     9726          MOVE    *A9+,A6,L               ; MASK
    1872 0000aa70     9527          MOVE    *A9+,A7                 ; SHIFT COUNT
    1873 0000aa80     8528          MOVE    *A9,A8                  ; EXTEND-O-BIT FOR JAMMA
    1874 0000aa90     ca04          JRZ     JULOW
    1875 0000aaa0     07aa          MOVE    @SWSET2,A10,L
         0000aab0 00000020- 
    1876 0000aad0     c003          JRUC    JUAND
    1877 0000aae0           JULOW
    1878 0000aae0     07aa          MOVE    @SWSET1,A10,L
         0000aaf0 00000000- 
    1879 0000ab10           JUAND
    1880 0000ab10     1209          ADDK    16,A9
    1881 0000ab20     5146          AND     A10,A6                  ; MASK OFF JOYSTICK BITS
    1882 0000ab30     03e7          NOT     A7
    1883 0000ab40     1027          ADDK    1,A7
    1884 0000ab50     66e6          SRL     A7,A6                   ; ZERO BASE THE LITTLE SUCKER
    1885 0000ab60     098f          MMTM    SP,A9,A10,A8,A7
         0000ab70     01e0  
    1886 0000ab80     4c29          MOVE    A1,A9                   ; CENTER OF STICK HERE
    1887 0000ab90     4cca          MOVE    A6,A10                  ; BUTTON MASK
    1888 0000aba0     0d3f          CALLR   JOY_MESS
         0000abb0     ff80  
    1889 0000abc0     09af          MMFM    SP,A9,A10,A8,A7
         0000abd0     0780  
    1890 0000abe0     c0e1          JRUC    JOY_UPDATE
    1891 0000abf0           JUDONE
    1892 0000abf0     0960          RETS
    1893                    
    1894                    
    1895                    
    1896 0000ac00           STR_PLOT
    1897 0000ac00     8721          MOVE    *A9,A1,L                ;XY LOC
    1898 0000ac10     ca09          JRZ     STDONE
    1899 0000ac20     1009          ADDK    32,A9                   
    1900 0000ac30     9720          MOVE    *A9+,A0,L               ;STRING PTR
    1901 0000ac40     9523          MOVE    *A9+,A3                 ;COLOR
    1902 0000ac50     9522          MOVE    *A9+,A2                 ;DIRECTION
    1903 0000ac60                   FCALL   STRING,B6
    1904 0000aca0     c0f5          JRUC    STR_PLOT
    1905 0000acb0           STDONE
    1906 0000acb0     0960          RETS
    1907                    
    1908          ffff0000  CFILL   EQU     0FFFF0000H
    1909                    
    1910                    
    1911                    
    1912              0050  P1BC    .equ    80
TMS340 COFF Macro Assembler Version 6.10     Tue Dec 19 01:45:19 2023
 Copyright (c) 1985-1991  Texas Instruments Incorporated 

                                                                     PAGE   44

    1913              00a0  P2BC    .equ    160
    1914              00f0  P3BC    .equ    240
    1915              0140  P4BC    .equ    320
    1916              00a2  PBCY    .equ    162
    1917                    
    1918 0000acc0           BUT_TABLE
    1919 0000acc0                   BUT_MAC P1BC+20,PBCY,10,ROBO_BLUE,020H,0,0              ; P1 A2
    1920 0000ad50                   BUT_MAC P1BC,PBCY-12,10,ROBO_RED,010H,0,0               ; P1 A1
    1921 0000ade0                   BUT_MAC P1BC-20,PBCY,10,ROBO_WHITE,040H,0,0             ; P1 A3
    1922                    
    1923 0000ae70                   BUT_MAC P2BC+20,PBCY,10,ROBO_BLUE,02000H,0,0            ; P2 A2
    1924 0000af00                   BUT_MAC P2BC,PBCY-12,10,ROBO_RED,01000H,0,0             ; P2 A1
    1925 0000af90                   BUT_MAC P2BC-20,PBCY,10,ROBO_WHITE,04000H,0,0           ; P2 A3
    1926                    
    1927 0000b020                   BUT_MAC P3BC+20,PBCY,10,ROBO_BLUE,020H,0,1              ; P3 A2
    1928 0000b0b0                   BUT_MAC P3BC,PBCY-12,10,ROBO_RED,010H,0,1               ; P3 A1
    1929 0000b140                   BUT_MAC P3BC-20,PBCY,10,ROBO_WHITE,040H,0,1             ; P3 A3
    1930                    
    1931 0000b1d0                   BUT_MAC P4BC+20,PBCY,10,ROBO_BLUE,02000H,0,1            ; P4 A2
    1932 0000b260                   BUT_MAC P4BC,PBCY-12,10,ROBO_RED,01000H,0,1             ; P4 A1
    1933 0000b2f0                   BUT_MAC P4BC-20,PBCY,10,ROBO_WHITE,04000H,0,1           ; P4 A3
    1934                    
    1935 0000b380                   BUT_MAC P1BC,70,10,ROBO_WHITE,00040000H,0,0     ; P1 START
    1936 0000b410                   BUT_MAC P2BC,70,10,ROBO_WHITE,00200000H,0,0     ; P2 START
    1937 0000b4a0                   BUT_MAC P3BC,70,10,ROBO_WHITE,02000000H,0,0     ; P3 START
    1938 0000b530                   BUT_MAC P4BC,70,10,ROBO_WHITE,04000000H,0,0     ; P4 START
    1939                    
    1940 0000b5c0                   BUT_MAC 30,207,10,COLOR_GREEN,00010000H,0,0     ; COIN LEFT
    1941 0000b650                   BUT_MAC 75,207,10,COLOR_GREEN,00020000H,0,0     ; COIN RIGHT
    1942 0000b6e0                   BUT_MAC 120,207,10,COLOR_GREEN,00800000H,0,0    ; COIN CENTER
    1943 0000b770                   BUT_MAC 165,207,10,COLOR_GREEN,01000000H,0,0    ; FOURTH COIN
    1944 0000b800                   BUT_MAC 214,207,10,COLOR_GREEN,00400000H,0,0    ; SERVICE CREDIT
    1945 0000b890                   BUT_MAC 260,199,10,COLOR_GREEN,00080000H,0,0    ; SLAM
    1946 0000b920                   BUT_MAC 260,222,10,COLOR_GREEN,00100000H,0,0    ; TEST
    1947                    
    1948                    
    1949 0000b9b0 00000000          .LONG   0
    1950                    
    1951                            ;       X,Y,RADIUS,COLOR,MASK,SHIFT,EXTEND
    1952 0000b9d0           JOY_TABLE
    1953 0000b9d0                   BUT_MAC P1BC,110,16,CFILL+ROBO_RED,0fH,0,0              ; P1 MOVE
    1954 0000ba60                   BUT_MAC P2BC,110,16,CFILL+ROBO_RED,0f00H,8,0            ; P2 MOVE
    1955 0000baf0                   BUT_MAC P3BC,110,16,CFILL+ROBO_RED,0fh,0,1              ; P3 MOVE
    1956 0000bb80                   BUT_MAC P4BC,110,16,CFILL+ROBO_RED,0f00H,8,1            ; P4 MOVE
    1957 0000bc10 00000000          .LONG   0
    1958                    
    1959                    
    1960 0000bc30           STR_TABLE
    1961 0000bc30                   STR_MAC 116,15,STSTART,ROBO_YELLOW,0    ; JAM SWITCH MESSAGE
    1962                    
    1963 0000bc90                   STR_MAC P1BC-24,47,P1START,ROBO_RED,0   ; P1 START
    1964 0000bcf0                   STR_MAC P2BC-24,47,P2START,ROBO_RED,0   ; P2 START
    1965 0000bd50                   STR_MAC P3BC-24,47,P3START,ROBO_RED,0   ; P1 START
    1966 0000bdb0                   STR_MAC P4BC-24,47,P4START,ROBO_RED,0   ; P2 START
    1967                    
TMS340 COFF Macro Assembler Version 6.10     Tue Dec 19 01:45:19 2023
 Copyright (c) 1985-1991  Texas Instruments Incorporated 

                                                                     PAGE   45

    1968 0000be10                   STR_MAC 94,30,GETOUT1,ROBO_WHITE,0      ;GET OUT MESSAGE 1
    1969                    
    1970 0000be70                   STR_MAC 12,233,LEFTSLOT,COLOR_GREEN,0           ;LEFT COIN
    1971 0000bed0                   STR_MAC 56,233,RIGHTSLOT,COLOR_GREEN,0          ;RIGHT COIN
    1972 0000bf30                   STR_MAC 103,222,CENTER,COLOR_GREEN,0            ;CENTER COIN
    1973 0000bf90                   STR_MAC 147,222,FOURTH,COLOR_GREEN,0            ;COIN MIDDLE
    1974 0000bff0                   STR_MAC 10,222,COINMESS1,COLOR_GREEN,0          ;BOTTOM MESSAGE
    1975 0000c050                   STR_MAC 55,222,COINMESS2,COLOR_GREEN,0
    1976 0000c0b0                   STR_MAC 193,222,SERVICE1,COLOR_GREEN,0          ;SERVICE CREDIT
    1977 0000c110                   STR_MAC 197,233,SERVICE2,COLOR_GREEN,0          ;SERVICE CREDIT
    1978 0000c170                   STR_MAC 275,196,SLAM,COLOR_GREEN,0                      ;SLAM
    1979 0000c1d0                   STR_MAC 275,219,TEST,COLOR_GREEN,0                      ;TEST SWITCH
    1980                    
    1981 0000c230                   STR_MAC P1BC-15,110-3,J1MESS,ROBO_WHITE,0
    1982 0000c290                   STR_MAC P2BC-15,110-3,J2MESS,ROBO_WHITE,0
    1983 0000c2f0                   STR_MAC P3BC-15,110-3,J3MESS,ROBO_WHITE,0
    1984 0000c350                   STR_MAC P4BC-15,110-3,J4MESS,ROBO_WHITE,0
    1985                    
    1986 0000c3b0 00000000          .LONG   0
    1987                    
    1988                    
    1989 0000c3d0           BUT_STRS
    1990 0000c3d0                   STR_MAC P1BC+18,PBCY-4,PASSMESS,ROBO_BLUE,0             ; P1 A2
    1991 0000c430                   STR_MAC P1BC-3,PBCY-16,SHOOTMESS,ROBO_RED,0             ; P1 A1
    1992 0000c490                   STR_MAC P1BC-23,PBCY-4,TURBOMESS,ROBO_WHITE,0           ; P1 A3
    1993                    
    1994 0000c4f0                   STR_MAC P2BC+18,PBCY-4,PASSMESS,ROBO_BLUE,0             ; P1 A2
    1995 0000c550                   STR_MAC P2BC-3,PBCY-16,SHOOTMESS,ROBO_RED,0             ; P1 A1
    1996 0000c5b0                   STR_MAC P2BC-23,PBCY-4,TURBOMESS,ROBO_WHITE,0           ; P1 A3
    1997                    
    1998 0000c610                   STR_MAC P3BC+18,PBCY-4,PASSMESS,ROBO_BLUE,0             ; P1 A2
    1999 0000c670                   STR_MAC P3BC-3,PBCY-16,SHOOTMESS,ROBO_RED,0             ; P1 A1
    2000 0000c6d0                   STR_MAC P3BC-23,PBCY-4,TURBOMESS,ROBO_WHITE,0           ; P1 A3
    2001                    
    2002 0000c730                   STR_MAC P4BC+18,PBCY-4,PASSMESS,ROBO_BLUE,0             ; P1 A2
    2003 0000c790                   STR_MAC P4BC-3,PBCY-16,SHOOTMESS,ROBO_RED,0             ; P1 A1
    2004 0000c7f0                   STR_MAC P4BC-23,PBCY-4,TURBOMESS,ROBO_WHITE,0           ; P1 A3
    2005                    
    2006 0000c850 00000000          .LONG   0
    2007                    
    2008                    
    2009 0000c870           DIP_VECS:
    2010 0000c870                   VECMAC  COLOR_RED,20,32,60,32           ; DS1
    2011 0000c8c0                   VECMAC  COLOR_RED,20,32,20,138
    2012 0000c910                   VECMAC  COLOR_RED,20,138,60,138 
    2013 0000c960                   VECMAC  COLOR_RED,60,32,60,138
    2014                    
    2015 0000c9b0                   VECMAC  COLOR_RED,230,32,270,32 ; DS2
    2016 0000ca00                   VECMAC  COLOR_RED,230,32,230,138
    2017 0000ca50                   VECMAC  COLOR_RED,230,138,270,138       
    2018 0000caa0                   VECMAC  COLOR_RED,270,32,270,138
    2019                    
    2020 0000caf0                   VECMAC  COLOR_WHITE,63,42,73,42
    2021                    
    2022                    
TMS340 COFF Macro Assembler Version 6.10     Tue Dec 19 01:45:19 2023
 Copyright (c) 1985-1991  Texas Instruments Incorporated 

                                                                     PAGE   46

    2023 0000cb40                   VECMAC  COLOR_WHITE,63,54,68,54         ;COINAGE MODE
    2024 0000cb90                   VECMAC  COLOR_WHITE,63,78,68,78
    2025 0000cbe0                   VECMAC  COLOR_WHITE,68,54,68,78
    2026 0000cc30                   VECMAC  COLOR_WHITE,68,66,73,66
    2027                    
    2028 0000cc80                   VECMAC  COLOR_WHITE,63,90,68,90         ;COUNTRY
    2029 0000ccd0                   VECMAC  COLOR_WHITE,63,102,68,102
    2030 0000cd20                   VECMAC  COLOR_WHITE,68,90,68,102
    2031 0000cd70                   VECMAC  COLOR_WHITE,68,96,73,96
    2032                    
    2033 0000cdc0                   VECMAC  COLOR_WHITE,63,114,68,114       ;COIN COUNTER MODE
    2034 0000ce10                   VECMAC  COLOR_WHITE,63,126,68,126
    2035 0000ce60                   VECMAC  COLOR_WHITE,68,114,68,126
    2036 0000ceb0                   VECMAC  COLOR_WHITE,68,120,73,120
    2037                    
    2038 0000cf00                   VECMAC  COLOR_WHITE,273,42,283,42       ;# OF PLAYERS
    2039                    
    2040 0000cf50                   VECMAC  COLOR_WHITE,273,54,283,54       ;UNUSED
    2041                            
    2042 0000cfa0                   VECMAC  COLOR_WHITE,273,66,283,66       ;UNUSED
    2043                    
    2044 0000cff0                   VECMAC  COLOR_WHITE,273,78,283,78       ;UNUSED
    2045                    
    2046 0000d040                   VECMAC  COLOR_WHITE,273,90,283,90       ;UNUSED
    2047                    
    2048 0000d090                   VECMAC  COLOR_WHITE,273,102,283,102     ;UNUSED
    2049                    
    2050                    
    2051                    
    2052 0000d0e0                   VECMAC  COLOR_WHITE,273,114,283,114     ;UNUSED
    2053                    
    2054 0000d130                   VECMAC  COLOR_WHITE,273,126,283,126     ;TEST SWITCH
    2055                    
    2056 0000d180 00000000          .LONG   0
    2057                    
    2058 0000d1a0           DIP_STRS:
    2059 0000d1a0                   STR_MAC 124,8,DP_TITLE,COLOR_GREEN,0
    2060 0000d200                   STR_MAC 30,20,DP_DS1,COLOR_WHITE,0
    2061 0000d260                   STR_MAC 240,20,DP_DS2,COLOR_WHITE,0
    2062 0000d2c0                   STR_MAC 7,39,DP_DSN1,COLOR_WHITE,0
    2063 0000d320                   STR_MAC 7,51,DP_DSN2,COLOR_WHITE,0
    2064 0000d380                   STR_MAC 7,63,DP_DSN3,COLOR_WHITE,0
    2065 0000d3e0                   STR_MAC 7,75,DP_DSN4,COLOR_WHITE,0
    2066 0000d440                   STR_MAC 7,87,DP_DSN5,COLOR_WHITE,0
    2067 0000d4a0                   STR_MAC 7,99,DP_DSN6,COLOR_WHITE,0
    2068 0000d500                   STR_MAC 7,111,DP_DSN7,COLOR_WHITE,0
    2069 0000d560                   STR_MAC 7,123,DP_DSN8,COLOR_WHITE,0
    2070                    
    2071 0000d5c0                   STR_MAC 217,39,DP_DSN1,COLOR_WHITE,0
    2072 0000d620                   STR_MAC 217,51,DP_DSN2,COLOR_WHITE,0
    2073 0000d680                   STR_MAC 217,63,DP_DSN3,COLOR_WHITE,0
    2074 0000d6e0                   STR_MAC 217,75,DP_DSN4,COLOR_WHITE,0
    2075 0000d740                   STR_MAC 217,87,DP_DSN5,COLOR_WHITE,0
    2076 0000d7a0                   STR_MAC 217,99,DP_DSN6,COLOR_WHITE,0
    2077 0000d800                   STR_MAC 217,111,DP_DSN7,COLOR_WHITE,0
TMS340 COFF Macro Assembler Version 6.10     Tue Dec 19 01:45:19 2023
 Copyright (c) 1985-1991  Texas Instruments Incorporated 

                                                                     PAGE   47

    2078 0000d860                   STR_MAC 217,123,DP_DSN8,COLOR_WHITE,0
    2079                    
    2080 0000d8c0                   STR_MAC 100,150,DP_INS1,COLOR_WHITE,0
    2081                    
    2082 0000d920 00000000          .LONG   0
    2083                    
    2084 0000d940           DP_DS1:
    2085 0000d940       55          .STRING "UJ1",0
    2086 0000d960                   .EVEN
    2087 0000d960           DP_DS2:
    2088 0000d960       55          .STRING "UJ2",0
    2089 0000d980                   .EVEN
    2090                    
    2091 0000d980           DP_DSN1
    2092 0000d980       31          .STRING "1",0
    2093 0000d990                   .EVEN
    2094 0000d990           DP_DSN2
    2095 0000d990       32          .STRING "2",0
    2096 0000d9a0                   .EVEN
    2097 0000d9a0           DP_DSN3
    2098 0000d9a0       33          .STRING "3",0
    2099 0000d9b0                   .EVEN
    2100 0000d9b0           DP_DSN4
    2101 0000d9b0       34          .STRING "4",0
    2102 0000d9c0                   .EVEN
    2103 0000d9c0           DP_DSN5
    2104 0000d9c0       35          .STRING "5",0
    2105 0000d9d0                   .EVEN
    2106 0000d9d0           DP_DSN6
    2107 0000d9d0       36          .STRING "6",0
    2108 0000d9e0                   .EVEN    
    2109 0000d9e0           DP_DSN7
    2110 0000d9e0       37          .STRING "7",0
    2111 0000d9f0                   .EVEN
    2112 0000d9f0           DP_DSN8
    2113 0000d9f0       38          .STRING "8",0
    2114 0000da00                   .EVEN
    2115                    
    2116 0000da00           DUSECMOS_1:
    2117 0000da00       43          .STRING "CMOS COINAGE",0
    2118 0000da70                   .EVEN
    2119                    
    2120 0000da70           DUSECMOS_0:
    2121 0000da70       44          .STRING "DIPSWITCH COINAGE",0
    2122 0000db00                   .EVEN
    2123                    
    2124 0000db00           DMIRROR_0
    2125 0000db00       4d          .STRING "MIRROR DISPLAY",0
    2126 0000db80                   .EVEN
    2127                    
    2128 0000db80           DMIRROR_1
    2129 0000db80       4e          .STRING "NORMAL DISPLAY",0
    2130 0000dc00                   .EVEN
    2131                    
    2132 0000dc00           DCOUNTER_0a
TMS340 COFF Macro Assembler Version 6.10     Tue Dec 19 01:45:19 2023
 Copyright (c) 1985-1991  Texas Instruments Incorporated 

                                                                     PAGE   48

    2133 0000dc00       4f          .STRING "ONE COIN COUNTER",0
    2134 0000dc90                   .EVEN
    2135 0000dc90           DCOUNTER_0b
    2136 0000dc90       31          .STRING "1 COUNT/COIN",0
    2137 0000dd00                   .EVEN
    2138                    
    2139 0000dd00           DCOUNTER_1a
    2140 0000dd00       54          .STRING "TWO COIN COUNTERS",0
    2141 0000dd90                   .EVEN
    2142 0000dd90           DCOUNTER_1b
    2143 0000dd90       31          .STRING "1 COUNT/COIN",0
    2144 0000de00                   .EVEN
    2145                    
    2146 0000de00           DCOUNTER_2a
    2147 0000de00       4f          .STRING "ONE COIN COUNTER",0
    2148 0000de90                   .EVEN
    2149 0000de90           DCOUNTER_2b
    2150 0000de90       54          .STRING "TOTALIZING ",0
    2151 0000def0                   .EVEN
    2152                    
    2153                    
    2154 0000def0           DCOUNTER_TAB
    2155 0000def0 0000dc00'         .LONG   DCOUNTER_0a, DCOUNTER_0b
    2156 0000df30 0000dd00'         .LONG   DCOUNTER_1a, DCOUNTER_1b
    2157 0000df70 0000de00'         .LONG   DCOUNTER_2a, DCOUNTER_2b
    2158 0000dfb0 0000dc00'         .LONG   DCOUNTER_0a, DCOUNTER_0b
    2159                    
    2160 0000dff0           DCOINAGE
    2161 0000dff0       43          .STRING "COINAGE",0
    2162 0000e030                   .EVEN
    2163                    
    2164 0000e030           DCOUNTRY_0
    2165 0000e030       55          .STRING "USA",0
    2166 0000e050                   .EVEN
    2167 0000e050           DCOUNTRY_2
    2168 0000e050       46          .STRING "FRENCH",0
    2169 0000e090                   .EVEN
    2170                    
    2171 0000e090           DPLAYER_TAB
    2172 0000e090 0000e300'         .LONG   DPLAYER_0, DPLAYER_1
    2173                    
    2174 0000e0d0           DCOUNTRY_1
    2175 0000e0d0       47          .STRING "GERMAN",0
    2176 0000e110                   .EVEN
    2177                    
    2178 0000e110           DCOUNTRY_TAB
    2179 0000e110 0000e030'         .LONG   DCOUNTRY_0, DCOUNTRY_1, DCOUNTRY_2, DCOUNTRY_3
    2180                    
    2181 0000e190           DCREDITS
    2182 0000e190       43          .STRING "CREDITS...",0
    2183 0000e1f0                   .EVEN
    2184 0000e1f0           DTOSTART
    2185 0000e1f0       54          .STRING "TO START",0
    2186 0000e240                   .EVEN
    2187 0000e240           DTOCONTINUE
TMS340 COFF Macro Assembler Version 6.10     Tue Dec 19 01:45:19 2023
 Copyright (c) 1985-1991  Texas Instruments Incorporated 

                                                                     PAGE   49

    2188 0000e240       54          .STRING "TO CONTINUE",0
    2189 0000e2a0                   .EVEN
    2190                    
    2191 0000e2a0           DTEST_0
    2192 0000e2a0       54          .STRING "TEST SWITCH",0
    2193 0000e300                   .EVEN
    2194                    
    2195 0000e300           DPLAYER_0
    2196 0000e300       34          .STRING "4 PLAYER KIT",0
    2197 0000e370                   .EVEN
    2198 0000e370           DPLAYER_1
    2199 0000e370       32          .STRING "2 PLAYER KIT",0
    2200 0000e3e0                   .EVEN
    2201                    
    2202 0000e3e0           DNOVALIDATOR
    2203 0000e3e0       4e          .STRING "NO VALIDATOR",0
    2204 0000e450                   .EVEN
    2205 0000e450           DVALIDATOR
    2206 0000e450       56          .STRING "VALIDATOR INST.",0
    2207 0000e4d0                   .EVEN
    2208 0000e4d0           DCLIPS
    2209 0000e4d0       55          .STRING "UNUSED",0
    2210 0000e510                   .EVEN
    2211 0000e510           DNOCLIPS
    2212 0000e510       55          .STRING "UNUSED",0
    2213 0000e550                   .EVEN
    2214 0000e550           DPOWER
    2215 0000e550       50          .STRING "POWERUP TEST",0
    2216 0000e5c0                   .EVEN
    2217 0000e5c0           DNOPOWER
    2218 0000e5c0       53          .STRING "SKIP TEST",0
    2219 0000e610                   .EVEN
    2220                    
    2221 0000e610           DUCOIN7
    2222 0000e610       46          .STRING "FREEPLAY",0
    2223 0000e660                   .EVEN
    2224                    
    2225 0000e660           DCOINTAB
    2226 0000e660 0000e8d0'         .LONG   DUCOINTAB, DGCOINTAB, DFCOINTAB, DUCOINTAB
    2227                    
    2228 0000e6e0           DP_TITLE
    2229 0000e6e0       44          .STRING "DIPSWITCH SETTINGS",0
    2230 0000e780                   .EVEN
    2231                    
    2232 0000e780           DP_INS1
    2233 0000e780       50          .STRING "PRESS ANY BUTTON TO EXIT",0
    2234 0000e850                   .EVEN
    2235                    
    2236 0000e850           DP_ON
    2237 0000e850       4f          .STRING "ON",0
    2238 0000e870                   .EVEN
    2239 0000e870           DP_OFF
    2240 0000e870       4f          .STRING "OFF",0
    2241                    
    2242 0000e890           DUNUSED
TMS340 COFF Macro Assembler Version 6.10     Tue Dec 19 01:45:19 2023
 Copyright (c) 1985-1991  Texas Instruments Incorporated 

                                                                     PAGE   50

    2243 0000e890           DGCOIN4
    2244 0000e890           DCOUNTRY_3 
    2245 0000e890       55          .STRING "UNUSED",0
    2246 0000e8d0                   .EVEN
    2247                    
    2248 0000e8d0           DUCOINTAB
    2249 0000e8d0 00000000!         .LONG   USA_1,USA_2,USA_3,USA_4,USA_ELECTITLE,DGCOIN4
    2250 0000e990 0000e890'         .LONG   DGCOIN4,DUCOIN7
    2251                    
    2252 0000e9d0           DGCOINTAB
    2253 0000e9d0 00000000!         .LONG   GERMAN_1,GERMAN_2,GERMAN_3,GERMAN_4,GERMAN_ELECTITLE
    2254 0000ea70 0000e890'         .LONG   DGCOIN4,DGCOIN4,DUCOIN7
    2255                    
    2256 0000ead0           DFCOINTAB
    2257 0000ead0 00000000!         .LONG   FRENCH_1,FRENCH_2,FRENCH_3,FRENCH_4,FRENCH_ELECTITLE
    2258 0000eb70 0000e890'         .LONG   DGCOIN4,DGCOIN4,DUCOIN7
    2259                    
    2260 0000ebd0           DCREDTAB
    2261 0000ebd0 0000d990'         .LONG   DP_DSN2,DP_DSN1
    2262 0000ec10 0000d980'         .LONG   DP_DSN1,DP_DSN1
    2263 0000ec50 0000d990'         .LONG   DP_DSN2,DP_DSN2
    2264 0000ec90 0000d9a0'         .LONG   DP_DSN3,DP_DSN1
    2265 0000ecd0 0000d9b0'         .LONG   DP_DSN4,DP_DSN1
    2266 0000ed10 0000d9a0'         .LONG   DP_DSN3,DP_DSN2
    2267 0000ed50 0000d9b0'         .LONG   DP_DSN4,DP_DSN2
    2268 0000ed90 0000d9a0'         .LONG   DP_DSN3,DP_DSN3
    2269                    
    2270                    
    2271                            .if 0
    2272                    dip_t
    2273                            STR_MAC 090h,20h,DIPMES0,ROBO_YELLOW,0 ;DIP SWITCH TEST
    2274                            STR_MAC DS1_XPOS+16,3Ch,DIPMES1,ROBO_GREEN,0    ;DIP SWITCH 1
    2275                            STR_MAC DS2_XPOS+16,3Ch,DIPMES2,ROBO_GREEN,0    ;DIP SWITCH 2
    2276                            STR_MAC 200-12*8,220,GETOUT2,ROBO_GREEN,0       ;exit message
    2277                            .LONG   0
    2278                    
    2279                    dipline_t
    2280                            .word   20,10,379,10
    2281                            .word   379,10,379,245
    2282                            .word   379,245,20,245
    2283                            .word   20,245,20,10
    2284                    
    2285                            .word   DS1_XPOS+12,DIP_YPOS-4,         DS1_XPOS+43,DIP_YPOS-4
    2286                            .word   DS1_XPOS+12,DIP_YPOS+109,       DS1_XPOS+43,DIP_YPOS+109
    2287                            .word   DS1_XPOS+12,DIP_YPOS-4,         DS1_XPOS+12,DIP_YPOS+109
    2288                            .word   DS1_XPOS+43,DIP_YPOS-4,         DS1_XPOS+43,DIP_YPOS+109
    2289                    
    2290                            .word   DS2_XPOS+12,DIP_YPOS-4,         DS2_XPOS+43,DIP_YPOS-4
    2291                            .word   DS2_XPOS+12,DIP_YPOS+109,       DS2_XPOS+43,DIP_YPOS+109
    2292                            .word   DS2_XPOS+12,DIP_YPOS-4,         DS2_XPOS+12,DIP_YPOS+109
    2293                            .word   DS2_XPOS+43,DIP_YPOS-4,         DS2_XPOS+43,DIP_YPOS+109
    2294                    
    2295                            .long   -1
    2296                    
    2297                    dipline2
TMS340 COFF Macro Assembler Version 6.10     Tue Dec 19 01:45:19 2023
 Copyright (c) 1985-1991  Texas Instruments Incorporated 

                                                                     PAGE   51

    2298                            .word   DS1_XPOS+45,DIP_YPOS+3,         DS1_XPOS+48,DIP_YPOS+3
    2299                            .word   DS1_XPOS+45,DIP_YPOS+4+5*14,    DS1_XPOS+48,DIP_YPOS+4+5*14
    2300                            .word   DS1_XPOS+48,DIP_YPOS+3,         DS1_XPOS+48,DIP_YPOS+4+5*14
    2301                            .word   DS1_XPOS+49,DIP_YPOS-2+3*14,    DS1_XPOS+51,DIP_YPOS-2+3*14
    2302                            .word   DS1_XPOS+45,DIP_YPOS+4+6*14,    DS1_XPOS+51,DIP_YPOS+4+6*14
    2303                            .word   DS2_XPOS+45,DIP_YPOS+4,         DS2_XPOS+51,DIP_YPOS+4
    2304                            .long   -1
    2305                    
    2306                    country_text
    2307                            .long   cntry0,cntry1,cntry2,cntry3     ;4
    2308                            .long   cntry4,cntry5,cntry6,cntry7     ;8
    2309                            .long   cntry8,cntry9,cntry10,cntry11   ;12
    2310                            .long   cntry12,cntry13,cntry14,cntry15 ;16
    2311                            .long   cntry16,cntry17,cntry18,cntry19 ;20
    2312                            .long   cntry20,cntry21,cntry22,cntry23 ;24
    2313                            .long   cntry24,cntry25,cntry26,cntry0  ;28
    2314                            .long   cntry0,cntry0,cntry0,cntry0     ;32
    2315                    
    2316                            .long   cntry0,cntry0,cntry0,cntry0     ;36
    2317                            .long   cntry0,cntry0,cntry0,cntry0     ;40
    2318                            .long   cntry0,cntry0,cntry0,cntry0     ;44
    2319                            .long   cntry0,cntry0,cntry0,cntry0     ;48
    2320                            .long   cntry0,cntry0,cntry0,cntry0     ;52
    2321                            .long   cntry0,cntry0,cntry0,cntry0     ;56
    2322                            .long   cntry0,cntry0,cntry0,cntry0     ;60
    2323                            .long   cntry0,cntry0,cntry0,cntry0     ;64
    2324                    
    2325                    cntry0  .string "USA 1",0       ;0
    2326                    cntry1  .string "USA 2",0       ;1
    2327                    cntry2  .string "USA 3",0       ;2
    2328                    cntry3  .string "GERMANY 1",0   ;3
    2329                    cntry4  .string "GERMANY 2",0   ;4
    2330                    cntry5  .string "GERMANY 3",0   ;5
    2331                    cntry6  .string "FRANCE 1",0    ;6
    2332                    cntry7  .string "FRANCE 2",0    ;7
    2333                    cntry8  .string "FRANCE 3",0    ;8
    2334                    cntry9  .string "SWISS 1",0     ;9
    2335                    cntry10 .string "ITALY",0       ;10
    2336                    cntry11 .string "UK 1",0        ;11
    2337                    cntry12 .string "UK 2",0        ;12
    2338                    cntry13 .string "UK ELEC",0     ;13
    2339                    cntry14 .string "SPAIN 1",0     ;14
    2340                    cntry15 .string "AUSTRALIA 1",0 ;15
    2341                    cntry16 .string "JAPAN 1",0     ;16
    2342                    cntry17 .string "JAPAN 2",0     ;17
    2343                    cntry18 .string "AUSTRIA 1",0   ;18
    2344                    cntry19 .string "BELGIUM 1",0   ;19
    2345                    cntry20 .string "BELGIUM 2",0   ;20
    2346                    cntry21 .string "SWEDEN",0      ;21
    2347                    cntry22 .string "NEW ZEALAND",0 ;22
    2348                    cntry23 .string "NETHERLANDS",0 ;23
    2349                    cntry24 .string "FINLAND",0     ;24
    2350                    cntry25 .string "NORWAY",0      ;25
    2351                    cntry26 .string "DENMARK",0     ;26
    2352                    
TMS340 COFF Macro Assembler Version 6.10     Tue Dec 19 01:45:19 2023
 Copyright (c) 1985-1991  Texas Instruments Incorporated 

                                                                     PAGE   52

    2353                    DIP_COIN1       .string "CMOS COINAGE",0
    2354                    DIP_COIN2       .string "DIP COINAGE",0
    2355                    DIP_TESTSW1     .string "TEST MODE",0
    2356                    DIP_TESTSW2     .string "GAME MODE",0
    2357                    
    2358                    DIPMES0 .STRING "DIP SWITCH TEST",0
    2359                    DIPMES1 .STRING "DS1",0
    2360                    DIPMES2 .STRING "DS2",0
    2361                    DIPMES01        .string "1",0
    2362                    DIPMES02        .string "2",0
    2363                    DIPMES03        .string "3",0
    2364                    DIPMES04        .string "4",0
    2365                    DIPMES05        .string "5",0
    2366                    DIPMES06        .string "6",0
    2367                    DIPMES07        .string "7",0
    2368                    DIPMES08        .string "8",0
    2369                    DIPMES18
    2370                            .STRING "1 2 3 4 5 6 7 8",0
    2371                    DIPON   .STRING "ON",0
    2372                    DIPOFF  .STRING "OFF",0
    2373                    
    2374                            .endif
    2375                    
    2376 0000edd0           LEFTSLOT
    2377 0000edd0       4c          .STRING "LEFT",0
    2378 0000ee00                   .EVEN
    2379 0000ee00           RIGHTSLOT
    2380 0000ee00       52          .STRING "RIGHT",0
    2381 0000ee30                   .EVEN
    2382 0000ee30           SERVICE1
    2383 0000ee30       53          .STRING "SERVICE",0
    2384 0000ee70                   .EVEN
    2385 0000ee70           SERVICE2
    2386 0000ee70       43          .STRING "CREDIT",0
    2387 0000eeb0                   .EVEN
    2388                    
    2389 0000eeb0           COINMESS1
    2390 0000eeb0       43          .STRING "COIN1",0
    2391 0000eee0                   .EVEN
    2392 0000eee0           COINMESS2
    2393 0000eee0       43          .STRING "COIN2",0       
    2394 0000ef10                   .EVEN
    2395                    
    2396 0000ef10           CENTER
    2397 0000ef10       43          .STRING "COIN3",0
    2398 0000ef40                   .EVEN
    2399 0000ef40           FOURTH
    2400 0000ef40       43          .STRING "COIN4",0
    2401 0000ef70                   .EVEN
    2402                    
    2403 0000ef70           SLAM
    2404 0000ef70       53          .STRING "SLAM - TILT",0
    2405 0000efd0                   .EVEN
    2406 0000efd0           TEST
    2407 0000efd0       54          .STRING "TEST",0
TMS340 COFF Macro Assembler Version 6.10     Tue Dec 19 01:45:19 2023
 Copyright (c) 1985-1991  Texas Instruments Incorporated 

                                                                     PAGE   53

    2408 0000f000                   .EVEN
    2409                    
    2410 0000f000       4a  J1MESS  .string "JOY1",0
    2411 0000f028       4a  J2MESS  .string "JOY2",0
    2412 0000f050       4a  J3MESS  .string "JOY3",0
    2413 0000f078       4a  J4MESS  .string "JOY4",0
    2414                    
    2415 0000f0a0       50  PASSMESS .STRING        "P",0
    2416 0000f0b0       53  SHOOTMESS .STRING       "S",0
    2417 0000f0c0       54  TURBOMESS .STRING       "T",0
    2418                    
    2419 0000f0d0       50  GETOUT2 .STRING "PRESS ANY BUTTON TO EXIT",0
    2420 0000f198       53  GETOUT1 .STRING "START1 AND START2 TO EXIT",0
    2421 0000f270                   .EVEN
    2422                    
    2423 0000f270       4e  STSTART .STRING "NBA JAM SWITCHES",0
    2424 0000f300                   .EVEN
    2425                    
    2426 0000f300       53  P1START .STRING "START1",0
    2427 0000f340                   .EVEN
    2428 0000f340       53  P2START .STRING "START2",0
    2429 0000f380                   .EVEN
    2430 0000f380       53  P3START .STRING "START3",0
    2431 0000f3c0                   .EVEN
    2432 0000f3c0       53  P4START .STRING "START4",0
    2433 0000f400                   .EVEN
    2434                    
    2435 0000f400           LEFTMESS
    2436 0000f400       4c          .STRING "LFT",0
    2437 0000f420                   .EVEN
    2438 0000f420           RIGHTMESS
    2439 0000f420       52          .STRING "RT",0
    2440 0000f440                   .EVEN
    2441 0000f440           UPMESS
    2442 0000f440       55          .STRING "UP",0
    2443 0000f460                   .EVEN
    2444 0000f460           DOWNMESS
    2445 0000f460       44          .STRING "DWN",0
    2446 0000f480                   .EVEN
    2447                    
    2448 0000f480           P1MOVE
    2449 0000f480       50          .STRING "P1 MOVE",0
    2450 0000f4c0                   .EVEN
    2451 0000f4c0           P2MOVE
    2452 0000f4c0       50          .STRING "P2 MOVE",0
    2453 0000f500                   .EVEN
    2454 0000f500           P3MOVE
    2455 0000f500       50          .STRING "P3 MOVE",0
    2456 0000f540                   .EVEN
    2457 0000f540           P4MOVE
    2458 0000f540       50          .STRING "P4 MOVE",0
    2459 0000f580                   .EVEN
    2460                    
    2461                    
    2462                    
TMS340 COFF Macro Assembler Version 6.10     Tue Dec 19 01:45:19 2023
 Copyright (c) 1985-1991  Texas Instruments Incorporated 

                                                                     PAGE   54

    2463 0000f580           INITCOLR
    2464                    
    2465 0000f580     09e0          MOVI    COLRAM,A0,L             ; PALETTE LOCATION
         0000f590 01800000  
    2466                    
    2467                            .ref    DIAGP
    2468                    
    2469 0000f5b0     09e1          MOVI    DIAGP,A1,L
         0000f5c0 00000000! 
    2470 0000f5e0     9422          MOVE    *A1+,A2,W               ; LENGTH OF PALETTE
    2471 0000f5f0           LPLP1
    2472 0000f5f0     9820          MOVE    *A1+,*A0+,W
    2473 0000f600     3c42          DSJS    A2,LPLP1                ; KEEP ON CHUGGIN, BABY
    2474                    
    2475 0000f610     57ce          CLR  A14
    2476 0000f620     058e          MOVE A14, @CMAPSEL
         0000f630 01a80080  
    2477                    
    2478 0000f650                   FRET B5
    2479                    
    2480 0000f660           POINT:
    2481 0000f660     0b00          ADDI    SCRXFUDGE,A0
         0000f670     0038  
    2482                    
    2483 0000f680     09d3          MOVI SCRN_PTCH, DPTCH
         0000f690     1000  
    2484 0000f6a0     5694          CLR  OFFSET
    2485                    
    2486 0000f6b0     6a7a          LMO  DPTCH, B10
    2487 0000f6c0     059a          MOVE B10, @CONVDP
         0000f6d0 c0000140  
    2488                    
    2489 0000f6f0     f020          PIXT A1, *A0.XY
    2490                    
    2491 0000f700                   FRET B6
    2492                    
    2493                    
    2494 0000f710           RECTANGLE:
    2495 0000f710     0b00          ADDI    SCRXFUDGE,A0
         0000f720     0038  
    2496                    
    2497 0000f730     09d3          MOVI SCRN_PTCH, DPTCH
         0000f740     1000  
    2498 0000f750     5694          CLR  OFFSET
    2499                    
    2500 0000f760     6a7a          LMO  DPTCH, B10
    2501 0000f770     059a          MOVE B10, @CONVDP
         0000f780 c0000140  
    2502                    
    2503 0000f7a0     4e49          MOVE A2, COLOR1
    2504 0000f7b0     4e02          MOVE A0, DADDR
    2505 0000f7c0     4e27          MOVE A1, DYDX
    2506                    
    2507 0000f7d0     0fe0          FILL  XY
    2508                    
TMS340 COFF Macro Assembler Version 6.10     Tue Dec 19 01:45:19 2023
 Copyright (c) 1985-1991  Texas Instruments Incorporated 

                                                                     PAGE   55

    2509 0000f7e0     0be0          SUBI    SCRXFUDGE,A0
         0000f7f0     ffc7  
    2510                    
    2511 0000f800                   FRET B6
    2512                    
    2513                    
    2514 0000f810           HVLINE
    2515 0000f810     09c3          MOVI    SCRXFUDGE,A3
         0000f820     0038  
    2516 0000f830     e060          ADDXY   A3,A0
    2517 0000f840     e061          ADDXY   A3,A1
    2518                    
    2519 0000f850     09d3          MOVI    SCRN_PTCH,DPTCH
         0000f860     1000  
    2520 0000f870     5694          CLR     OFFSET
    2521                    
    2522 0000f880     6a7a          LMO     DPTCH,B10
    2523 0000f890     059a          MOVE    B10,@CONVDP
         0000f8a0 c0000140  
    2524                    
    2525 0000f8c0     4e49          MOVE    A2,COLOR1
    2526                    
    2527 0000f8d0     1822          MOVK    1, A2                   ; DRAV DX: ASSUME HORIZONTAL LINE
    2528                    
    2529 0000f8e0     4c03          MOVE    A0,A3                   ; DETERMINE (P2 > P1) OR (P2 < P1)
    2530 0000f8f0     e863          CVXYL   A3,A3
    2531                    
    2532 0000f900     4c24          MOVE    A1,A4
    2533 0000f910     e884          CVXYL   A4,A4
    2534                    
    2535 0000f920     4864          CMP     A3,A4                   ; IF (P2 < P1) ~(INCREMENT)
    2536 0000f930     c102          JRP     $100
    2537                    
    2538 0000f940     03a2          NEG     A2                      ; INCREMENT IS A SIGNED WORD
    2539 0000f950     0522          ZEXT    A2
    2540                    
    2541 0000f960     e401  $100    CMPXY   A0,A1                   ; IF VERTICAL LINE
    2542 0000f970     ca01          JRZ     $110                    ; DRAV DX -> DRAV DY
    2543 0000f980     2602          SLL     16,A2
    2544                            
    2545 0000f990     f640  $110    DRAV    A2,A0                   ; DRAW LINE
    2546 0000f9a0     e401          CMPXY   A0,A1
    2547 0000f9b0     cffd          JRNN    $110
    2548 0000f9c0     cbfc          JRNZ    $110
    2549                    
    2550 0000f9d0                   FRET B6
    2551                    
    2552                    
    2553                    
    2554 0000f9e0            SUBRP  line_draw
    2555                    
    2556 0000f9e0     0b00          ADDI    SCRXFUDGE,A0
         0000f9f0     0038  
    2557 0000fa00     0b01          ADDI    SCRXFUDGE,A1
         0000fa10     0038  
TMS340 COFF Macro Assembler Version 6.10     Tue Dec 19 01:45:19 2023
 Copyright (c) 1985-1991  Texas Instruments Incorporated 

                                                                     PAGE   56

    2558                    
    2559 0000fa20     4e49          move    a2,COLOR1
    2560 0000fa30     09d3          movi    SCRN_PTCH,DPTCH
         0000fa40     1000  
    2561 0000fa50     5694          clr     OFFSET          ;B4
    2562 0000fa60     6a70          lmo     DPTCH,b0
    2563 0000fa70     0590          move    b0,@CONVDP
         0000fa80 c0000140  
    2564                    
    2565 0000faa0     4e02          move    a0,b2           ;YX strt
    2566 0000fab0     4e2a          move    a1,b10          ;YX end
    2567 0000fac0     56f7          clr     b7              ;b:a
    2568 0000fad0     e25a          subxy   b2,b10
    2569 0000fae0     c90b          jrnc    bpos
    2570 0000faf0     cd04          jrnv    bneg_apos
    2571 0000fb00     e357          subxy   b10,b7
    2572 0000fb10     09db          movi    -1,b11
         0000fb20     ffff  
    2573 0000fb30     c011          jruc    cmp_b_a
    2574 0000fb40           bneg_apos
    2575 0000fb40     e357          subxy   b10,b7
    2576 0000fb50     ed57          movx    b10,b7
    2577 0000fb60     09fb          movi    0ffff0000H,b11
         0000fb70 ffff0000  
    2578 0000fb90     c00b          jruc    cmp_b_a
    2579 0000fba0     cd06  bpos    jrnv    bpos_apos
    2580 0000fbb0           bpos_aneg
    2581 0000fbb0     e357          subxy   b10,b7
    2582 0000fbc0     ef57          movy    b10,b7
    2583 0000fbd0     09fb          movi    01ffffH,b11
         0000fbe0 0001ffff  
    2584 0000fc00     c004          jruc    cmp_b_a
    2585 0000fc10           bpos_apos
    2586 0000fc10     4d57          move    b10,b7
    2587 0000fc20     09fb          movi    010001H,b11
         0000fc30 00010001  
    2588 0000fc50     579c  cmp_b_a clr     b12
    2589                    
    2590 0000fc60     4cf0          move    b7,b0
    2591 0000fc70     2e10          srl     16,b0
    2592 0000fc80     575a          clr     b10
    2593 0000fc90     ecfa          movx    b7,b10
    2594 0000fca0     481a          cmp     b0,b10
    2595 0000fcb0     c70b          jrgt    a_ge_b
    2596                    
    2597 0000fcc0     4c1a          move    b0,b10
    2598 0000fcd0     ecf0          movx    b7,b0
    2599 0000fce0     3217          rl      16,b7           ;Swap b:a
    2600 0000fcf0     ef7c          movy    b11,b12
    2601 0000fd00     2430          sll     1,b0
    2602 0000fd10     4550          sub     b10,b0
    2603 0000fd20     103a          addk    1,b10
    2604 0000fd30     4d7b          move    b11,b11
    2605 0000fd40     ce07          jrn     line1
    2606 0000fd50     df1a  line0   line    0
TMS340 COFF Macro Assembler Version 6.10     Tue Dec 19 01:45:19 2023
 Copyright (c) 1985-1991  Texas Instruments Incorporated 

                                                                     PAGE   57

    2607 0000fd60     c006          jruc    ldx
    2608                    
    2609 0000fd70     ed7c  a_ge_b  movx    b11,b12
    2610 0000fd80     2430          sll     1,b0
    2611 0000fd90     4550          sub     b10,b0
    2612 0000fda0     4d7b          move    b11,b11
    2613 0000fdb0     cff9          jrnn    line0
    2614 0000fdc0     df9a  line1   line    1
    2615                    
    2616 0000fdd0           ldx     FRET B6
    2617                    
    2618                    
    2619 0000fde0           STRNEW1
    2620 0000fde0     098f          MMTM    SP,A1,A2,A3,A4,A5,A6
         0000fdf0     7e00  
    2621 0000fe00                   FCALL   STRING,B6
    2622 0000fe40     09af          MMFM    SP,A1,A2,A3,A4,A5,A6
         0000fe50     007e  
    2623 0000fe60     0960          RETS
    2624 0000fe70           STRNEW
    2625 0000fe70                   PUSH    a0
    2626 0000fe80     0d3f          CALLR   STRNEW1
         0000fe90     fff4  
    2627 0000fea0     09af          MMFM    SP,A0
         0000feb0     0001  
    2628 0000fec0     0960          RETS
    2629                    
    2630 0000fed0           STRING
    2631 0000fed0     0b01          ADDI    SCRXFUDGE,A1
         0000fee0     0038  
    2632                    
    2633 0000fef0     09d3          MOVI    SCRN_PTCH,DPTCH
         0000ff00     1000  
    2634 0000ff10     5694          CLR     OFFSET
    2635                    
    2636 0000ff20     6a7a          LMO     DPTCH,B10
    2637 0000ff30     059a          MOVE    B10,@CONVDP
         0000ff40 c0000140  
    2638                    
    2639 0000ff60     4e69          MOVE    A3,COLOR1 
    2640 0000ff70     5718          CLR     COLOR0
    2641                    
    2642                    
    2643 0000ff80     8e04  $200    MOVB    *A0,A4                  ;GET CHARACTER
    2644 0000ff90     ca2d          JRZ     $230                    ;QUIT IF NULL
    2645                    
    2646 0000ffa0     1100          ADDK    8,A0
    2647 0000ffb0     1404          SUBK    32,A4                   ;GET POINTER TO CHARACTER HEADER
    2648 0000ffc0     2464          SLL     3,A4
    2649 0000ffd0     0b24          ADDI    SYSFONT,A4,L
         0000ffe0 00014490' 
    2650 00010000     8e84          MOVB    *A4,A4
    2651 00010010     24a4          SLL     5,A4
    2652 00010020     0b24          ADDI    T2_SP,A4
         00010030 00013f90' 
TMS340 COFF Macro Assembler Version 6.10     Tue Dec 19 01:45:19 2023
 Copyright (c) 1985-1991  Texas Instruments Incorporated 

                                                                     PAGE   58

    2653 00010050     9485          MOVE    *A4+,A5                 ;CHAR DIMENSIONS
    2654 00010060     4ca6          MOVE    A5,A6                   ;SPLIT UP BYTE
    2655 00010070     2586          SLL     12,A6                   ;SHIFT UP HEIGHT TO Y
    2656 00010080     2785          SLL     28,A5                   ;STRIP AWAY HEIGHT
    2657 00010090     2c85          SRL     28,A5
    2658 000100a0     eec5          MOVY    A6,A5
    2659 000100b0     3205          RL      16,A5
    2660 000100c0     4ea7          MOVE    A5,DYDX
    2661                    
    2662 000100d0     56c6          CLR     A6                      ;A6 = CHAR WIDTH
    2663 000100e0     eca6          MOVX    A5,A6
    2664                    
    2665 000100f0     10e6          ADDK    7, A6                   ;ROUND UP WIDTH TO INTEGRAL NUMBER
    2666 00010100     2fa6          SRL     3, A6                   ;OF BYTES = SOURCE PITCH
    2667 00010110     2466          SLL     3, A6
    2668 00010120     4ec1          MOVE    A6,SPTCH
    2669                    
    2670 00010130     8486          MOVE    *A4,A6                  ;CHAR DATA
    2671 00010140     0b26          ADDI    CBASE,A6
         00010150 00014668' 
    2672 00010170     4ec0          MOVE    A6,SADDR
    2673                            
    2674 00010180     4e22          MOVE    A1,DADDR
    2675                    
    2676 00010190     0fa0          PIXBLT  B,XY
    2677                    
    2678 000101a0     56c6          CLR     A6
    2679 000101b0     4c42          MOVE    A2,A2
    2680 000101c0     ca06          JRZ     $210
    2681                    
    2682 000101d0     eea6          MOVY    A5,A6                   ;A1 += (CHAR HEIGHT + SPACING)
    2683 000101e0     2e06          SRL     16,A6                   ;DIRECTION = DOWN
    2684 000101f0     1026          ADDK    1,A6
    2685 00010200     2606          SLL     16,A6
    2686 00010210     40c1          ADD     A6,A1
    2687 00010220     c0d5          JRUC    $200
    2688                            
    2689 00010230     eca6  $210    MOVX    A5,A6                   ;A1 += (CHAR WIDTH + SPACING)
    2690 00010240     1046          ADDK    2,A6                    ;DIRECTION = RIGHT
    2691 00010250     40c1          ADD     A6,A1
    2692 00010260     c0d1          JRUC    $200
    2693                    
    2694 00010270           $230                                    ;SETF 16, 1, 0
    2695 00010270                   FRET B6
    2696                    
    2697 00010280           STRINGCENTER:
    2698 00010280     0548          SETF    8, 0, 0
    2699 00010290     5621          CLR     A1
    2700 000102a0     4c02          MOVE    A0,A2
    2701 000102b0           SPLLOOP
    2702 000102b0     9404          MOVE    *A0+, A4                ; GET THE CHAR
    2703 000102c0     ca10          JRZ     SPLEND                  ; END OF STRING
    2704                    
    2705 000102d0     1404          SUBK    32, A4                  ; GET POINTER TO CHARACTER HEADER
    2706                    
TMS340 COFF Macro Assembler Version 6.10     Tue Dec 19 01:45:19 2023
 Copyright (c) 1985-1991  Texas Instruments Incorporated 

                                                                     PAGE   59

    2707 000102e0     2464          SLL     3,A4
    2708 000102f0     0b24          ADDI    SYSFONT,A4,L
         00010300 00014490' 
    2709 00010320     8e84          MOVB    *A4,A4
    2710 00010330     24a4          SLL     5,A4
    2711 00010340     0b24          ADDI    T2_SP,A4
         00010350 00013f90' 
    2712                    
    2713 00010370     9685          MOVE    *A4+, A5, 1             ; CHAR DIMENSIONS
    2714 00010380     0525          ZEXT    A5
    2715                    
    2716 00010390     2f85          SRL     4,A5                    ; GET JUST THE X DIMENSION
    2717                    
    2718                            
    2719 000103a0     1045          ADDK    2H, A5                  ; GIVE IN TO SPACING
    2720 000103b0     40a1          ADD     A5, A1
    2721 000103c0     c0ee          JRUC    SPLLOOP
    2722                    
    2723 000103d0           SPLEND
    2724 000103d0     0570          SETF    16, 1, 0
    2725 000103e0     4c40          MOVE    A2,A0                   ; RESTORE STRING ADDRESS
    2726 000103f0     2fe1          SRL     1,A1
    2727 00010400     09c2          MOVI    200,A2
         00010410     00c8  
    2728 00010420     4422          SUB     A1,A2
    2729 00010430     4c41          MOVE    A2,A1
    2730 00010440                   FRET    B6
    2731                    
    2732                    
    2733 00010450           CIRCLE
    2734 00010450     0b01          ADDI    SCRXFUDGE,A1
         00010460     0038  
    2735                    
    2736 00010470     09e7          movi  plot8,a7               ; assume no fill
         00010480 00010710' 
    2737 000104a0     1de6          btst  16,a6
    2738 000104b0     ca03          jrz   CIRC0
    2739 000104c0     09e7          movi  fill4,a7
         000104d0 00010890' 
    2740 000104f0           CIRC0
    2741 000104f0     09d3          movi    SCRN_PTCH,DPTCH         ;Restore screen pitch and convdp
         00010500     1000  
    2742 00010510     1a7a          movk    013H,b10                        ;this is faster
    2743 00010520     059a          MOVE    B10,@CONVDP
         00010530 c0000140  
    2744 00010550     4ec9          MOVE    A6,COLOR1
    2745 00010560     09f7          movi    [1,0],DYDX               ; Y width always 1
         00010570 00010000  
    2746                    
    2747 00010590     5642          clr     a2                    ; x = 0
    2748 000105a0     4c03          move    a0,a3                 ; y = r
    2749 000105b0     4c04          move    a0,a4
    2750 000105c0     2424          sll     1,a4
    2751 000105d0     1464          subk    3,a4
    2752 000105e0     03a4          neg     a4                   ; d = 3 - 2*r
TMS340 COFF Macro Assembler Version 6.10     Tue Dec 19 01:45:19 2023
 Copyright (c) 1985-1991  Texas Instruments Incorporated 

                                                                     PAGE   60

    2753 000105f0           cloop
    2754 000105f0     4862          cmp     a3,a2                ; if x > y, we are done
    2755 00010600     c70f          jrgt    done
    2756                    
    2757 00010610     4ee0          MOVE    A7,B0                ; PLOT ROUTINE
    2758 00010620     0130          EXGPC   B0
    2759                    
    2760 00010630     4c45          move  a2,a5                  ; x -> a5
    2761 00010640     1c04          btst  31,a4
    2762 00010650     ca03          jrz   dpos                   ; branch if d is positive
    2763                    
    2764                    
    2765 00010660     2445          sll   2,a5                   ; 4*x -> a5
    2766 00010670     10c5          addk  6,a5                   ; 4*x+6 -> a5
    2767 00010680     c004          jruc  cont
    2768                    
    2769                    
    2770 00010690     4465  dpos    sub   a3,a5                  ; x-y -> a5
    2771 000106a0     2445          sll   2,a5                   ; 4*(x-y) -> a5
    2772 000106b0     1145          addk  10,a5                  ; 4*(x-y)+10 -> a5
    2773 000106c0     1423          subk  1,a3                   ; y = y - 1
    2774                    
    2775 000106d0     40a4  cont    add   a5,a4                  ; d = d + a5
    2776 000106e0     1022          addk  1,a2                   ; x = x + 1
    2777 000106f0     c0ef          jruc  cloop
    2778                    
    2779 00010700           done    FRET B6
    2780                    
    2781 00010710           plot8
    2782 00010710     4c65          move  a3,a5
    2783 00010720     03a5          neg   a5                   ; -y into a5; +y in a3
    2784 00010730     2605          sll   16,a5
    2785 00010740     2603          sll   16,a3
    2786 00010750     ec45          movx  a2,a5                ; a3 = (y:x)
    2787 00010760     ec43          movx  a2,a3                ; a5 = (-y:x)
    2788                    
    2789 00010770     1848          movk  2,a8
    2790 00010780           put4
    2791 00010780     4c20          move  a1,a0                ; center (Y:X) in a0
    2792 00010790     e060          addxy a3,a0                ; (cx+x),(cy+y)
    2793 000107a0     f0c0          pixt  a6,*a0.XY
    2794 000107b0     4c20          move  a1,a0                ; center (Y:X) in a0
    2795 000107c0     e0a0          addxy a5,a0                ; (cx+x),(cy-y)
    2796 000107d0     f0c0          pixt  a6,*a0.XY
    2797 000107e0     4c20          move  a1,a0                ; center (Y:X) in a0
    2798 000107f0     e260          subxy a3,a0                ; (cx-x),(cy-y)
    2799 00010800     f0c0          pixt  a6,*a0.XY
    2800 00010810     4c20          move  a1,a0                ; center (Y:X) in a0
    2801 00010820     e2a0          subxy a5,a0                ; (cx-x),(cy+y)
    2802 00010830     f0c0          pixt  A6,*a0.XY
    2803 00010840     3203          rl    16,a3
    2804 00010850     3205          rl    16,a5                ; transpose x and y  
    2805 00010860     3de8          dsj   a8,put4
    2806 00010870     2a03          sra   16,a3                ; restore y
    2807                    
TMS340 COFF Macro Assembler Version 6.10     Tue Dec 19 01:45:19 2023
 Copyright (c) 1985-1991  Texas Instruments Incorporated 

                                                                     PAGE   61

    2808 00010880                   FRET    B0
    2809                    
    2810 00010890           fill4:
    2811 00010890     4e4a          move  a2,b10               ; x
    2812 000108a0     243a          sll   1,b10                ; 2x
    2813 000108b0     ed57          movx  b10,DYDX             ; delta x = 2x
    2814 000108c0     4c65          move  a3,a5
    2815 000108d0     03a5          neg   a5                   ; -y into a5      +y in a3
    2816 000108e0     2605          sll   16,a5
    2817 000108f0     2603          sll   16,a3
    2818 00010900     ec45          movx  a2,a5                ; a3 = (y:x)
    2819 00010910     ec43          movx  a2,a3                ; a5 = (-y:x)
    2820 00010920     1848          movk  2,a8
    2821 00010930           put2:   
    2822 00010930     4c20          move  a1,a0
    2823 00010940     e2a0          subxy a5,a0
    2824 00010950     4e02          move  a0,DADDR
    2825 00010960     0fe0          fill  XY
    2826                    
    2827 00010970     4c20          move  a1,a0
    2828 00010980     e260          subxy a3,a0
    2829 00010990     4e02          move  a0,DADDR
    2830 000109a0     0fe0          fill  XY
    2831 000109b0     3203          rl    16,a3                ; a3 = (x:y)
    2832 000109c0     3205          rl    16,a5                ; transpose x and y  
    2833 000109d0     56c6          clr   a6
    2834 000109e0     e2a6          subxy a5,a6
    2835 000109f0     4cc5          move  a6,a5                ; a5 = (-x:y)
    2836 00010a00     4e6a          move  a3,b10               ; y
    2837 00010a10     243a          sll   1,b10                ; 2y
    2838 00010a20     ed57          movx  b10,DYDX             ; delta x = 2y
    2839 00010a30     3e28          dsj   a8,put2
    2840 00010a40     2a03          sra   16,a3                ; restore y
    2841                    
    2842 00010a50                   FRET B0
    2843                    
    2844 00010a60           DSCRCLR
    2845 00010a60     5652          CLR     B2
    2846 00010a70           DSWRITE
    2847 00010a70     5673          CLR     B3
    2848 00010a80     0593          MOVE    B3,@DMACMAP,0
         00010a90 01a80080  
    2849 00010ab0     09f3          MOVI    SCREEN,B3,L
         00010ac0 00000000  
    2850 00010ae0     09f4          MOVI    (SCRNE-SCREEN)/32,B4,L
         00010af0 00010000  
    2851 00010b10     9253  SCRLP   MOVE    B2,*B3+,L
    2852 00010b20     3c54          DSJS    B4,SCRLP
    2853 00010b30                   FRET    B6
    2854                    
    2855                    
    2856                    
    2857                    
    2858 00010b40           CPU_VECS:                      
    2859 00010b40                   VECMAC  COLOR_WHITE,5,15,390,15         ; BOARD OUTLINE
TMS340 COFF Macro Assembler Version 6.10     Tue Dec 19 01:45:19 2023
 Copyright (c) 1985-1991  Texas Instruments Incorporated 

                                                                     PAGE   62

    2860 00010b90                   VECMAC  COLOR_WHITE,390,15,390,254
    2861 00010be0                   VECMAC  COLOR_WHITE,5,253,390,253
    2862 00010c30                   VECMAC  COLOR_WHITE,5,15,5,100
    2863 00010c80                   VECMAC  COLOR_WHITE,5,100,15,100
    2864 00010cd0                   VECMAC  COLOR_WHITE,15,100,15,115
    2865 00010d20                   VECMAC  COLOR_WHITE,5,115,15,115
    2866 00010d70                   VECMAC  COLOR_WHITE,5,115,5,135
    2867 00010dc0                   VECMAC  COLOR_WHITE,5,135,15,135
    2868 00010e10                   VECMAC  COLOR_WHITE,15,135,15,138
    2869 00010e60                   VECMAC  COLOR_WHITE,5,138,15,138
    2870 00010eb0                   VECMAC  COLOR_WHITE,5,138,5,215
    2871 00010f00                   VECMAC  COLOR_WHITE,5,215,15,215
    2872 00010f50                   VECMAC  COLOR_WHITE,15,215,15,230
    2873 00010fa0                   VECMAC  COLOR_WHITE,5,230,15,230
    2874 00010ff0                   VECMAC  COLOR_WHITE,5,230,5,254
    2875 00011040 00000000          .LONG   0
    2876                    
    2877              0005  CPUXBASE        EQU     5
    2878              0005  CPUYBASE        EQU     5
    2879                    
    2880                    
    2881 00011060           CPU_CHIPS:
    2882 00011060           CRAM1   CHIPMAC 0,125,25,20,45,7,11,CNAMEA8,1,2,2,1     ; COLOR RAM
    2883 00011130           CRAM2   CHIPMAC 1,125,75,20,45,7,11,CNAMEC8,1,2,2,1     ; COLOR RAM
    2884                    
    2885 00011200           VRAM1   CHIPMAC 2,190,25,15,38,6,2,CNAMEA11,1,2,2,1     ; BANK 1 VIDEO RAM
    2886 000112d0           VRAM2   CHIPMAC 3,207,25,15,38,6,2,CNAMEA12,1,2,2,1     ;   (PALETTE)
    2887 000113a0           VRAM3   CHIPMAC 4,224,25,15,38,6,2,CNAMEA13,1,2,2,1
    2888 00011470           VRAM4   CHIPMAC 5,241,25,15,38,6,2,CNAMEA14,1,2,2,1
    2889                    
    2890 00011540           VRAM5   CHIPMAC 6,190,71,15,38,6,2,CNAMEB11,1,2,2,1     ; BANK 2 VIDEO RAM
    2891 00011610           VRAM6   CHIPMAC 7,207,71,15,38,6,2,CNAMEB12,1,2,2,1     ;   (PIXEL)
    2892 000116e0           VRAM7   CHIPMAC 8,224,71,15,38,6,2,CNAMEB13,1,2,2,1
    2893 000117b0           VRAM8   CHIPMAC 9,241,71,15,38,6,2,CNAMEB14,1,2,2,1
    2894                    
    2895 00011880           CPU     CHIPMAC 0,330,60,35,35,4,13,CNAMEB21,0,3,3,1    ; CPU
    2896                    
    2897 00011950           DMA     CHIPMAC 0,201,120,38,38,6,16,CNAMEE13,0,3,3,1   ; DMA
    2898                    
    2899 00011a20           PROM1   CHIPMAC 1,155,210,20,40,7,3,CNAMEJ12,1,2,2,1    ; PROGRAM ROM 1
    2900 00011af0           PROM2   CHIPMAC 0,155,167,20,40,7,3,CNAMEG12,1,2,2,1    ; PROGRAM ROM 2
    2901                    
    2902 00011bc0           IROM1   CHIPMAC 1,195,167,20,40,7,3,CNAMEG14,1,2,2,1    ; IMAGE ROM
    2903 00011c90           IROM2   CHIPMAC 2,217,167,20,40,7,3,CNAMEG16,1,2,2,1    ; IMAGE ROM
    2904 00011d60           IROM3   CHIPMAC 3,239,167,20,40,7,3,CNAMEG17,1,2,2,1    ; IMAGE ROM
    2905 00011e30           IROM4   CHIPMAC 4,261,167,20,40,7,3,CNAMEG18,1,2,2,1    ; IMAGE ROM
    2906                    
    2907 00011f00           IROM5   CHIPMAC 5,283,167,20,40,7,3,CNAMEG19,1,2,2,1    ; IMAGE ROM
    2908 00011fd0           IROM6   CHIPMAC 6,305,167,20,40,7,3,CNAMEG20,1,2,2,1    ; IMAGE ROM
    2909 000120a0           IROM7   CHIPMAC 7,327,167,20,40,7,3,CNAMEG22,1,2,2,1    ; IMAGE ROM
    2910 00012170           IROM8   CHIPMAC 8,349,167,20,40,7,3,CNAMEG23,1,2,2,1    ; IMAGE ROM
    2911                    
    2912 00012240           IROM9   CHIPMAC 9,195,210,20,40,7,3,CNAMEJ14,1,2,2,1    ; IMAGE ROM
    2913 00012310           IROM10  CHIPMAC 10,217,210,20,40,7,3,CNAMEJ16,1,2,2,1   ; IMAGE ROM
    2914 000123e0           IROM11  CHIPMAC 11,239,210,20,40,7,3,CNAMEJ17,1,2,2,1   ; IMAGE ROM
TMS340 COFF Macro Assembler Version 6.10     Tue Dec 19 01:45:19 2023
 Copyright (c) 1985-1991  Texas Instruments Incorporated 

                                                                     PAGE   63

    2915 000124b0           IROM12  CHIPMAC 12,261,210,20,40,7,3,CNAMEJ18,1,2,2,1   ; IMAGE ROM
    2916                    
    2917 00012580           IROM13  CHIPMAC 13,283,210,20,40,7,3,CNAMEJ19,1,2,2,1   ; IMAGE ROM
    2918 00012650           IROM14  CHIPMAC 14,305,210,20,40,7,3,CNAMEJ20,1,2,2,1   ; IMAGE ROM
    2919 00012720           IROM15  CHIPMAC 15,327,210,20,40,7,3,CNAMEJ22,1,2,2,1   ; IMAGE ROM
    2920 000127f0           IROM16  CHIPMAC 16,349,210,20,40,7,3,CNAMEJ23,1,2,2,1   ; IMAGE ROM
    2921                    
    2922 000128c0           SRAM1   CHIPMAC 0,50,210,13,33,4,4,CNAMEJ4,1,2,2,1      ; SCRATCH PAD
    2923 00012990           SRAM2   CHIPMAC 1,67,210,13,33,4,4,CNAMEJ5,1,2,2,1      ; SCRATCH PAD
    2924 00012a60           SRAM3   CHIPMAC 2,84,210,13,33,4,4,CNAMEJ6,1,2,2,1      ; SCRATCH PAD
    2925 00012b30           SRAM4   CHIPMAC 3,101,210,13,33,4,4,CNAMEJ7,1,2,2,1     ; SCRATCH PAD
    2926 00012c00 00000000          .LONG   0
    2927                    
    2928 00012c20 00011060' VRAMTAB .LONG   CRAM1,CRAM2
    2929 00012c60 00011200'         .LONG   VRAM1,VRAM2,VRAM3,VRAM4,VRAM5,VRAM6
    2930 00012d20 000116e0'         .LONG   VRAM7,VRAM8
    2931 00012d60 00000000          .LONG   0
    2932 00012d80 00011a20' PROMTAB .LONG   PROM1,PROM2
    2933 00012dc0 00000000          .LONG   0
    2934 00012de0 00011bc0' IROMTAB .LONG   IROM1,IROM2,IROM3,IROM4
    2935 00012e60 00011f00'         .LONG   IROM5,IROM6,IROM7,IROM8
    2936 00012ee0 00012240'         .LONG   IROM9,IROM10,IROM11,IROM12
    2937 00012f60 00012580'         .LONG   IROM13,IROM14,IROM15,IROM16
    2938 00012fe0 00000000          .LONG   0
    2939 00013000 000128c0' SRAMTAB .LONG   SRAM1,SRAM2,SRAM3,SRAM4
    2940 00013080 00000000          .LONG   0
    2941                            
    2942 000130a0           CNAMEA8
    2943 000130a0       55          .STRING "UA8",0
    2944 000130c0                   .EVEN
    2945 000130c0           CNAMEA11        
    2946 000130c0       55          .STRING "UA11",0
    2947 000130f0                   .EVEN
    2948 000130f0           CNAMEA12        
    2949 000130f0       55          .STRING "UA12",0
    2950 00013120                   .EVEN
    2951 00013120           CNAMEA13        
    2952 00013120       55          .STRING "UA13",0
    2953 00013150                   .EVEN
    2954 00013150           CNAMEA14        
    2955 00013150       55          .STRING "UA14",0
    2956 00013180                   .EVEN
    2957                    
    2958 00013180           CNAMEB11
    2959 00013180       55          .STRING "UB11",0
    2960 000131b0                   .EVEN
    2961 000131b0           CNAMEB12
    2962 000131b0       55          .STRING "UB12",0
    2963 000131e0                   .EVEN
    2964 000131e0           CNAMEB13
    2965 000131e0       55          .STRING "UB13",0
    2966 00013210                   .EVEN
    2967 00013210           CNAMEB14
    2968 00013210       55          .STRING "UB14",0
    2969 00013240                   .EVEN
TMS340 COFF Macro Assembler Version 6.10     Tue Dec 19 01:45:19 2023
 Copyright (c) 1985-1991  Texas Instruments Incorporated 

                                                                     PAGE   64

    2970 00013240           CNAMEB21
    2971 00013240       55          .STRING "UB21",0
    2972 00013270                   .EVEN
    2973                    
    2974 00013270           CNAMEC8
    2975 00013270       55          .STRING "UC8",0
    2976 00013290                   .EVEN
    2977                    
    2978 00013290           CNAMEE13
    2979 00013290       55          .STRING "UE13",0
    2980 000132c0                   .EVEN
    2981                    
    2982 000132c0           CNAMEG12        
    2983 000132c0       55          .STRING "UG12",0
    2984 000132f0                   .EVEN
    2985 000132f0           CNAMEG14
    2986 000132f0       55          .STRING "UG14",0
    2987 00013320                   .EVEN
    2988 00013320           CNAMEG16        
    2989 00013320       55          .STRING "UG16",0
    2990 00013350                   .EVEN
    2991 00013350           CNAMEG17
    2992 00013350       55          .STRING "UG17",0
    2993 00013380                   .EVEN
    2994 00013380           CNAMEG18        
    2995 00013380       55          .STRING "UG18",0
    2996 000133b0                   .EVEN
    2997 000133b0           CNAMEG19        
    2998 000133b0       55          .STRING "UG19",0
    2999 000133e0                   .EVEN
    3000 000133e0           CNAMEG20        
    3001 000133e0       55          .STRING "UG20",0
    3002 00013410                   .EVEN
    3003 00013410           CNAMEG22        
    3004 00013410       55          .STRING "UG22",0
    3005 00013440                   .EVEN
    3006 00013440           CNAMEG23        
    3007 00013440       55          .STRING "UG23",0
    3008 00013470                   .EVEN
    3009                    
    3010 00013470           CNAMEJ4
    3011 00013470       55          .STRING "UJ4",0
    3012 00013490                   .EVEN
    3013 00013490           CNAMEJ5
    3014 00013490       55          .STRING "UJ5",0
    3015 000134b0                   .EVEN
    3016 000134b0           CNAMEJ6
    3017 000134b0       55          .STRING "UJ6",0
    3018 000134d0                   .EVEN
    3019 000134d0           CNAMEJ7
    3020 000134d0       55          .STRING "UJ7",0
    3021 000134f0                   .EVEN
    3022 000134f0           CNAMEJ12
    3023 000134f0       55          .STRING "UJ12",0
    3024 00013520                   .EVEN
TMS340 COFF Macro Assembler Version 6.10     Tue Dec 19 01:45:19 2023
 Copyright (c) 1985-1991  Texas Instruments Incorporated 

                                                                     PAGE   65

    3025 00013520           CNAMEJ14
    3026 00013520       55          .STRING "UJ14",0
    3027 00013550                   .EVEN
    3028 00013550           CNAMEJ16
    3029 00013550       55          .STRING "UJ16",0
    3030 00013580                   .EVEN
    3031 00013580           CNAMEJ17
    3032 00013580       55          .STRING "UJ17",0
    3033 000135b0                   .EVEN
    3034 000135b0           CNAMEJ18
    3035 000135b0       55          .STRING "UJ18",0
    3036 000135e0                   .EVEN
    3037 000135e0           CNAMEJ19
    3038 000135e0       55          .STRING "UJ19",0
    3039 00013610                   .EVEN
    3040 00013610           CNAMEJ20
    3041 00013610       55          .STRING "UJ20",0
    3042 00013640                   .EVEN
    3043 00013640           CNAMEJ22
    3044 00013640       55          .STRING "UJ22",0
    3045 00013670                   .EVEN
    3046 00013670           CNAMEJ23
    3047 00013670       55          .STRING "UJ23",0
    3048 000136a0                   .EVEN
    3049                    
    3050                    
    3051                    
    3052                    
    3053 000136a0           VRAMCHIPS:
    3054                    
    3055 000136a0                   RAM_CHIP 0,0, 8, 16, 1800000H, 187FFF0H         ; UA8  (  0 - 3  )
    3056 00013730                   RAM_CHIP 0,1, 8, 16, 1800008H, 187FFF8H         ; UC8  (  8 - 11 )
    3057                    
    3058                    
    3059 000137c0                   RAM_CHIP 0, 6, 8, 32, 0000018H, 03FFFF8H        ; UB11 ( 24 - 27 )
    3060 00013850                   RAM_CHIP 0, 8, 8, 32, 0000010H, 03FFFF0H        ; UB13 ( 16 - 19 )
    3061 000138e0                   RAM_CHIP 0, 7, 8, 32, 0000008H, 03FFFE8H        ; UB12 (  8 - 11 )
    3062 00013970                   RAM_CHIP 0, 9, 8, 32, 0000000H, 03FFFE0H        ; UB14 (  0 - 3  )
    3063                    
    3064 00013a00 00000000          .LONG   0
    3065                    
    3066 00013a20           PALCHIPS:
    3067                    
    3068 00013a20                   RAM_CHIP 0,2, 8, 32, 0000018H, 03FFFF8H         ; UA11 (  24 - 27 )
    3069 00013ab0                   RAM_CHIP 0,4, 8, 32, 0000010H, 03FFFF0H         ; UA13 (  16 - 19  )
    3070 00013b40                   RAM_CHIP 0,3, 8, 32, 0000008H, 03FFFE8H         ; UA12 (  8 - 11 )
    3071 00013bd0                   RAM_CHIP 0,5, 8, 32, 0000000H, 03FFFE0H         ; UA14 (  0 - 3  )
    3072                    
    3073 00013c60 00000000          .LONG   0
    3074                    
    3075                    
    3076 00013c80           SRAMCHECK
    3077 00013c80       43          .STRING "CHECKING SCRATCH RAMS",0
    3078 00013d30                   .EVEN
    3079                    
TMS340 COFF Macro Assembler Version 6.10     Tue Dec 19 01:45:19 2023
 Copyright (c) 1985-1991  Texas Instruments Incorporated 

                                                                     PAGE   66

    3080 00013d30           SRAMCHIPS
    3081 00013d30                   RAM_CHIP SRAM4,3, 4, 16, 1000004H, 13FFFF4H     ; UJ7 (  4 - 7  )
    3082 00013dc0                   RAM_CHIP SRAM3,2, 4, 16, 1000000H, 13FFFF0H     ; UJ6 (  0 - 3  )
    3083 00013e50                   RAM_CHIP SRAM2,1, 4, 16, 1000008H, 13FFFF8H     ; UJ5 (  8 - 11 )
    3084 00013ee0                   RAM_CHIP SRAM1,0, 4, 16, 100000CH, 13FFFFCH     ; UJ4 ( 12 - 15 )
    3085                    
    3086 00013f70 00000000          .LONG   0
    3087                    
    3088                    
    3089                    
    3090 00013f90     0048  T2_SP   .WORD   048h
    3091 00013fa0     0000          .word   I2_SP-CBASE
    3092                    
    3093 00013fb0     0088  T2_MN   .WORD   088h
    3094 00013fc0     0040          .WORD   I2_MN-CBASE
    3095                    
    3096 00013fd0     0028  T2_PER  .WORD   028H
    3097 00013fe0     0080          .WORD   I2_PER-CBASE
    3098                    
    3099 00013ff0           T2_SLASH
    3100 00013ff0     0068          .WORD   068H
    3101 00014000     00c0          .WORD   I2_SLASH-CBASE
    3102 00014010           T2_00
    3103 00014010     0068     .WORD    068h
    3104 00014020     0100     .WORD    I2_00-CBASE
    3105                    
    3106 00014030           T2_11:
    3107 00014030     0068     .WORD    068h
    3108 00014040     0140     .WORD    I2_11-CBASE
    3109                    
    3110 00014050           T2_22:
    3111 00014050     0068     .WORD    068h
    3112 00014060     0180     .WORD    I2_22-CBASE
    3113                    
    3114 00014070           T2_33:
    3115 00014070     0068     .WORD    068h
    3116 00014080     01c0     .WORD    I2_33-CBASE
    3117                    
    3118 00014090           T2_44:
    3119 00014090     0068     .WORD    068h
    3120 000140a0     0200     .WORD    I2_44-CBASE
    3121                    
    3122 000140b0           T2_55:
    3123 000140b0     0068     .WORD    068h
    3124 000140c0     0240     .WORD    I2_55-CBASE
    3125                    
    3126 000140d0           T2_66:
    3127 000140d0     0068     .WORD    068h
    3128 000140e0     0280     .WORD    I2_66-CBASE
    3129                    
    3130 000140f0           T2_77:
    3131 000140f0     0068     .WORD    068h
    3132 00014100     02c0     .WORD    I2_77-CBASE
    3133                    
    3134 00014110           T2_88:
TMS340 COFF Macro Assembler Version 6.10     Tue Dec 19 01:45:19 2023
 Copyright (c) 1985-1991  Texas Instruments Incorporated 

                                                                     PAGE   67

    3135 00014110     0068     .WORD    068h
    3136 00014120     0300     .WORD    I2_88-CBASE
    3137                    
    3138 00014130           T2_99:
    3139 00014130     0068     .WORD    068h
    3140 00014140     0340     .WORD    I2_99-CBASE
    3141                    
    3142 00014150           T2_AA:
    3143 00014150     0068     .WORD    068h
    3144 00014160     0380     .WORD    I2_AA-CBASE
    3145                    
    3146 00014170           T2_BB:
    3147 00014170     0068     .WORD    068h
    3148 00014180     03c0     .WORD    I2_BB-CBASE
    3149                    
    3150 00014190           T2_CC:
    3151 00014190     0068     .WORD    068h
    3152 000141a0     0400     .WORD    I2_CC-CBASE
    3153                    
    3154 000141b0           T2_DD:
    3155 000141b0     0068     .WORD    068h
    3156 000141c0     0440     .WORD    I2_DD-CBASE
    3157                    
    3158 000141d0           T2_EE:
    3159 000141d0     0068     .WORD    068h
    3160 000141e0     0480     .WORD    I2_EE-CBASE
    3161                    
    3162 000141f0           T2_FF:
    3163 000141f0     0068     .WORD    068h
    3164 00014200     04c0     .WORD    I2_FF-CBASE
    3165                    
    3166 00014210           T2_GG:
    3167 00014210     0068     .WORD    068h
    3168 00014220     0500     .WORD    I2_GG-CBASE
    3169                    
    3170 00014230           T2_HH:
    3171 00014230     0068     .WORD    068h
    3172 00014240     0540     .WORD    I2_HH-CBASE
    3173                    
    3174 00014250           T2_II:
    3175 00014250     0028     .WORD    028h
    3176 00014260     0580     .WORD    I2_II-CBASE
    3177                    
    3178 00014270           T2_JJ:
    3179 00014270     0068     .WORD    068h
    3180 00014280     05c0     .WORD    I2_JJ-CBASE
    3181                    
    3182 00014290           T2_KK:
    3183 00014290     0068     .WORD    068h
    3184 000142a0     0600     .WORD    I2_KK-CBASE
    3185                    
    3186 000142b0           T2_LL:
    3187 000142b0     0058     .WORD    058h
    3188 000142c0     0640     .WORD    I2_LL-CBASE
    3189                    
TMS340 COFF Macro Assembler Version 6.10     Tue Dec 19 01:45:19 2023
 Copyright (c) 1985-1991  Texas Instruments Incorporated 

                                                                     PAGE   68

    3190 000142d0           T2_MM:
    3191 000142d0     00a8     .WORD    0A8h
    3192 000142e0     0680     .WORD    I2_MM-CBASE
    3193                    
    3194 000142f0           T2_NN:
    3195 000142f0     0078     .WORD    078h
    3196 00014300     0700     .WORD    I2_NN-CBASE
    3197                    
    3198 00014310           T2_OO:
    3199 00014310     0078     .WORD    078h
    3200 00014320     0740     .WORD    I2_OO-CBASE
    3201                    
    3202 00014330           T2_PP:
    3203 00014330     0068     .WORD    068h
    3204 00014340     0780     .WORD    I2_PP-CBASE
    3205                    
    3206 00014350           T2_QQ:
    3207 00014350     007a     .WORD    07Ah
    3208 00014360     07c0     .WORD    I2_QQ-CBASE
    3209                    
    3210 00014370           T2_RR:
    3211 00014370     0068     .WORD    068h
    3212 00014380     0810     .WORD    I2_RR-CBASE
    3213                    
    3214 00014390           T2_SS:
    3215 00014390     0068     .WORD    068h
    3216 000143a0     0850     .WORD    I2_SS-CBASE
    3217                    
    3218 000143b0           T2_TT:
    3219 000143b0     0068     .WORD    068h
    3220 000143c0     0890     .WORD    I2_TT-CBASE
    3221                    
    3222 000143d0           T2_UU:
    3223 000143d0     0068     .WORD    068h
    3224 000143e0     08d0     .WORD    I2_UU-CBASE
    3225                    
    3226 000143f0           T2_VV:
    3227 000143f0     0078     .WORD    078h
    3228 00014400     0910     .WORD    I2_VV-CBASE
    3229                    
    3230 00014410           T2_WW:
    3231 00014410     00b8     .WORD    0B8h
    3232 00014420     0950     .WORD    I2_WW-CBASE
    3233                    
    3234 00014430           T2_XX:
    3235 00014430     0078     .WORD    078h
    3236 00014440     09d0     .WORD    I2_XX-CBASE
    3237                    
    3238 00014450           T2_YY:
    3239 00014450     0068     .WORD    068h
    3240 00014460     0a10     .WORD    I2_YY-CBASE
    3241                    
    3242 00014470           T2_ZZ:
    3243 00014470     0068     .WORD    068h
    3244 00014480     0a50     .WORD    I2_ZZ-CBASE
TMS340 COFF Macro Assembler Version 6.10     Tue Dec 19 01:45:19 2023
 Copyright (c) 1985-1991  Texas Instruments Incorporated 

                                                                     PAGE   69

    3245                    
    3246                    
    3247 00014490           SYSFONT
    3248                    
    3249 00014490       00          .BYTE   (T2_SP-T2_SP)/32        ;SPACE CHARACTER, " "
    3250 00014498       00          .BYTE   (T2_SP-T2_SP)/32        ;FILLER
    3251 000144a0       00          .BYTE   (T2_SP-T2_SP)/32
    3252 000144a8       00          .BYTE   (T2_SP-T2_SP)/32
    3253 000144b0       00          .BYTE   (T2_SP-T2_SP)/32
    3254 000144b8       00          .BYTE   (T2_SP-T2_SP)/32
    3255 000144c0       00          .BYTE   (T2_SP-T2_SP)/32
    3256 000144c8       00          .BYTE   (T2_SP-T2_SP)/32
    3257 000144d0       00          .BYTE   (T2_SP-T2_SP)/32
    3258 000144d8       00          .BYTE   (T2_SP-T2_SP)/32
    3259 000144e0       00          .BYTE   (T2_SP-T2_SP)/32
    3260 000144e8       00          .BYTE   (T2_SP-T2_SP)/32
    3261 000144f0       00          .BYTE   (T2_SP-T2_SP)/32
    3262 000144f8       01          .BYTE   (T2_MN-T2_SP)/32        ; MINUS CHARACTER, "-"
    3263 00014500       02          .BYTE   (T2_PER-T2_SP)/32
    3264 00014508       03          .BYTE   (T2_SLASH-T2_SP)/32     ; "/"
    3265 00014510       04          .BYTE   (T2_00-T2_SP)/32        ;0
    3266 00014518       05          .BYTE   (T2_11-T2_SP)/32        ;1
    3267 00014520       06          .BYTE   (T2_22-T2_SP)/32        ;2
    3268 00014528       07          .BYTE   (T2_33-T2_SP)/32        ;3
    3269 00014530       08          .BYTE   (T2_44-T2_SP)/32        ;4
    3270 00014538       09          .BYTE   (T2_55-T2_SP)/32        ;5
    3271 00014540       0a          .BYTE   (T2_66-T2_SP)/32        ;6
    3272 00014548       0b          .BYTE   (T2_77-T2_SP)/32        ;7
    3273 00014550       0c          .BYTE   (T2_88-T2_SP)/32        ;8
    3274 00014558       0d          .BYTE   (T2_99-T2_SP)/32        ;9
    3275 00014560       04          .BYTE   (T2_00-T2_SP)/32                        ; no :
    3276 00014568       04          .BYTE   (T2_00-T2_SP)/32                        ; no ;
    3277 00014570       04          .BYTE   (T2_00-T2_SP)/32                        ; no <
    3278 00014578       04          .BYTE   (T2_00-T2_SP)/32                        ; no =
    3279 00014580       04          .BYTE   (T2_00-T2_SP)/32                        ; no >
    3280 00014588       04          .BYTE   (T2_00-T2_SP)/32                        ; no ?
    3281 00014590       04          .BYTE   (T2_00-T2_SP)/32                        ; no @
    3282 00014598       0e          .BYTE   (T2_AA-T2_SP)/32        ;A
    3283 000145a0       0f          .BYTE   (T2_BB-T2_SP)/32        ;B
    3284 000145a8       10          .BYTE   (T2_CC-T2_SP)/32        ;C
    3285 000145b0       11          .BYTE   (T2_DD-T2_SP)/32        ;D
    3286 000145b8       12          .BYTE   (T2_EE-T2_SP)/32        ;E
    3287 000145c0       13          .BYTE   (T2_FF-T2_SP)/32        ;F
    3288 000145c8       14          .BYTE   (T2_GG-T2_SP)/32        ;G
    3289 000145d0       15          .BYTE   (T2_HH-T2_SP)/32        ;H
    3290 000145d8       16          .BYTE   (T2_II-T2_SP)/32        ;I
    3291 000145e0       17          .BYTE   (T2_JJ-T2_SP)/32        ;J
    3292 000145e8       18          .BYTE   (T2_KK-T2_SP)/32        ;K
    3293 000145f0       19          .BYTE   (T2_LL-T2_SP)/32        ;L
    3294 000145f8       1a          .BYTE   (T2_MM-T2_SP)/32        ;M
    3295 00014600       1b          .BYTE   (T2_NN-T2_SP)/32        ;N
    3296 00014608       1c          .BYTE   (T2_OO-T2_SP)/32        ;O
    3297 00014610       1d          .BYTE   (T2_PP-T2_SP)/32        ;P
    3298 00014618       1e          .BYTE   (T2_QQ-T2_SP)/32        ;Q
    3299 00014620       1f          .BYTE   (T2_RR-T2_SP)/32        ;R
TMS340 COFF Macro Assembler Version 6.10     Tue Dec 19 01:45:19 2023
 Copyright (c) 1985-1991  Texas Instruments Incorporated 

                                                                     PAGE   70

    3300 00014628       20          .BYTE   (T2_SS-T2_SP)/32        ;S
    3301 00014630       21          .BYTE   (T2_TT-T2_SP)/32        ;T
    3302 00014638       22          .BYTE   (T2_UU-T2_SP)/32        ;U
    3303 00014640       23          .BYTE   (T2_VV-T2_SP)/32        ;V
    3304 00014648       24          .BYTE   (T2_WW-T2_SP)/32        ;W
    3305 00014650       25          .BYTE   (T2_XX-T2_SP)/32        ;X
    3306 00014658       26          .BYTE   (T2_YY-T2_SP)/32        ;Y
    3307 00014660       27          .BYTE   (T2_ZZ-T2_SP)/32        ;Z
    3308                    
    3309 00014668           CBASE
    3310 00014668           I2_SP
    3311 00014668       00     .byte    00h
    3312 00014670       00     .byte    00h
    3313 00014678       00     .byte    00h
    3314 00014680       00     .byte    00h
    3315 00014688       00     .byte    00h
    3316 00014690       00     .byte    00h
    3317 00014698       00     .byte    00h
    3318 000146a0       00     .byte    00h
    3319                    
    3320 000146a8           I2_MN:
    3321 000146a8       00     .byte    000h
    3322 000146b0       00     .byte    000h
    3323 000146b8       00     .byte    000h
    3324 000146c0       ff     .byte    0FFh
    3325 000146c8       ff     .byte    0FFh
    3326 000146d0       00     .byte    000h
    3327 000146d8       00     .byte    000h
    3328 000146e0       00     .byte    000h
    3329                    
    3330 000146e8           I2_PER:
    3331 000146e8       00          .BYTE   0
    3332 000146f0       00          .BYTE   0
    3333 000146f8       00          .BYTE   0
    3334 00014700       00          .BYTE   0
    3335 00014708       00          .BYTE   0
    3336 00014710       00          .BYTE   0
    3337 00014718       ff          .BYTE   0FFH
    3338 00014720       ff          .BYTE   0FFH
    3339                    
    3340 00014728           I2_SLASH:
    3341 00014728       30          .BYTE   30H
    3342 00014730       30          .BYTE   30H
    3343 00014738       18          .BYTE   18H
    3344 00014740       18          .BYTE   18H
    3345 00014748       06          .BYTE   06H
    3346 00014750       06          .BYTE   06H
    3347 00014758       03          .BYTE   03H
    3348 00014760       03          .BYTE   03H
    3349                    
    3350 00014768           I2_00:
    3351 00014768       1e     .byte    01Eh
    3352 00014770       3f     .byte    03Fh
    3353 00014778       33     .byte    033h
    3354 00014780       33     .byte    033h
TMS340 COFF Macro Assembler Version 6.10     Tue Dec 19 01:45:19 2023
 Copyright (c) 1985-1991  Texas Instruments Incorporated 

                                                                     PAGE   71

    3355 00014788       33     .byte    033h
    3356 00014790       33     .byte    033h
    3357 00014798       3f     .byte    03Fh
    3358 000147a0       1e     .byte    01Eh
    3359                    
    3360 000147a8           I2_11:
    3361 000147a8       0e     .byte    0Eh
    3362 000147b0       0f     .byte    0Fh
    3363 000147b8       0f     .byte    0Fh
    3364 000147c0       0c     .byte    0Ch
    3365 000147c8       0c     .byte    0Ch
    3366 000147d0       0c     .byte    0Ch
    3367 000147d8       0c     .byte    0Ch
    3368 000147e0       0c     .byte    0Ch
    3369                    
    3370 000147e8           I2_22:
    3371 000147e8       1f     .byte    01Fh
    3372 000147f0       3f     .byte    03Fh
    3373 000147f8       38     .byte    038h
    3374 00014800       1c     .byte    01Ch
    3375 00014808       0e     .byte    0Eh
    3376 00014810       07     .byte    07h
    3377 00014818       3f     .byte    03Fh
    3378 00014820       3f     .byte    03Fh
    3379                    
    3380 00014828           I2_33:
    3381 00014828       1f     .byte    01Fh
    3382 00014830       3f     .byte    03Fh
    3383 00014838       30     .byte    030h
    3384 00014840       1e     .byte    01Eh
    3385 00014848       1e     .byte    01Eh
    3386 00014850       30     .byte    030h
    3387 00014858       3f     .byte    03Fh
    3388 00014860       1f     .byte    01Fh
    3389                    
    3390 00014868           I2_44:
    3391 00014868       38     .byte    038h
    3392 00014870       3c     .byte    03Ch
    3393 00014878       36     .byte    036h
    3394 00014880       33     .byte    033h
    3395 00014888       3f     .byte    03Fh
    3396 00014890       3f     .byte    03Fh
    3397 00014898       30     .byte    030h
    3398 000148a0       30     .byte    030h
    3399                    
    3400 000148a8           I2_55:
    3401 000148a8       3f     .byte    03Fh
    3402 000148b0       3f     .byte    03Fh
    3403 000148b8       03     .byte    03h
    3404 000148c0       1f     .byte    01Fh
    3405 000148c8       3f     .byte    03Fh
    3406 000148d0       30     .byte    030h
    3407 000148d8       3f     .byte    03Fh
    3408 000148e0       1f     .byte    01Fh
    3409                    
TMS340 COFF Macro Assembler Version 6.10     Tue Dec 19 01:45:19 2023
 Copyright (c) 1985-1991  Texas Instruments Incorporated 

                                                                     PAGE   72

    3410 000148e8           I2_66:
    3411 000148e8       3e     .byte    03Eh
    3412 000148f0       3f     .byte    03Fh
    3413 000148f8       03     .byte    03h
    3414 00014900       1f     .byte    01Fh
    3415 00014908       3f     .byte    03Fh
    3416 00014910       33     .byte    033h
    3417 00014918       3f     .byte    03Fh
    3418 00014920       1e     .byte    01Eh
    3419                    
    3420 00014928           I2_77:
    3421 00014928       3f     .byte    03Fh
    3422 00014930       3f     .byte    03Fh
    3423 00014938       30     .byte    030h
    3424 00014940       18     .byte    018h
    3425 00014948       18     .byte    018h
    3426 00014950       0c     .byte    0Ch
    3427 00014958       0c     .byte    0Ch
    3428 00014960       0c     .byte    0Ch
    3429                    
    3430 00014968           I2_88:
    3431 00014968       1e     .byte    01Eh
    3432 00014970       3f     .byte    03Fh
    3433 00014978       33     .byte    033h
    3434 00014980       1e     .byte    01Eh
    3435 00014988       1e     .byte    01Eh
    3436 00014990       33     .byte    033h
    3437 00014998       3f     .byte    03Fh
    3438 000149a0       1e     .byte    01Eh
    3439                    
    3440 000149a8           I2_99:
    3441 000149a8       1e     .byte    01Eh
    3442 000149b0       3f     .byte    03Fh
    3443 000149b8       33     .byte    033h
    3444 000149c0       3f     .byte    03Fh
    3445 000149c8       3e     .byte    03Eh
    3446 000149d0       30     .byte    030h
    3447 000149d8       3f     .byte    03Fh
    3448 000149e0       1f     .byte    01Fh
    3449                    
    3450 000149e8           I2_AA:
    3451 000149e8       1e     .byte    01Eh
    3452 000149f0       3f     .byte    03Fh
    3453 000149f8       33     .byte    033h
    3454 00014a00       33     .byte    033h
    3455 00014a08       3f     .byte    03Fh
    3456 00014a10       3f     .byte    03Fh
    3457 00014a18       33     .byte    033h
    3458 00014a20       33     .byte    033h
    3459                    
    3460 00014a28           I2_BB:
    3461 00014a28       1f     .byte    01Fh
    3462 00014a30       3f     .byte    03Fh
    3463 00014a38       33     .byte    033h
    3464 00014a40       3f     .byte    03Fh
TMS340 COFF Macro Assembler Version 6.10     Tue Dec 19 01:45:19 2023
 Copyright (c) 1985-1991  Texas Instruments Incorporated 

                                                                     PAGE   73

    3465 00014a48       1f     .byte    01Fh
    3466 00014a50       33     .byte    033h
    3467 00014a58       3f     .byte    03Fh
    3468 00014a60       1f     .byte    01Fh
    3469                    
    3470 00014a68           I2_CC:
    3471 00014a68       3e     .byte    03Eh
    3472 00014a70       3f     .byte    03Fh
    3473 00014a78       03     .byte    03h
    3474 00014a80       03     .byte    03h
    3475 00014a88       03     .byte    03h
    3476 00014a90       03     .byte    03h
    3477 00014a98       3f     .byte    03Fh
    3478 00014aa0       3e     .byte    03Eh
    3479                    
    3480 00014aa8           I2_DD:
    3481 00014aa8       1f     .byte    01Fh
    3482 00014ab0       3f     .byte    03Fh
    3483 00014ab8       33     .byte    033h
    3484 00014ac0       33     .byte    033h
    3485 00014ac8       33     .byte    033h
    3486 00014ad0       33     .byte    033h
    3487 00014ad8       3f     .byte    03Fh
    3488 00014ae0       1f     .byte    01Fh
    3489                    
    3490 00014ae8           I2_EE:
    3491 00014ae8       3f     .byte    03Fh
    3492 00014af0       3f     .byte    03Fh
    3493 00014af8       03     .byte    03h
    3494 00014b00       3f     .byte    03Fh
    3495 00014b08       3f     .byte    03Fh
    3496 00014b10       03     .byte    03h
    3497 00014b18       3f     .byte    03Fh
    3498 00014b20       3f     .byte    03Fh
    3499                    
    3500 00014b28           I2_FF:
    3501 00014b28       3f     .byte    03Fh
    3502 00014b30       3f     .byte    03Fh
    3503 00014b38       03     .byte    03h
    3504 00014b40       3f     .byte    03Fh
    3505 00014b48       3f     .byte    03Fh
    3506 00014b50       03     .byte    03h
    3507 00014b58       03     .byte    03h
    3508 00014b60       03     .byte    03h
    3509                    
    3510 00014b68           I2_GG:
    3511 00014b68       3e     .byte    03Eh
    3512 00014b70       3f     .byte    03Fh
    3513 00014b78       03     .byte    03h
    3514 00014b80       03     .byte    03h
    3515 00014b88       33     .byte    033h
    3516 00014b90       33     .byte    033h
    3517 00014b98       3f     .byte    03Fh
    3518 00014ba0       1e     .byte    01Eh
    3519                    
TMS340 COFF Macro Assembler Version 6.10     Tue Dec 19 01:45:19 2023
 Copyright (c) 1985-1991  Texas Instruments Incorporated 

                                                                     PAGE   74

    3520 00014ba8           I2_HH:
    3521 00014ba8       33     .byte    033h
    3522 00014bb0       33     .byte    033h
    3523 00014bb8       33     .byte    033h
    3524 00014bc0       3f     .byte    03Fh
    3525 00014bc8       3f     .byte    03Fh
    3526 00014bd0       33     .byte    033h
    3527 00014bd8       33     .byte    033h
    3528 00014be0       33     .byte    033h
    3529                    
    3530 00014be8           I2_II:
    3531 00014be8       03     .byte    03h
    3532 00014bf0       03     .byte    03h
    3533 00014bf8       03     .byte    03h
    3534 00014c00       03     .byte    03h
    3535 00014c08       03     .byte    03h
    3536 00014c10       03     .byte    03h
    3537 00014c18       03     .byte    03h
    3538 00014c20       03     .byte    03h
    3539                    
    3540 00014c28           I2_JJ:
    3541 00014c28       30     .byte    030h
    3542 00014c30       30     .byte    030h
    3543 00014c38       30     .byte    030h
    3544 00014c40       30     .byte    030h
    3545 00014c48       30     .byte    030h
    3546 00014c50       33     .byte    033h
    3547 00014c58       3f     .byte    03Fh
    3548 00014c60       1e     .byte    01Eh
    3549                    
    3550 00014c68           I2_KK:
    3551 00014c68       33     .byte    033h
    3552 00014c70       33     .byte    033h
    3553 00014c78       1b     .byte    01Bh
    3554 00014c80       0f     .byte    0Fh
    3555 00014c88       1f     .byte    01Fh
    3556 00014c90       33     .byte    033h
    3557 00014c98       33     .byte    033h
    3558 00014ca0       33     .byte    033h
    3559                    
    3560 00014ca8           I2_LL:
    3561 00014ca8       03     .byte    03h
    3562 00014cb0       03     .byte    03h
    3563 00014cb8       03     .byte    03h
    3564 00014cc0       03     .byte    03h
    3565 00014cc8       03     .byte    03h
    3566 00014cd0       03     .byte    03h
    3567 00014cd8       1f     .byte    01Fh
    3568 00014ce0       1f     .byte    01Fh
    3569                    
    3570 00014ce8           I2_MM:
    3571 00014ce8       87     .byte    087h,03h
    3572 00014cf8       cf     .byte    0CFh,03h
    3573 00014d08       cf     .byte    0CFh,03h
    3574 00014d18       7b     .byte    07Bh,03h
TMS340 COFF Macro Assembler Version 6.10     Tue Dec 19 01:45:19 2023
 Copyright (c) 1985-1991  Texas Instruments Incorporated 

                                                                     PAGE   75

    3575 00014d28       7b     .byte    07Bh,03h
    3576 00014d38       33     .byte    033h,03h
    3577 00014d48       33     .byte    033h,03h
    3578 00014d58       33     .byte    033h,03h
    3579                    
    3580 00014d68           I2_NN:
    3581 00014d68       63     .byte    063h
    3582 00014d70       67     .byte    067h
    3583 00014d78       6f     .byte    06Fh
    3584 00014d80       6f     .byte    06Fh
    3585 00014d88       7b     .byte    07Bh
    3586 00014d90       7b     .byte    07Bh
    3587 00014d98       73     .byte    073h
    3588 00014da0       63     .byte    063h
    3589                    
    3590 00014da8           I2_OO:
    3591 00014da8       3e     .byte    03Eh
    3592 00014db0       7f     .byte    07Fh
    3593 00014db8       63     .byte    063h
    3594 00014dc0       63     .byte    063h
    3595 00014dc8       63     .byte    063h
    3596 00014dd0       63     .byte    063h
    3597 00014dd8       7f     .byte    07Fh
    3598 00014de0       3e     .byte    03Eh
    3599                    
    3600 00014de8           I2_PP:
    3601 00014de8       1f     .byte    01Fh
    3602 00014df0       3f     .byte    03Fh
    3603 00014df8       33     .byte    033h
    3604 00014e00       3f     .byte    03Fh
    3605 00014e08       1f     .byte    01Fh
    3606 00014e10       03     .byte    03h
    3607 00014e18       03     .byte    03h
    3608 00014e20       03     .byte    03h
    3609                    
    3610 00014e28           I2_QQ:
    3611 00014e28       3e     .byte    03Eh
    3612 00014e30       7f     .byte    07Fh
    3613 00014e38       63     .byte    063h
    3614 00014e40       63     .byte    063h
    3615 00014e48       63     .byte    063h
    3616 00014e50       63     .byte    063h
    3617 00014e58       7f     .byte    07Fh
    3618 00014e60       3e     .byte    03Eh
    3619 00014e68       60     .byte    060h
    3620 00014e70       60     .byte    060h
    3621                    
    3622 00014e78           I2_RR:
    3623 00014e78       1f     .byte    01Fh
    3624 00014e80       3f     .byte    03Fh
    3625 00014e88       33     .byte    033h
    3626 00014e90       3f     .byte    03Fh
    3627 00014e98       1f     .byte    01Fh
    3628 00014ea0       33     .byte    033h
    3629 00014ea8       33     .byte    033h
TMS340 COFF Macro Assembler Version 6.10     Tue Dec 19 01:45:19 2023
 Copyright (c) 1985-1991  Texas Instruments Incorporated 

                                                                     PAGE   76

    3630 00014eb0       33     .byte    033h
    3631                    
    3632 00014eb8           I2_SS:
    3633 00014eb8       3e     .byte    03Eh
    3634 00014ec0       3f     .byte    03Fh
    3635 00014ec8       03     .byte    03h
    3636 00014ed0       1f     .byte    01Fh
    3637 00014ed8       3e     .byte    03Eh
    3638 00014ee0       30     .byte    030h
    3639 00014ee8       3f     .byte    03Fh
    3640 00014ef0       1f     .byte    01Fh
    3641                    
    3642 00014ef8           I2_TT:
    3643 00014ef8       3f     .byte    03Fh
    3644 00014f00       3f     .byte    03Fh
    3645 00014f08       0c     .byte    0Ch
    3646 00014f10       0c     .byte    0Ch
    3647 00014f18       0c     .byte    0Ch
    3648 00014f20       0c     .byte    0Ch
    3649 00014f28       0c     .byte    0Ch
    3650 00014f30       0c     .byte    0Ch
    3651                    
    3652 00014f38           I2_UU:
    3653 00014f38       33     .byte    033h
    3654 00014f40       33     .byte    033h
    3655 00014f48       33     .byte    033h
    3656 00014f50       33     .byte    033h
    3657 00014f58       33     .byte    033h
    3658 00014f60       33     .byte    033h
    3659 00014f68       3f     .byte    03Fh
    3660 00014f70       1e     .byte    01Eh
    3661                    
    3662 00014f78           I2_VV:
    3663 00014f78       63     .byte    063h
    3664 00014f80       63     .byte    063h
    3665 00014f88       63     .byte    063h
    3666 00014f90       36     .byte    036h
    3667 00014f98       36     .byte    036h
    3668 00014fa0       3e     .byte    03Eh
    3669 00014fa8       1c     .byte    01Ch
    3670 00014fb0       1c     .byte    01Ch
    3671                    
    3672 00014fb8           I2_WW:
    3673 00014fb8       23     .byte    023h,06h
    3674 00014fc8       23     .byte    023h,06h
    3675 00014fd8       73     .byte    073h,06h
    3676 00014fe8       76     .byte    076h,03h
    3677 00014ff8       76     .byte    076h,03h
    3678 00015008       de     .byte    0DEh,03h
    3679 00015018       8c     .byte    08Ch,01h
    3680 00015028       8c     .byte    08Ch,01h
    3681                    
    3682 00015038           I2_XX:
    3683 00015038       63     .byte    063h
    3684 00015040       63     .byte    063h
TMS340 COFF Macro Assembler Version 6.10     Tue Dec 19 01:45:19 2023
 Copyright (c) 1985-1991  Texas Instruments Incorporated 

                                                                     PAGE   77

    3685 00015048       36     .byte    036h
    3686 00015050       1c     .byte    01Ch
    3687 00015058       1c     .byte    01Ch
    3688 00015060       36     .byte    036h
    3689 00015068       63     .byte    063h
    3690 00015070       63     .byte    063h
    3691                    
    3692 00015078           I2_YY:
    3693 00015078       33     .byte    033h
    3694 00015080       33     .byte    033h
    3695 00015088       1e     .byte    01Eh
    3696 00015090       1e     .byte    01Eh
    3697 00015098       0c     .byte    0Ch
    3698 000150a0       0c     .byte    0Ch
    3699 000150a8       0c     .byte    0Ch
    3700 000150b0       0c     .byte    0Ch
    3701                    
    3702 000150b8           I2_ZZ:
    3703 000150b8       3f     .byte    03Fh
    3704 000150c0       3f     .byte    03Fh
    3705 000150c8       38     .byte    038h
    3706 000150d0       1c     .byte    01Ch
    3707 000150d8       0e     .byte    0Eh
    3708 000150e0       07     .byte    07h
    3709 000150e8       3f     .byte    03Fh
    3710 000150f0       3f     .byte    03Fh
    3711                    
    3712                    
    3713 00015100              .EVEN
    3714              0d4c  CKSUM1  .equ    00d4cH  ;05d0bH ;0ac9fH ;a911
    3715              5451  CKSUM2  .equ    05451H  ;0edd7H ;0a0e2H ;9fff
    3716                    
    3717 00015100           PROMCHIPS
    3718 00015100                   ROM_CHIP PROM1,0,0,16, 0FF800000H, 0FFFFFFF0H, CKSUM1   ; UJ12
    3719 000151a0                   ROM_CHIP PROM2,1,0,16, 0FF800008H, 0FFFFFFF8H, CKSUM2   ; UG12
    3720 00015240 00000000          .LONG   0
    3721                    
    3722 00015260     f2b3          .WORD   0ffffH-CKSUM1   ;1'S COMPLEMENT OF THE UJ12 CHECKSUM
    3723 00015270     abae          .WORD   0ffffH-CKSUM2   ;1'S COMPLEMENT OF THE UG12 CHECKSUM
    3724                    
    3725                    
    3726 00015280           IROMCHIPS
    3727                    
    3728                    
    3729                    
    3730                    
    3731 00015280                   .EVEN
    3732                    
    3733                    
    3734                    
    3735                    
    3736                    
    3737                    
    3738 00015280                   ROM_CHIP IROM1,  1, 8,32,  2000000H, 2FFFFE0H, 01161H   ; UG14
    3739 00015320                   ROM_CHIP IROM9,  9, 8,32,  2000008H, 2FFFFE8H, 0748dH   ; UJ14
TMS340 COFF Macro Assembler Version 6.10     Tue Dec 19 01:45:19 2023
 Copyright (c) 1985-1991  Texas Instruments Incorporated 

                                                                     PAGE   78

    3740 000153c0                   ROM_CHIP IROM5,  5, 8,32,  2000010H, 2FFFFF0H, 08b9dH   ; UG19 
    3741 00015460                   ROM_CHIP IROM13,13, 8,32,  2000018H, 2FFFFF8H, 05afeH   ; UJ19 
    3742                    
    3743 00015500                   ROM_CHIP IROM2,  2, 8,32,  3000000H, 3FFFFE0H, 05482H   ; UG16
    3744 000155a0                   ROM_CHIP IROM10,10, 8,32,  3000008H, 3FFFFE8H, 090f2H   ; UJ16
    3745 00015640                   ROM_CHIP IROM6,  6, 8,32,  3000010H, 3FFFFF0H, 0fb60H   ; UG20
    3746 000156e0                   ROM_CHIP IROM14,14, 8,32,  3000018H, 3FFFFF8H, 0cf1cH   ; UJ20
    3747                    
    3748 00015780                   ROM_CHIP IROM3,  3, 8,32,  4000000H, 4FFFFE0H, 00099H   ; UG17
    3749 00015820                   ROM_CHIP IROM11,11, 8,32,  4000008H, 4FFFFE8H, 0c30dH   ; UJ17
    3750 000158c0                   ROM_CHIP IROM7,  7, 8,32,  4000010H, 4FFFFF0H, 003d0H   ; UG22
    3751 00015960                   ROM_CHIP IROM15,15, 8,32,  4000018H, 4FFFFF8H, 08928H   ; UJ22
    3752                    
    3753 00015a00                   ROM_CHIP IROM4,  4, 8,32,  5000000H, 5FFFFE0H, 07520H   ; UG18
    3754 00015aa0                   ROM_CHIP IROM12,12, 8,32,  5000008H, 5FFFFE8H, 001a8H   ; UJ18
    3755 00015b40                   ROM_CHIP IROM8,  8, 8,32,  5000010H, 5FFFFF0H, 02022H   ; UG23
    3756 00015be0                   ROM_CHIP IROM16,16, 8,32,  5000018H, 5FFFFF8H, 07e92H   ; UJ23
    3757                    
    3758 00015c80 00000000          .LONG   0               ; FORCE IT TO STOP HERE
    3759                    
    3760                    
    3761                    
    3762                            .END

 No Errors,  No Warnings
