TMS340 COFF Macro Assembler Version 6.10     Tue Dec 19 01:45:20 2023
 Copyright (c) 1985-1991  Texas Instruments Incorporated 

                                                                     PAGE    1

       1                            .file   "menu.asm"
       3                            .width  132
       4                            .option b,d,l,t
       5                            .mnolist
       6                    
       7                    
       8                            .include        "mproc.equ"
       9                            .include        "disp.equ"
      10                            .include        "sys.equ"
      11                            .include        "imgtbl.glo"
      12                            .include        "imgtbl2.glo"
      13                            .include        "game.equ"
      14                            .include        "link.equ"
      15                            .include        "menu.equ"
      16                            .include        "shawn.hdr"             ;Macros
      17                    
      18 00000000                   .text
      19                    
      20                    
      21                            .DEF    MEN_MAIN,GET_CSPT
      22                            .DEF    MESS_FAC
      23                            .DEF    ANY_BUT,MEN_YN
      24                            .DEF    STR_OBJ
      25                            .DEF    STR_FREE
      26                            .DEF    CKPROMPT
      27                            .DEF    GO_DIAG         ;ROUTINE FOR DIAGNOSTIC MENU
      28                            .DEF    RTR_LEV,ROM_LEV
      29                            .DEF    MESS_MM
      30                            .DEF    CS_ENTS         ;NUMBER OF HIGHEST IN COIN TABLE
      31                            .DEF    TWO_TS,TWO_TP
      32                            .DEF    FAC_STUF
      33                            .DEF    BUILD_ST
      34                            .DEF    SCODE           ;SYNTH CODE CURRENTLY BEING MADE
      35                            .DEF    DCODE           ;DIG CODE CURRENTLY BEING MADE
      36                            .DEF    HID_P
      37                            .DEF    SNDTST
      38                            .DEF    USA_1, USA_2, USA_3, USA_4, USA_ELECTITLE
      39                            .DEF    GERMAN_1, GERMAN_2, GERMAN_3, GERMAN_4, GERMAN_ELECTITLE
      40                            .DEF    FRENCH_1, FRENCH_2, FRENCH_3, FRENCH_4, FRENCH_ELECTITLE
      41                            .DEF    DIPCOINTAB
      42                    
      43                            .ref    snd_reset, QSNDRST
      44                    
      45                    
      46                            .ref    fudge_switches,fudge_switches2
      47                            .ref    fswitches_cur,fswitches_last,fswitches_down
      48                            .REF    WDOGDIS,pal_getf
      49                            .REF    GEN_MENU,B_MENU
      50                            .REF    L_MESS,TOP_BOX
      51                            .REF    GET_AUD
      52                            .REF    LM_FINIS
      53                            .REF    BAD_AUD
      54                            .REF    MAIN_RET
      55                            .REF    AREUSURE
      56                            .REF    F_TITLE
TMS340 COFF Macro Assembler Version 6.10     Tue Dec 19 01:45:20 2023
 Copyright (c) 1985-1991  Texas Instruments Incorporated 

test menus                                                           PAGE    2

      57                            .REF    ST_STICK
      58                            .REF    GETSTICK
      59                            .REF    FAC_SET
      60                            .REF    SUR_MESS
      61                            .REF    SURE_BOX
      62                            .REF    GET_FAC
      63                            .REF    WAIT_BUT
      64                            .REF    DIGSRT
      65                            .REF    DIAG_EX
      66                            .REF    STD_BORD
      67                            .REF    SND_MADE
      68                            .REF    NO_CLEAR
      69                            .REF    LAST_BUT
      70                            .REF    G_BORDER
      71                            .ref    opmsg_main
      72                    
      73                    
      74                            .REF LM_SETUP
      75                            .REF GET_ADJ
      76                            .REF STRCAT
      77                            .REF NO_CREDS
      78                            .REF CLR_AUDR
      79                            .REF CLR_AUD
      80                            .REF CAT_A0
      81                            .REF CK_MAX
      82                            .REF ADJ_PAGE
      83                            .REF F_ADC_S
      84                            .REF WC_BYTEI
      85                            .REF RC_WORD
      86                            .REF DEF_PAGE
      87                            .REF WAIT_MUT
      88                            .REF STORE_AUDIT
      89                    
      90                    
      91                            .REF    INIT_TB,FORM_ADC,WC_WORD,CMOS_VAL
      92                            .REF    P_FORK,GET_HSC,INIT_HSR
      93                    
      94                    
      95                            .REF    GO_ADJ
      96                    
      97                    
      98                    
      99                            .ref    FILLAREA
     100                            .ref    CLR_SCRN
     101                            .ref    dpageflip_off
     102                    
     103                    
     104                            .ref    amode_start
     105                    
     106                    
     107                            .ref    show_player_records
     108                            .ref    SWITCHTEST
     109                            .REF    COL_BARS,CROSS_H,BURN_IN,STRNEW1
     110                    
     111                            .REF    RD15FONT,SCRCLR,display_init,STRCNRM,GAMSTATE
TMS340 COFF Macro Assembler Version 6.10     Tue Dec 19 01:45:20 2023
 Copyright (c) 1985-1991  Texas Instruments Incorporated 

test menus                                                           PAGE    3

     112                            .REF    STRNGRAM,BLNKAREA,STRLNRM,RD7FONT,HEXTOASC
     113                            .REF    CLR_SCRN,STRRNRM
     114                            .REF    WARMSET, DIAGCPUTEST
     115                    
     116 00000000                   .BSS    FAC_FLAG,16             ;FLAG SAYS CLEAR AUDITS AND HSTABLE
     117                                                            ;IF FACTORY SETTINGS SUCCEED.
     118 00000010                   .BSS    SCODE,16                ;SYNTH CODE LAST MADE!
     119 00000020                   .BSS    DCODE,16                ;DIG CODE LAST MADE!
     120 00000030                   .BSS    TMPOBJ,32               ;TEMPORARY OBJECT FROM STR_OBJ
     121                    
     122 00000000                   BSSX    octopus2,16
     123                    
     124                    
     125                    
     126 00000000           GET_CSPT
     127 00000000                   PUSH    a0
     128 00000010     1820          movk    ADJPRICE,a0
     129 00000020     0d5f          CALLA   GET_ADJ         ;GET THE COIN SELECT NUMBER BEING USED.
         00000030 00000000! 
     130 00000050     0d3f          CALLR   CS_POINT
         00000060     0002  
     131 00000070                   PULL    a0
     132 00000080     0960          RETS
     133                            
     134 00000090           CS_POINT
     135 00000090     098f          MMTM    SP,A0,A1
         000000a0     c000  
     136 000000b0     4c00          MOVE    A0,A0           ;ZERO?
     137 000000c0     ca06          JRZ     CS1             ;YEP...RETURN FIRST LINE
     138                    
     139 000000d0     0b60          CMPI    CS_ENTS,A0      ;IN RANGE?
         000000e0 ffffffc5  
     140 00000100     c201          JRLS    CS2             ;YEP...CONTINUE
     141 00000110     1820          MOVK    1,A0            ;TOO LARGE.......USE 1ST LINE.
     142                    
     143 00000120     1420  CS2     DEC     A0              ;INDEX INTO TABLE
     144 00000130     09c1  CS1     MOVI    CS_SIZE,A1      ;SIZE PER ENTRY
         00000140     01c0  
     145 00000150     5e01          MPYU    A0,A1           ;OFFSET INTO TABLE
     146 00000160     0b21          ADDI    CSELCT,A1
         00000170 00007490" 
     147 00000190     4c26          MOVE    A1,A6           ;RETURN THE POINTER
     148 000001a0     09af          MMFM    SP,A0,A1
         000001b0     0003  
     149 000001c0     0960          RETS
     150                    
     151                                                                                    
     152 000001d0           CKPROMPT
     153 000001d0                   PUSH    a6
     154 000001e0     1a40          movk    ADJFREPL,a0
     155 000001f0     0d5f          CALLA   GET_ADJ
         00000200 00000000! 
     156 00000220     cb27          jrnz    RET_NO                  ;Free play?
     157                    
     158 00000230     0d5f          CALLA   CK_MAX                  ;ARE WE AT MAX CREDITS?
TMS340 COFF Macro Assembler Version 6.10     Tue Dec 19 01:45:20 2023
 Copyright (c) 1985-1991  Texas Instruments Incorporated 

test menus                                                           PAGE    4

         00000240 00000000! 
     159 00000260     c935          JRHS    RET_MAX
     160                    
     161 00000270     1ac0          movk    ADJNOCPAG,a0
     162 00000280     0d5f          CALLA   GET_ADJ                 ;CHECK THE ADJUSTMENT
         00000290 00000000! 
     163 000002b0     cb23          JRNZ    CKSPCASE                ;WE'RE SET TO SHUT UP.JUST START/CONT
     164                    
     165 000002c0     1aa0          movk    ADJ1ST6,a0              ;has operator messed around?
     166 000002d0     0d5f          CALLA   GET_ADJ
         000002e0 00000000! 
     167 00000300     ca1e          JRZ     CKSPCASE                ;YEP...GO FOR GENERIC "2 TO START"
     168                    
     169                    
     170 00000310     0d3f          CALLR   CK_2_CRED               ;IS IT A 2 CREDIT MODE?
         00000320     002d  
     171 00000330     ca0a          JRZ     NOT_2_MODE              ;NOPE...PRINT STOCK STUFF
     172                    
     173 00000340     4c01          MOVE    A0,A1                   ;COPY 2/1        2/2 CODE
     174 00000350     0d3f          CALLR   GET_CSPT                ;POINT A6 AT CSEL FOR US NOW.
         00000360     ffc9  
     175 00000370     b4c0          MOVE    *A6(CS_PICK),A0         ;GET INDICATION OF WHICH LINE
         00000380     0190  
     176 00000390     ca15          JRZ     CKSPCASE                ;IT SAYS JUST ENUMERATE THE MODE!
     177                    
     178                    
     179 000003a0     1421          subk    1,a1
     180 000003b0     ca0a          JRZ     RET_A0_VAL              ;2/1?
     181                    
     182 000003c0     1060          addk    3,a0
     183 000003d0     c008          JRUC    RET_A0_VAL              ;RETURN THIS!
     184                    
     185 000003e0           NOT_2_MODE
     186 000003e0     0d3f          CALLR   GET_CSPT                ;POINT A6 AT CSEL FOR US NOW.
         000003f0     ffc0  
     187 00000400     b6c0          MOVE    *A6(CS_PROMPT),A0,L     ;FETCH POINTER TO MESSAGE (IF ANY)
         00000410     0130  
     188 00000420     ca0c          JRZ     CKSPCASE
     189                                                            ;WE HAVE SOMETHING STORED AT THE PROMPT
     190 00000430     0b40          CMPI    CSM_LAST,A0             ;IS IT LITTLE?
         00000440     fffb  
     191 00000450     c305          JRHI    CKEXIT                  ;NOPE..ITS A POINTER..RETURN L_MESS STATUE
     192                    
     193 00000460           RET_A0_VAL
     194 00000460     4c01          MOVE    A0,A1                   ;ITS LITTLE...RETURN IT AS A CODE
     195 00000470     b6c0          MOVE    *A6(CS_LIST),A0,L       ;PASS BACK MESSAGE LIST FOR THIS MODE
         00000480     0170  
     196 00000490     c002          JRUC    CK_BYE
     197                    
     198 000004a0     5600  RET_NO  CLR     A0                      ;IT IS FREE PLAY.
     199 000004b0     5621  CKEXIT  CLR     A1                      ;NO FANCIES YET
     200 000004c0           CK_BYE  PULL    a6
     201 000004d0     4c00          move    a0,a0                   ;Pass Z
     202 000004e0     0960          rets
     203                    
TMS340 COFF Macro Assembler Version 6.10     Tue Dec 19 01:45:20 2023
 Copyright (c) 1985-1991  Texas Instruments Incorporated 

test menus                                                           PAGE    5

     204                    
     205 000004f0           CKSPCASE
     206 000004f0     0d3f          CALLR   CK_2_CRED               ;CHECK IF THERE ARE 2 CREDIT MODES.
         00000500     000f  
     207 00000510     caf8          JRZ     RET_NO                  ;NOT A 2 CREDIT MODE.
     208                    
     209 00000520     1420          subk    1,a0
     210 00000530     ca04          JRZ     TWO_ONE                 ;YEP...RETURN 2/1
     211                    
     212 00000540     09e0          MOVI    TWO_CRED_PER_PLAYER,A0
         00000550 00015a00" 
     213 00000570     c0f3          JRUC    CKEXIT                  ;RETURN IT!
     214                    
     215                    
     216 00000580     09e0  TWO_ONE MOVI    TWO_TO_START_2C,A0
         00000590 00015380" 
     217                    
     218                    
     219 000005b0     c0ef          JRUC    CKEXIT
     220                    
     221 000005c0     09e0  RET_MAX MOVI    MAX_C_M,A0
         000005d0 00015b50" 
     222 000005f0     c0eb          JRUC    CKEXIT
     223                    
     224                    
     225 00000600           CK_2_CRED
     226 00000600     09c0          MOVI    ADJCSTRT,A0
         00000610     000b  
     227 00000620     0d5f          CALLA   GET_ADJ         ;HOW MANY TO START
         00000630 00000000! 
     228 00000650     1440          subk    2,a0
     229 00000660     cb0a          jrnz    c2c20           ;!2 to start?
     230                    
     231 00000670     09c0          MOVI    ADJCCONT,A0
         00000680     000c  
     232 00000690     0d5f          CALLA   GET_ADJ         ;GET CONTINUE NUMBER
         000006a0 00000000! 
     233 000006c0     0b40          cmpi    2,a0            ;1 or 2 is what we return
         000006d0     fffd  
     234 000006e0     c302          jrhi    c2c20           ;02H?
     235 000006f0     4c00          move    a0,a0           ;Return NZ (unless its 2/0)
     236 00000700     0960          rets
     237                    
     238 00000710     5600  c2c20   clr     a0              ;Pass Z
     239 00000720     0960          rets
     240                    
     241                    
     242 00000730           FORCE_MAIN
     243 00000730     1820          MOVK    1,A0            ;POSITIVE NUMBER FORCES MAIN MENU.
     244 00000740     0580          MOVE    A0,@MAIN_RET
         00000750 00000000! 
     245 00000770                   RETP                    ;NOW "RETURN TO THE MENU"
     246                    
     247 000007a0           GO_DIAG
     248 000007a0     09e8          MOVI    MEN_DIAG,A8     ;PUT UP THE MENU AND GO!
TMS340 COFF Macro Assembler Version 6.10     Tue Dec 19 01:45:20 2023
 Copyright (c) 1985-1991  Texas Instruments Incorporated 

test menus                                                           PAGE    6

         000007b0 00001630" 
     249 000007d0     c080          JAUC    GEN_MENU        ;THIS WILL RETURN TO LEVEL ABOVE US!
         000007e0 00000000! 
     250                    
     251 00000800           gb20    JSRP    DO_CLCOIN
     252 00000870           GO_BOOK
     253 00000870     0d5f          CALLA   CLR_SCRN
         00000880 00000000! 
     254 000008a0     09e2          MOVI    MES_BOOK,A2
         000008b0 00000270" 
     255 000008d0     09c3          MOVI    ROBO_WHITE,A3
         000008e0     0202  
     256 000008f0                   JSRP    TOP_BOX                 ;PRINT TITLE BOX.
     257                    
     258 00000960     09e0          MOVI    COIN_AUDS,A0            ;PUT TABLE UP.
         00000970 00005440' 
     259 00000990                   JSRP    PRNT_AUD
     260 00000a00     09e0          MOVI    COIN1_AUDS,A0           ;PUT TABLE UP.
         00000a10 00005680' 
     261 00000a30                   JSRP    PRNT_AUD
     262                    
     263 00000aa0     09c8          MOVI    AUDLCOIN,A8             ;NOW PRINT MONEY FOR 1ST 3
         00000ab0     0001  
     264 00000ac0                   JSRP    PRINT_COL
     265                    
     266 00000b30     09e0          MOVI    COIN2_AUDS,A0           ;PUT TABLE UP.
         00000b40 00005740' 
     267 00000b60                   JSRP    PRNT_AUD
     268                    
     269                    
     270                    
     271                    
     272 00000bd0     09e8          MOVI    MEN_DETAIL,A8
         00000be0 00001f30" 
     273 00000c00     1849          MOVK    2,A9                    ;CURSOR ON 2nd ENTRY
     274 00000c10                   JSRP    B_MENU                  ;SEE IF THEY WANT PAGE 2.
     275 00000c80     0b48          CMPI    1,A8                    ;DID WE GET 1'ST ENTRY?
         00000c90     fffe  
     276 00000ca0     cab5          jreq    gb20
     277                    
     278 00000cb0                   RETP
     279                    
     280                    
     281                    
     282                    
     283                    
     284 00000ce0           GO_AUD
     285 00000ce0     0d5f          CALLA   CLR_SCRN
         00000cf0 00000000! 
     286 00000d10     09e2          MOVI    MES_AUD,A2
         00000d20 00000210" 
     287 00000d40     09c3          MOVI    ROBO_CYAN,A3
         00000d50     0e0e  
     288 00000d60                   JSRP    TOP_BOX         ;PRINT TITLE BOX.
     289                    
TMS340 COFF Macro Assembler Version 6.10     Tue Dec 19 01:45:20 2023
 Copyright (c) 1985-1991  Texas Instruments Incorporated 

test menus                                                           PAGE    7

     290 00000dd0     09e0          MOVI    GAME_AUDS,A0    ;PUT TABLE UP.
         00000de0 00005e60' 
     291 00000e00                   JSRP    PRNT_AUD
     292                    
     293 00000e70     09e8          MOVI    MEN_AP1,A8      ;AUDIT PAGE 1 MENU
         00000e80 000022f0" 
     294 00000ea0     1829          MOVK    1,A9            ;CURSOR ON 1ST ENTRY
     295 00000eb0                   JSRP    B_MENU          ;SEE IF THEY WANT PAGE 2.
     296                    
     297 00000f20     0b48          CMPI    1,A8            ;DID WE GET 1'ST ENTRY?
         00000f30     fffe  
     298 00000f40     cb58          JRNZ    NO_AP2          ;NOPE...RETURN TO OUR CALLER
     299                    
     300                    
     301 00000f50           sxxhpage2
     302 00000f50     0d5f          CALLA   CLR_SCRN
         00000f60 00000000! 
     303                    
     304 00000f80     09e2          MOVI    MES_AUD,A2
         00000f90 00000210" 
     305 00000fb0     09c3          MOVI    ROBO_CYAN,A3
         00000fc0     0e0e  
     306 00000fd0                   JSRP    TOP_BOX         ;PRINT TITLE BOX.
     307                    
     308 00001040     09e0          MOVI    GAME_AUDS1a,A0  ;PUT TABLE UP.
         00001050 000064c0' 
     309 00001070                   JSRP    PRNT_AUD
     310                    
     311 000010e0     09e8          MOVI    MEN_AP2,A8
         000010f0 000024d0" 
     312 00001110     1829          MOVK    1,A9            ;CURSOR ON 1ST ENTRY
     313 00001120                   JSRP    B_MENU          ;SEE IF THEY WANT PAGE 2.
     314 00001190     0b48          cmpi    2,A8            ;DID WE GET 2nd ENTRY (RETURN TO PAGE 1)
         000011a0     fffd  
     315 000011b0     cab2          jreq    GO_AUD          ;YEP...PUT IT UP!
     316                    
     317                    
     318                    
     319                    
     320 000011c0           sxxhpage3
     321 000011c0     0d5f          CALLA   CLR_SCRN
         000011d0 00000000! 
     322                    
     323 000011f0     09e2          MOVI    MES_AUD,A2
         00001200 00000210" 
     324 00001220     09c3          MOVI    ROBO_CYAN,A3
         00001230     0e0e  
     325 00001240                   JSRP    TOP_BOX         ;PRINT TITLE BOX.
     326                    
     327 000012b0     09e0          MOVI    GAME_AUD2a,A0   ;PUT TABLE UP.
         000012c0 00007ec0' 
     328 000012e0                   JSRP    PRNT_AUD
     329 00001350     09e0          MOVI    GAME_AUD2b,A0   ;PUT TABLE UP.
         00001360 00008460' 
     330 00001380                   JSRP    PRNT_AUD
TMS340 COFF Macro Assembler Version 6.10     Tue Dec 19 01:45:20 2023
 Copyright (c) 1985-1991  Texas Instruments Incorporated 

test menus                                                           PAGE    8

     331                    
     332 000013f0     09e8          MOVI    MEN_AP3,A8
         00001400 000026b0" 
     333 00001420     1829          MOVK    1,A9            ;CURSOR ON 2ND ENTRY
     334 00001430                   JSRP    B_MENU          ;SEE IF THEY WANT PAGE 2.
     335 000014a0     0b48          CMPI    2,A8            ;DID WE GET 2nd ENTRY (RETURN TO PAGE 2)
         000014b0     fffd  
     336 000014c0     caa8          JRZ     sxxhpage2               ;YEP...PUT IT UP!
     337                    
     338 000014d0           NO_AP2
     339 000014d0                   RETP
     340                    
     341 00001500           GO_UTIL
     342 00001500     09e8          MOVI    MEN_UTIL,A8
         00001510 000011b0" 
     343 00001530     c080          JAUC    GEN_MENU        ;PROCESS THE UTILITY MENU!
         00001540 00000000! 
     344                    
     345 00001560           DO_CLCRED
     346 00001560     09e8          MOVI    MESS_CLCRED,A8  ;CLEAR COIN SUB-TOTALS...ARE YOU SURE
         00001570 000049f0" 
     347 00001590     09e9          MOVI    CLR_CREDITS,A9  ;ROUTINE TO DO IT
         000015a0 00001620' 
     348 000015c0     09ea          MOVI    MESS_CCCONF,A10 ;CONFIRMATION.
         000015d0 00004a60" 
     349 000015f0     c080          JAUC    AREUSURE        ;ASK EM......THEN RETURN!
         00001600 00000000! 
     350                    
     351 00001620           CLR_CREDITS
     352 00001620     0d5f          CALLA   NO_CREDS                ;CALL THE ROUTINE THAT DOES IT
         00001630 00000000! 
     353 00001650                   RETP
     354                    
     355 00001680           DO_CLCOIN
     356 00001680     09e8          MOVI    MESS_CLCOIN,A8          ;CLEAR COIN SUB-TOTALS...ARE YOU SURE
         00001690 00004ae0" 
     357 000016b0     09e9          MOVI    CLR_COINS,A9            ;ROUTINE TO DO IT
         000016c0 00001740' 
     358 000016e0     09ea          MOVI    MESS_CCNCONF,A10        ;CONFIRMATION.
         000016f0 00005be0" 
     359 00001710     c080          JAUC    AREUSURE                ;ASK EM......THEN RETURN!
         00001720 00000000! 
     360                    
     361 00001740           CLR_COINS
     362 00001740     09c0          MOVI    FRST_C,A0
         00001750     0001  
     363 00001760     09c1          MOVI    LAST_C,A1
         00001770     000d  
     364 00001780     0d5f          CALLA   CLR_AUDR
         00001790 00000000! 
     365 000017b0                   RETP
     366                    
     367 000017e0           DO_CLAUD
     368 000017e0     09e8          MOVI    MESS_CLAUD,A8           ;CLEAR COIN SUB-TOTALS...ARE YOU SURE
         000017f0 00004b80" 
TMS340 COFF Macro Assembler Version 6.10     Tue Dec 19 01:45:20 2023
 Copyright (c) 1985-1991  Texas Instruments Incorporated 

test menus                                                           PAGE    9

     369 00001810     09e9          MOVI    CLR_AUDITS,A9           ;ROUTINE TO DO IT
         00001820 000019c0' 
     370 00001840     09ea          MOVI    MESS_CAUDCONF,A10       ;CONFIRMATION.
         00001850 00005d40" 
     371 00001870     c080          JAUC    AREUSURE                ;ASK EM......THEN RETURN!
         00001880 00000000! 
     372                    
     373 000018a0           DO_CLPLRECS
     374 000018a0     09e8          movi    MESS_CLPLRECS,A8        ;CLEAR PLAYER RECORDS
         000018b0 00004c10" 
     375 000018d0     09e9          movi    clr_plr_records,a9      ;ROUTINE TO DO IT
         000018e0 00001960' 
     376 00001900     09ea          movi    MESS_CLPLRECSCONF,a10   ;CONFIRMATION.
         00001910 00006000" 
     377 00001930     c080          jauc    AREUSURE                ;ASK EM......THEN RETURN!
         00001940 00000000! 
     378                    
     379                            .global clear_player_records
     380 00001960           clr_plr_records
     381 00001960     0d5f          calla   clear_player_records
         00001970 00000000! 
     382 00001990                   RETP
     383                    
     384 000019c0           CLR_AUDITS
     385 000019c0     09c0          MOVI    FRSTGAUD,A0
         000019d0     000e  
     386 000019e0     09c1          MOVI    LASTGAUD,A1
         000019f0     0061  
     387 00001a00     0d5f          CALLA   CLR_AUDR
         00001a10 00000000! 
     388 00001a30                   RETP
     389                    
     390 00001a60           DO_HSRES
     391 00001a60     09e8          MOVI    MESS_HSRESET,A8
         00001a70 00004cd0" 
     392 00001a90     09e9          MOVI    HSSOFT,A9
         00001aa0 00001b20' 
     393 00001ac0     09ea          MOVI    MESS_HSRCONF,A10
         00001ad0 00005e90" 
     394 00001af0     c080          JAUC    AREUSURE
         00001b00 00000000! 
     395                    
     396 00001b20           HSSOFT
     397 00001b20     0d3f          CALLR   RES_ALL
         00001b30     0003  
     398 00001b40                   RETP                            ;PROGRAM TO DO THE JOB!
     399                    
     400 00001b70           RES_ALL
     401 00001b70     c080          jauc    INIT_HSR                ;RE-SET THE HIGH SCORE RESET COUNTER
         00001b80 00000000! 
     402                    
     403 00001ba0           DO_FACSET
     404 00001ba0     09e8           MOVI    MESS_FACSET,A8
         00001bb0 00005020" 
     405 00001bd0     1820           MOVK    1,A0
TMS340 COFF Macro Assembler Version 6.10     Tue Dec 19 01:45:20 2023
 Copyright (c) 1985-1991  Texas Instruments Incorporated 

test menus                                                           PAGE   10

     406 00001be0     c004           JRUC    DEF_ADJ_PART
     407                    
     408 00001bf0           DO_DEF_ADJ
     409 00001bf0     09e8          MOVI    MESS_DEF_ADJ,A8
         00001c00 00004ef0" 
     410 00001c20     5600          CLR     A0
     411                    
     412 00001c30           DEF_ADJ_PART
     413 00001c30     0580          MOVE    A0,@FAC_FLAG,W          ;INDICATE THIS IS ADJUSTMENTS ONLY
         00001c40 00000000- 
     414 00001c60     09e9          MOVI    DEFADJSOFT,A9
         00001c70 00001d60' 
     415 00001c90     09ea          MOVI    NULL_ST,A10             ;DON'T PRINT ANYTHING....ROUTINE WILL.
         00001ca0 0000dc90" 
     416 00001cc0                   JSRP    AREUSURE
     417 00001d30                   RETP
     418                    
     419 00001d60           DEFADJSOFT
     420 00001d60     0d5f          CALLA   FORM_ADC               ;FORM THE CKSUM
         00001d70 00000000! 
     421 00001d90     4c20          MOVE    A1,A0                  ;PUT IN CMOS WRITING REGGIE
     422 00001da0     09e7          MOVI    ADJ_CKSUM,A7
         00001db0 01404c40  
     423 00001dd0     1020          INC     A0                     ;THIS SMASHES ADJUSTMENTS
     424 00001de0     0d5f          CALLA   WC_WORD                ;AND STORE IT
         00001df0 00000000! 
     425 00001e10     0d5f          CALLA   CMOS_VAL
         00001e20 00000000! 
     426 00001e40     ca27          JRZ     AD_FAIL                ;WE CAN'T DO IT.....PRINT FAILURE.
     427 00001e50     5600          clr     a0              ;Full
     428 00001e60     0d5f          CALLA   FAC_SET
         00001e70 00000000! 
     429 00001e90     0d5f          CALLA   CMOS_VAL        ;IS IT OK NOW?
         00001ea0 00000000! 
     430 00001ec0     cb1f          JRNZ    AD_FAIL         ;NOPE...PRINT FAILURE
     431                    
     432 00001ed0     09e8          MOVI    MESS_DEFCONF,A8 ;THIS IS SINGLE MESSAGE
         00001ee0 00005a80" 
     433                    
     434 00001f00     05a0          MOVE    @FAC_FLAG,A0,W  ;DO WE NEED TO CLEAR THE TABLES?
         00001f10 00000000- 
     435 00001f30     ca1f          JRZ     DAX             ;NOPE...POST SINGLE MESSAGE
     436                    
     437 00001f40     0d5f          CALLA   CLR_SCRN        ;CLEAR THE SCREEN FOR OUR MESSAGES.
         00001f50 00000000! 
     438 00001f70     0d3f          CALLR   FAC_STUF        ;DO AUDITS AND HIGH SCORE TABLE
         00001f80     000d  
     439                    
     440 00001f90     09e8          MOVI    MESS_FFSCONF,A8 ;PRINT THE REST OF THE MESSAGES
         00001fa0 000059e0" 
     441 00001fc0                   JSRP    L_MESS          ;THAT DOES IT!
     442                    
     443 00002030           NOTABS
     444 00002030                   RETP
     445                    
TMS340 COFF Macro Assembler Version 6.10     Tue Dec 19 01:45:20 2023
 Copyright (c) 1985-1991  Texas Instruments Incorporated 

test menus                                                           PAGE   11

     446 00002060           FAC_STUF
     447 00002060     0d5f          CALLA   CLR_AUD         ;CLEAR AUDITS TOO
         00002070 00000000! 
     448 00002090     0d3f          CALLR   RES_ALL         ;ALL TIME TABLE
         000020a0     ffac  
     449 000020b0     0960          RETS
     450                    
     451 000020c0           AD_FAIL
     452 000020c0     09e8          MOVI    MESS_FACFAIL,A8
         000020d0 00005930" 
     453 000020f0     c003          JRUC    DAX
     454                    
     455 00002100           DEF_CAN
     456 00002100     09e8          MOVI    MESS_CANCELLED,A8
         00002110 000060e0" 
     457 00002130           DAX
     458 00002130     0d5f          CALLA   CLR_SCRN
         00002140 00000000! 
     459 00002160                   JSRP    SUR_MESS
     460 000021d0                   RETP
     461 00002200           EXIST_LET
     462 00002200     09c0          MOVI    OPMES_PID,A0                   ;SETUP FOR THE EXISTP
         00002210     0ac3  
     463 00002220     09e1          MOVI    0FFFFH,A1
         00002230 0000ffff  
     464 00002250     c080          JAUC   EXISTP
         00002260 00000000! 
     465 00002280           BUILD_ST
     466 00002280     098f          MMTM    SP,A0,A1,A3,A4,A5,A10
         00002290     dc20  
     467 000022a0     5684          CLR     A4                     ;A4 = ZERO UNTIL 1ST NON-BLANK
     468 000022b0     09e5          MOVI    STRNGRAM-BYTE_SIZE,A5  ;LAST NON-SPACE CHAR
         000022c0 fffffff8! 
     469 000022e0     09e1          MOVI    STRNGRAM,A1          ;DESTINATION POINTER
         000022f0 00000000! 
     470 00002310     09c2          MOVI    CMESS_CHARS,A2       ;CHAR COUNT
         00002320     001a  
     471                    
     472 00002330           BSLOOP
     473 00002330     8f43          MOVB    *A10,A3              ;FETCH A BYTE
     474 00002340     0b83          ANDI    BYTE_MASK,A3         ;KILL SIGN EXTEND.
         00002350 ffffff00  
     475 00002370     cb02          JRNZ    BS1                  ;NOT ZERO
     476 00002380     09c3          MOVI    SPACE,A3             ;REPLACE ZERO WITH SPACE.
         00002390     0020  
     477                    
     478 000023a0           BS1
     479 000023a0     0b43          CMPI    SPACE,A3             ;IS IT A SPACE?
         000023b0     ffdf  
     480 000023c0     ca03          JRZ     BS2                  ;IT IS...
     481 000023d0     5464          OR      A3,A4                ;INDICATE 1ST NON-BLANK SEEN
     482 000023e0     4c25          MOVE    A1,A5                ;INDICATE THIS IS CURRENT TERMINATOR.
     483 000023f0     c002          JRUC    BS3
     484                    
     485 00002400           BS2
TMS340 COFF Macro Assembler Version 6.10     Tue Dec 19 01:45:20 2023
 Copyright (c) 1985-1991  Texas Instruments Incorporated 

test menus                                                           PAGE   12

     486 00002400     4c84          MOVE    A4,A4                ;HAS 1ST SPACE BEEN SEEN?
     487 00002410     ca02          JRZ     BS4                  ;NOT YET...DON'T STORE
     488 00002420           BS3
     489 00002420     8c61          MOVB    A3,*A1               ;STORE IT IN MEMORY
     490 00002430     1101          ADDK    BYTE_SIZE,A1         ;PUSH DESTINATION POINTER
     491 00002440           BS4
     492 00002440     110a          ADDK    BYTE_SIZE,A10        ;PUSH SOURCE POINTER
     493 00002450     3e62          DSJS    A2,BSLOOP            ;AND FINISH PARSE
     494 00002460     1105          ADDK    BYTE_SIZE,A5         ;THIS IS 1 BEYOND
     495 00002470     5642          CLR     A2
     496 00002480     8c45          MOVB    A2,*A5               ;TERMINATE WITH A ZERO.
     497 00002490     4c84          MOVE    A4,A4                ;ALL BLANK?
     498 000024a0     cb03          JRNZ    NOT_BLNK
     499 000024b0     09c2          MOVI    CMESS_CHARS,A2       ;ALL CHARS ARE TRAILING BLANKS
         000024c0     001a  
     500 000024d0     c003          JRUC    BL_EX                ;RETURN THIS
     501                    
     502 000024e0           NOT_BLNK
     503 000024e0     4c22          MOVE    A1,A2                ;THIS IS LAST CHAR WE WROTE
     504 000024f0     44a2          SUB     A5,A2                ;THIS IS NUMBER OF TRAILING SPACES (TIMES 8)
     505 00002500     2fa2          SRL     3,A2                 ;DIVIDE BY 8 TO GET SPACES
     506 00002510           BL_EX
     507 00002510     4c84          MOVE    A4,A4                ;FLAG ZERO FOR ALL BLANK!
     508 00002520     09af          MMFM    SP,A0,A1,A3,A4,A5,A10
         00002530     043b  
     509 00002540     0960          RETS
     510                    
     511                    
     512 00002550           GO_RED
     513 00002550     09c1          MOVI    ROBO_RED,A1
         00002560     0303  
     514 00002570     c080          JAUC    SC_COL
         00002580 00002610' 
     515                    
     516 000025a0           GO_GREEN
     517 000025a0     09c1          MOVI    ROBO_GREEN,A1
         000025b0     0606  
     518 000025c0     c080          JAUC    SC_COL
         000025d0 00002610' 
     519                    
     520 000025f0           GO_BLUE
     521 000025f0     09c1          MOVI    ROBO_BLUE,A1
         00002600     0707  
     522 00002610           SC_COL
     523 00002610     2601          SLL     16,A1           ;[color,palette]
     524 00002620     5663          clr     a3              ;[y,x] start
     525 00002630     09e4          movi    [256,399],a4    ;[Y,X] SIZE OF AREA
         00002640 0100018f  
     526 00002660     0d5f          CALLA   FILLAREA        ;THIS DOES THE SCREEN
         00002670 00000000! 
     527 00002690     c080          JAUC    WAIT_BUT        ;NOW WAIT FOR ANY BUTTON!
         000026a0 00000000! 
     528                    
     529 000026c0           GO_CPUTEST
     530 000026c0     c080          JAUC    DIAGCPUTEST
TMS340 COFF Macro Assembler Version 6.10     Tue Dec 19 01:45:20 2023
 Copyright (c) 1985-1991  Texas Instruments Incorporated 

test menus                                                           PAGE   13

         000026d0 00000000! 
     531                    
     532                            
     533 000026f0           GO_CROSS
     534 000026f0     0d5f          CALLA   SCRCLR
         00002700 00000000! 
     535 00002720     0d5f          CALLA   CROSS_H
         00002730 00000000! 
     536 00002750     c080          JAUC    WAIT_BUT             ;NOW WAIT FOR ANY BUTTON!
         00002760 00000000! 
     537                    
     538 00002780           GO_SWTEST
     539 00002780     0d5f          CALLA   SCRCLR
         00002790 00000000! 
     540 000027b0     5600          clr     a0
     541 000027c0                   JSRP    SWITCHTEST
     542 00002830                   RETP
     543                    
     544 00002860           dipsw_test
     545 00002860     0d5f          CALLA   SCRCLR
         00002870 00000000! 
     546 00002890     1820          movk    1,a0                    ;DIP mode
     547 000028a0                   JSRP    SWITCHTEST
     548 00002910                   RETP
     549                            
     550                    
     551 00002940           GO_BARS
     552 00002940     0d5f          CALLA   SCRCLR
         00002950 00000000! 
     553 00002970     098f          MMTM    SP,A12,A13
         00002980     000c  
     554 00002990     0d5f          CALLA   COL_BARS
         000029a0 00000000! 
     555 000029c0     09af          MMFM    SP,A12,A13
         000029d0     3000  
     556 000029e0     c080          JAUC    WAIT_BUT             ;NOW WAIT FOR ANY BUTTON!
         000029f0 00000000! 
     557                    
     558 00002a10           DO_BURN
     559 00002a10     09e8          MOVI    MESS_BURN,A8         ;CLEAR COIN SUB-TOTALS...ARE YOU SURE
         00002a20 00004e60" 
     560 00002a40     09e9          MOVI    BURN_IN,A9           ;ENTRY POINT
         00002a50 00000000! 
     561 00002a70     09ea          MOVI    MESS_BURN,A10        ;THIS WILL NEVER BE SEEN!
         00002a80 00004e60" 
     562 00002aa0     c080          JAUC    AREUSURE             ;ASK EM.
         00002ab0 00000000! 
     563                    
     564 00002ad0           ANY_BUT
     565 00002ad0     09e8          MOVI    ANY_MENU,A8          ;ANY BUTTON TO CONTINUE
         00002ae0 000019f0" 
     566 00002b00     1829          MOVK    1,A9                 ;CURSOR ON ENTRY 1
     567 00002b10     c080          JAUC    B_MENU               ;DO IT....RETURN WHEN PRESSED.
         00002b20 00000000! 
     568                    
TMS340 COFF Macro Assembler Version 6.10     Tue Dec 19 01:45:20 2023
 Copyright (c) 1985-1991  Texas Instruments Incorporated 

test menus                                                           PAGE   14

     569                    
     570                    
     571              0006  NCHAN           EQU     6       ;DECLARE NUMBER OF ALLOWED CHANNELS
     572              0003  MUSICHAN        EQU     3       ;THIS CHANNEL IS FOR THE TUNES
     573                    
     574              fe00  RESETBIT        EQU     0FE00H  ;Sound board reset bit
     575                    
     576 00002b40           GO_STEST
     577                    
     578 00002b40     0d5f          CALLA   CLR_SCRN
         00002b50 00000000! 
     579                    
     580 00002b70     09e8          movi    MEN_SOUNDTEST,a8
         00002b80 00002890" 
     581 00002ba0     1829          movk    1,a9                    ;CURSOR ON 1st ENTRY
     582                    
     583 00002bb0     c080          JAUC    GEN_MENU                ;THIS WILL RETURN TO LEVEL ABOVE US!
         00002bc0 00000000! 
     584                    
     585                    
     586 00002be0           SNDTST
     587 00002be0     09e8          MOVI    SNDMES,A8       ;MESSAGE POINTER
         00002bf0 00002f80' 
     588 00002c10           SNDTLP
     589 00002c10     0d5f          CALLA   SCRCLR
         00002c20 00000000! 
     590 00002c40     09e0          MOVI    M_STEST,A0      ;SOUND TEST MESSAGE
         00002c50 00005470" 
     591 00002c70     09c1          MOVI    06080H,A1
         00002c80     6080  
     592 00002c90     5642          CLR     A2
     593 00002ca0     09c3          MOVI    ROBO_WHITE,A3
         00002cb0     0202  
     594 00002cc0     0d5f          CALLA   STRNEW1
         00002cd0 00000000! 
     595 00002cf0     09e1          MOVI    0B080H,A1       ;SCREEN ADDRESS
         00002d00 0000b080  
     596 00002d20     4d00          MOVE    A8,A0
     597 00002d30     0d5f          CALLA   STRNEW1
         00002d40 00000000! 
     598 00002d60     1100          ADDK    8,A0
     599 00002d70     8e05          MOVB    *A0,A5          ;Channel
     600 00002d80     1100          ADDK    8,A0
     601 00002d90     8e03          MOVB    *A0,A3          ;Sound #
     602 00002da0     2703          sll     32-8,a3         ;Kill sign extend
     603 00002db0     2d03          srl     32-8,a3
     604 00002dc0     1100          ADDK    8,A0
     605 00002dd0     0d5f          CALLA   SNDSND
         00002de0 00000000! 
     606 00002e00     4c08          MOVE    A0,A8
     607 00002e10     4dad          MOVE    A13,A13         ;AUTO-CYCLE?
     608 00002e20     cb08          JRNE    SNDSLP          ;NO
     609 00002e30     0d5f          CALLA   WDOGDIS
         00002e40 00000000! 
     610 00002e60     09ed          MOVI    3000000,A13
TMS340 COFF Macro Assembler Version 6.10     Tue Dec 19 01:45:20 2023
 Copyright (c) 1985-1991  Texas Instruments Incorporated 

test menus                                                           PAGE   15

         00002e70 002dc6c0  
     611 00002e90     3c2d  SNDAUTO DSJS    A13,SNDAUTO
     612 00002ea0     c005          JRUC    SNDSLP1
     613 00002eb0           SNDSLP
     614 00002eb0                   SLEEP   120
     615 00002f00           SNDSLP1 
     616 00002f00     8f05          MOVB    *A8,A5
     617 00002f10     cbcf          JRNE    SNDTLP
     618 00002f20     4dad          MOVE    A13,A13         ;AUTO CYCLE EXIT
     619 00002f30     ca03          JREQ    SNDX1
     620 00002f40                   RETP
     621                    
     622 00002f70     0960  SNDX1   RETS
     623                    
     624 00002f80           SNDMES  
     625 00002f80       54          .byte   "TUNE 1 (1)",0
     626 00002fd8       03          .byte   MUSICHAN,1
     627 00002fe8       4e          .byte   "NO WAY (E6)",0
     628 00003048       01          .byte   1,0e6H
     629 00003058       45          .byte   "EXPL1 (30)",0
     630 000030b0       04          .byte   4,030H
     631 000030c0       54          .byte   "TUNE 2 (9)",0
     632 00003118       03          .byte   MUSICHAN,9
     633 00003128       53          .byte   "SPIDER BOUNCE (83)",0
     634 000031c0       04          .byte   4,083H
     635 000031d0       4d          .byte   "MUSIC OFF (0)",0
     636 00003240       03          .byte   MUSICHAN,0
     637 00003250       00          .byte   0               ;THE END OF TABLE
     638 00003260                   .even
     639 00003260           DO_GENTEST
     640 00003260     5663          CLR     A3
     641 00003270                   SLEEPK  4                       ;LET IT GO A SEC!
     642 000032b0     0d5f          CALLA   CLR_SCRN
         000032c0 00000000! 
     643 000032e0     09e2          MOVI    M_DIGT,A2
         000032f0 000038b0' 
     644 00003310     09c3          MOVI    ROBO_GREEN,A3
         00003320     0606  
     645 00003330                   JSRP    TOP_BOX                 ;PRINT TITLE BOX.
     646                    
     647 000033a0     0d5f          CALLA   SURE_BOX                ;PUT A NICE BOX UP!
         000033b0 00000000! 
     648                            
     649 000033d0     09e0          movi    SOUNDBIT,a0
         000033e0 0000ff00  
     650 00003400     0580          move    a0,@SOUND
         00003410 01d01030  
     651                    
     652                            .if     TUNIT
     653                    
     654 00003430     190e          movk    8,a14
     655 00003440     0d8e          dsj     a14,$                   ;Slow it down a bit
         00003450     fffe  
     656                    
     657                            .else
TMS340 COFF Macro Assembler Version 6.10     Tue Dec 19 01:45:20 2023
 Copyright (c) 1985-1991  Texas Instruments Incorporated 

test menus                                                           PAGE   16

     658                    
     659                            movk    8,a14
     660                            dsj     a14,$                   ;Slow it down a bit
     661                    
     662                            movi    0ff00h,a0
     663                            move    a0,@SOUND               ;PULL ON THE SOUND INTERRUPT
     664                    
     665                            movk    8,a14
     666                            dsj     a14,$                   ;Slow it down a bit
     667                            .endif
     668                    
     669 00003460     07ee          movb    @SOUNDIRQ+B_SIRQ-7,A14  ;ARE WE CONNECTED?
         00003470 01d00000  
     670 00003490     cf1e          jrnn    SOUND_IRQ_CONNECTED     ;BR = YES SIRREE
     671                    
     672 000034a0     09e8          MOVI    SIRQ_ERR,A8
         000034b0 00003ae0' 
     673 000034d0                   JSRP    L_MESS                  ;PRINT ERROR
     674                    
     675 00003540                   JSRP    ANY_BUT                 ;AND TELL EM ANY BUTTON TO CONTINUE
     676                            
     677 000035b0     0d3f          CALLR   BLNK_SURE_BOX
         000035c0     0025  
     678                            
     679 000035d0     09e8          MOVI    SIRQ_ERR2,A8
         000035e0 00003f80' 
     680 00003600                   JSRP    L_MESS                  ;REMIND THE GUY OF THE PREVIOUS ERROR
     681 00003670     c00a          JRUC    SOUND_DONGER
     682 00003680           SOUND_IRQ_CONNECTED
     683 00003680     09e8          MOVI    SIRQ_DETECT,A8
         00003690 00003950' 
     684 000036b0                   JSRP    L_MESS                  ;NOTIFY THAT SOUND IRQ WAS CHECKED
     685 00003720           SOUND_DONGER
     686                    
     687 00003720     0d5f          calla   snd_reset               ;RESET THAT PUPPY
         00003730 00000000! 
     688                    
     689 00003750     09e8          MOVI    DAC_ERR,A8
         00003760 00004130' 
     690 00003780                   JSRP    L_MESS              ;PRINT ERROR
     691 000037f0     c080          JAUC    ANY_BUT             ;AND TELL EM ANY BUTTON TO CONTINUE
         00003800 00002ad0' 
     692                    
     693                    
     694 00003820           BLNK_SURE_BOX
     695 00003820     09e3          MOVI    [41H,29H],A3
         00003830 00410029  
     696 00003850     09e4          MOVI    [0F2H,166H]-[41H,29H],A4
         00003860 00b1013d  
     697 00003880     c080          JAUC    BLNKAREA                ;ITS BLANK!
         00003890 00000000! 
     698                    
     699                    
     700 000038b0           M_DIGT
     701 000038b0       47          .STRING "GENERAL SOUND TEST",0,0
TMS340 COFF Macro Assembler Version 6.10     Tue Dec 19 01:45:20 2023
 Copyright (c) 1985-1991  Texas Instruments Incorporated 

test menus                                                           PAGE   17

     702 00003950                   .EVEN
     703                    
     704 00003950           SIRQ_DETECT
     705 00003950                    MESS_MAC  RD7FONT,SPACING07,200,165,ROBO_GREEN,STRCNRM,0
     706 000039f0       53          .STRING "SOUND IRQ DETECT FUNCTIONAL.",0,0
     707 00003ae0                   .EVEN
     708                    
     709 00003ae0           SIRQ_ERR
     710 00003ae0                   MESS_MAC RD15FONT,SPACING07,200,95,COLOR_LF,STRCNRM,0
     711 00003b80       2a          .STRING "** WARNING! **",0,1
     712 00003c00                   .EVEN
     713 00003c00                   MESS_MAC RD7FONT,SPACING07,200,120,COLOR_YELLOW,STRCNRM,0
     714 00003ca0       55          .STRING "UNABLE TO DETECT SOUND BOARD IRQ.",0,1
     715 00003dc0                   .EVEN
     716 00003dc0                   MESS_MAC RD7FONT,SPACING07,200,135,COLOR_YELLOW,STRCNRM,0
     717 00003e60       54          .STRING "THIS MAY RESULT IN ERRANT SOUNDS.",0,0
     718 00003f80                   .EVEN
     719                    
     720 00003f80           SIRQ_ERR2
     721 00003f80                    MESS_MAC  RD7FONT,SPACING07,200,165,ROBO_RED,STRCNRM,0
     722 00004020       45          .STRING "ERROR - SOUND IRQ NOT DETECTED.",0,0
     723 00004130                   .EVEN
     724                    
     725              007d  DAC_LX  EQU     125
     726              00b1  DAC_LX2 EQU     DAC_LX+52
     727 00004130           DAC_ERR
     728 00004130                   MESS_MAC RD7FONT,SPACING07,200,80,COLOR_LF,STRCNRM,0
     729 000041d0       4c          .STRING "LISTEN FOR TONES:",0,1
     730 00004270                   .EVEN
     731 00004270                   MESS_MAC RD7FONT,SPACING07,DAC_LX,105,COLOR_YELLOW,STRLNRM,0
     732 00004310       30          .STRING "0 TONES - CHECK HARDWARE",0,1
     733 000043e0                   .EVEN
     734 000043e0                   MESS_MAC RD7FONT,SPACING07,DAC_LX,117,COLOR_YELLOW,STRLNRM,0
     735 00004480       31          .STRING "1 TONE",0,1
     736 000044c0                   .EVEN
     737 000044c0                   MESS_MAC RD7FONT,SPACING07,DAC_LX2,117,COLOR_YELLOW,STRLNRM,0
     738 00004560       2d          .STRING "- SOUND BOARD OK",0,1
     739 000045f0                   .EVEN
     740 000045f0                   MESS_MAC RD7FONT,SPACING07,DAC_LX,129,COLOR_YELLOW,STRLNRM,0
     741 00004690       32          .STRING "2 TONES - RAM ERROR U2",0,1
     742 00004750                   .EVEN
     743 00004750                    MESS_MAC  RD7FONT,SPACING07,DAC_LX,141,COLOR_YELLOW,STRLNRM,0
     744 000047f0       33          .STRING "3 TONES - ROM ERROR U3",0,0
     745 000048b0                   .EVEN
     746                    
     747 000048b0           DO_PLAYSOUNDS
     748                    
     749 000048b0     09e8          MOVI    SND_INST,A8
         000048c0 00003390" 
     750 000048e0                   JSRP    L_MESS                          ;PUT INSTRUCTION OUT.
     751                    
     752 00004950     09e4          movi    [177,200-105],a4        ;upper left
         00004960 00b1005f  
     753 00004980     09e5          movi    [238+16,200+104-1],a5   ;bottom right
         00004990 00fe012f  
TMS340 COFF Macro Assembler Version 6.10     Tue Dec 19 01:45:20 2023
 Copyright (c) 1985-1991  Texas Instruments Incorporated 

test menus                                                           PAGE   18

     754 000049b0     09c9          MOVI    COLOR_WHITE,a9
         000049c0     0202  
     755 000049d0     0d3f          CALLR   STD_BORD
         000049e0     fb61! 
     756                    
     757 000049f0     574a          CLR     A10
     758 00004a00     09c0          movi    COLOR_LF,a0
         00004a10     3e3e  
     759 00004a20     4d41          move    a10,a1
     760 00004a30     0d3f          callr   plot_sound
         00004a40     0060  
     761 00004a50     4d43          move    a10,a3
     762 00004a60     0d3f          CALLR   MAKE_SOUND
         00004a70     0076  
     763 00004a80           sxxhloop
     764 00004a80                   SLEEPK  1
     765 00004ac0     0d5f          calla   fudge_switches2
         00004ad0 00000000! 
     766 00004af0     07a0          move    @fswitches_down,a0,L
         00004b00 00000000! 
     767 00004b20     0b80          andi    START_BITS,a0
         00004b30 f9dbffff  
     768 00004b50     cb49          jrnz    sxxhexit
     769                    
     770 00004b60     07a0          move    @fswitches_down,a0,L
         00004b70 00000000! 
     771 00004b90     0b80          andi    ACTION_BITS,a0
         00004ba0 ffff8f8f  
     772 00004bc0     ca04          jrz     sxxhno_play_sound
     773 00004bd0     4d43          move    a10,a3
     774 00004be0     0d3f          CALLR   MAKE_SOUND
         00004bf0     005e  
     775 00004c00     c0e7          jruc    sxxhloop
     776 00004c10           sxxhno_play_sound
     777                    
     778 00004c10     4d42          move    a10,a2
     779 00004c20     07a0          move    @fswitches_cur,a0,L
         00004c30 00000000! 
     780 00004c50     0b80          andi    UP_BITS,a0
         00004c60 fffffefe  
     781 00004c80     ca01          jrz     sxxhno_down
     782 00004c90     1022          inc     a2
     783 00004ca0           sxxhno_down
     784 00004ca0     07a0          move    @fswitches_cur,a0,L
         00004cb0 00000000! 
     785 00004cd0     0b80          andi    DOWN_BITS,a0
         00004ce0 fffffdfd  
     786 00004d00     ca01          jrz     sxxhno_up
     787 00004d10     1422          dec     a2
     788 00004d20           sxxhno_up
     789 00004d20     484a          cmp     a2,a10
     790 00004d30     cad4          jreq    sxxhloop                ;no change
     791                    
     792 00004d40     0d5f          CALLA   QSNDRST
         00004d50 00000000! 
TMS340 COFF Macro Assembler Version 6.10     Tue Dec 19 01:45:20 2023
 Copyright (c) 1985-1991  Texas Instruments Incorporated 

test menus                                                           PAGE   19

     793 00004d70                   push    a2
     794 00004d80     09c0          movi    ROBO_BLACK,a0
         00004d90     1414  
     795 00004da0     4d41          move    a10,a1
     796 00004db0     0d3f          callr   plot_sound
         00004dc0     0028  
     797 00004dd0                   pull    a10
     798 00004de0     0b8a          andi    7,a10
         00004df0 fffffff8  
     799 00004e10                   SLEEPK  6
     800 00004e50     09c0          movi    COLOR_LF,a0
         00004e60     3e3e  
     801 00004e70     4d41          move    a10,a1
     802 00004e80     0d3f          callr   plot_sound
         00004e90     001b  
     803 00004ea0     4d43          move    a10,a3
     804 00004eb0     0d3f          CALLR   MAKE_SOUND
         00004ec0     0031  
     805                    
     806 00004ed0     09cb          movi    30,a11
         00004ee0     001e  
     807 00004ef0           sxxhwait_release
     808 00004ef0     0d5f          calla   fudge_switches2
         00004f00 00000000! 
     809 00004f20     07a0          move    @fswitches_cur,a0,L
         00004f30 00000000! 
     810 00004f50     0b80          andi    UP_BITS|DOWN_BITS,a0
         00004f60 fffffcfc  
     811 00004f80     caaf          jrz     sxxhloop
     812 00004f90                   SLEEPK  1
     813 00004fd0     3deb          dsj     a11,sxxhwait_release
     814 00004fe0     c0a9          jruc    sxxhloop
     815                    
     816 00004ff0           sxxhexit
     817 00004ff0     0d5f          CALLA   QSNDRST
         00005000 00000000! 
     818 00005020                   RETP
     819                    
     820 00005050           plot_sound
     821 00005050                   PUSH    a10
     822 00005060     24a1          sll     5,a1                    ;x 32 bits
     823 00005070     0b21          addi    sounds_tab,a1           ;base addr
         00005080 000038d0" 
     824 000050a0     8621          move    *a1,a1,L
     825 000050b0                   PUSH    a0,a1
     826 000050d0     09e8          movi    SND_SETUP,a8
         000050e0 00003830" 
     827 00005100     0d5f          calla   LM_SETUP                ;GET CONFIRMATION DATA READY.
         00005110 00000000! 
     828 00005130                   PULL    a6,a8                   ;colour,string
     829 00005150                   JSRP    LM_FINIS                ;plot strings
     830 000051c0                   PULL    a10
     831 000051d0     0960          rets
     832 000051e0           MAKE_SOUND
     833 000051e0     2483          SLL     4,A3
TMS340 COFF Macro Assembler Version 6.10     Tue Dec 19 01:45:20 2023
 Copyright (c) 1985-1991  Texas Instruments Incorporated 

test menus                                                           PAGE   20

     834 000051f0     0b23          ADDI    TEST_SOUND_TAB,A3
         00005200 00003d60" 
     835 00005220     8463          MOVE    *A3,A3,W
     836 00005230     c080          JAUC    SNDSND
         00005240 00000000! 
     837                    
     838 00005260           GO_PATTERNS
     839 00005260     09e8          MOVI    MEN_PATTERNS,A8      ;PUT UP THE MENU AND GO!
         00005270 00001b70" 
     840 00005290     c080          JAUC    GEN_MENU             ;THIS WILL RETURN TO LEVEL ABOVE US!
         000052a0 00000000! 
     841                    
     842                    
     843 000052c0                   STRUCT  0
     844 000052c0                   APTR    AUD_MESS        ;*Text
     845 000052c0                   APTR    AUD_ROUTINE     ;*Code to call or 0
     846 000052c0                   WORD    AUD_NUMBER      ;Audit number to show or 0
     847 000052c0                   WORD    AUD_COLOR       ;Color for this line
     848 000052c0                   LABEL   AUD_T_SIZE      ;Size of structure
     849                    
     850                    AMAC    .macro  mess,rout,audit,color
     851                            .long   :mess:,:rout:
     852                            .word   :audit:,:color:
     853                            .endm
     854                    
     855                    TXTLINE .macro  s
     856                            .byte   ":s:",0
     857                            .even
     858                            .endm
     859                    
     860                    
     861              0005  AUD_LM          EQU     TIT_ULX         ;SQUARE OFF AUDITS W/ HEADER.
     862              0185  AUD_RM          EQU     TIT_LRX
     863              0036  AUD_Y_STRT      EQU     54
     864              000e  AUD_DY          EQU     14
     865                    
     866              009c  CP2_Y           EQU     156             ;PART 2 OF COIN AUDIT PAGE.
     867                    
     868                    
     869 000052c0           COIN_OCTO_AUDS
     870 000052c0     0068          .word   AUD_Y_STRT+50,12+8              ;Y start, Y spacing
     871 000052e0     0023          .word   AUD_LM+30,AUD_RM-30             ;LFT/RGT margin X
     872 00005300                   AMAC    M_LCOIN2,0,AUDLCOIN,ROBO_YELLOW
     873 00005360                   AMAC    M_RCOIN2,0,AUDRCOIN,ROBO_YELLOW
     874 000053c0                   AMAC    M_CCOIN2,0,AUDCCOIN,ROBO_YELLOW
     875 00005420 00000000          .long   0
     876                    
     877                    
     878                    
     879                    
     880 00005440           COIN_AUDS
     881 00005440     0036          .word   AUD_Y_STRT,12+5                 ;Y start, Y spacing
     882 00005460     0005          .word   AUD_LM,AUD_RM                   ;LFT/RGT margin X
     883 00005480                   AMAC    M_LCOIN,0,AUDLCOIN,ROBO_YELLOW
     884 000054e0                   AMAC    M_RCOIN,0,AUDRCOIN,ROBO_YELLOW
TMS340 COFF Macro Assembler Version 6.10     Tue Dec 19 01:45:20 2023
 Copyright (c) 1985-1991  Texas Instruments Incorporated 

test menus                                                           PAGE   21

     885 00005540                   AMAC    M_CCOIN,0,AUDCCOIN,ROBO_YELLOW
     886 000055a0                   AMAC    amst_s,0,AUDBEGIN,ROBO_GREEN    ;On parachute
     887 00005600                   AMAC    M_START,STARTS,0,ROBO_GREEN
     888 00005660 00000000          .long   0
     889                    
     890 00005680           COIN1_AUDS
     891 00005680     008c          .word   AUD_Y_STRT+14*6+2,AUD_DY
     892 000056a0     0005          .word   AUD_LM,AUD_RM
     893 000056c0                   AMAC    M_PAIDC,0,AUDPAIDC,ROBO_WHITE
     894 00005720 00000000          .long   0
     895                    
     896 00005740           COIN2_AUDS
     897 00005740     00af          .word   CP2_Y+AUD_DY+5,AUD_DY           ;Y start, Y spacing
     898 00005760     0005          .word   AUD_LM,AUD_RM                   ;LFT/RGT margin X
     899 00005780                   AMAC    M_SERV,0,AUDSERV,01212H
     900 000057e0                   AMAC    M_PLAYS,DOPLAYS,0,ROBO_YELLOW
     901 00005840 00000000          .long   0
     902                    
     903 00005860           amst_s  TXTLINE "ATTRACT MODE STARTS"
     904 00005900           M_START TXTLINE "MID GAME STARTS"
     905 00005980           M_CONTO TXTLINE "CONTINUES OFFERED"
     906 00005a10           M_CONT  TXTLINE "CONTINUES TAKEN"
     907 00005a90           M_EXTRA TXTLINE "EXTRA MEN COLLECTED/EARNED"
     908 00005b70           M_P1MIN TXTLINE "HOURS OF SINGLE PLAY"
     909 00005c20           M_P2MIN TXTLINE "HOURS OF DUAL PLAY"
     910 00005cc0           M_HOURS TXTLINE "TOTAL HOURS OF PLAY"
     911 00005d60       41  M_AVGT  .byte   "AVG. ",ASCII_DQ,"PLAYER",ASCII_DQ," GAME TIME (MIN.)",0
     912 00005e60                   .even
     913                    
     914                    
     915                    
     916                    
     917                    
     918                            .asg    50,LM
     919                            .asg    400-50,RM
     920                    
     921 00005e60           GAME_AUDS
     922 00005e60     002d          .word   55-10,11,LM,RM ;Y start, Y spacing, L margin, R margin
     923                    
     924 00005ea0                   AMAC    str_totuptime,  prn_uptime,0,   ROBO_WHITE
     925 00005f00                   AMAC    str_totpltime,  prn_pltime,0,   ROBO_WHITE
     926 00005f60                   AMAC    str_totplys,    0,AUD_TOTPLYS,  ROBO_GREEN
     927 00005fc0                   AMAC    str_totstarts,  0,AUD_TOTSTARTS,ROBO_GREEN
     928 00006020                   AMAC    str_avginit,    prn_initpct,0,  ROBO_ORANGE
     929 00006080                   AMAC    str_avgfulg,    prn_fullgmpct,0,ROBO_YELLOW
     930 000060e0                   AMAC    str_tot1plyt,   prn_1plpct,0,   ROBO_CYAN
     931 00006140                   AMAC    str_tot2plyt,   prn_2plpct,0,   ROBO_CYAN
     932 000061a0                   AMAC    str_tot3plyt,   prn_3plpct,0,   ROBO_CYAN
     933 00006200                   AMAC    str_tot4plyt,   prn_4plpct,0,   ROBO_CYAN
     934 00006260                   AMAC    str_ply21st,    prn_1stqtrpct,0,ROBO_GREY
     935 000062c0                   AMAC    str_ply22nd,    prn_1sthlfpct,0,ROBO_GREY
     936 00006320                   AMAC    str_ply23rd,    prn_3rdqtrpct,0,ROBO_GREY
     937 00006380                   AMAC    str_ply2comp,   prn_comppct,0,  ROBO_GREY
     938 000063e0                   AMAC    str_2ovrtime,   prn_ovtmpct,0,  ROBO_BLUE
     939 00006440                   AMAC    str_snderr,     0,AUD_SNDERR,   ROBO_RED
TMS340 COFF Macro Assembler Version 6.10     Tue Dec 19 01:45:20 2023
 Copyright (c) 1985-1991  Texas Instruments Incorporated 

test menus                                                           PAGE   22

     940 000064a0 00000000          .long   0
     941                    
     942                    
     943 000064c0           GAME_AUDS1a
     944 000064c0     002d          .word   55-10,11,LM,RM ;Y start, Y spacing, L margin, R margin
     945                    
     946 00006500                   AMAC    str_lockups,    0,AUDLOCK,      ROBO_RED
     947 00006560                   AMAC    str_lockups2,   0,AUD_LOCKUP,   ROBO_RED
     948 000065c0                   AMAC    str_avgscr,     prn_avgscr,0,   ROBO_GREEN
     949 00006620                   AMAC    str_avgplyscr,  prn_avghumscr,0,ROBO_GREEN
     950 00006680                   AMAC    str_avgcpuscr,  prn_avgcpuscr,0,ROBO_GREEN
     951 000066e0                   AMAC    str_avgwin,     prn_avgwin,0,   ROBO_CYAN
     952 00006740                   AMAC    str_avglos,     prn_avglos,0,   ROBO_CYAN
     953 000067a0                   AMAC    str_cpuvic,     prn_cpuwins,0,  ROBO_PINK
     954 00006800                   AMAC    str_cpuwin,     0,AUD_CPUWINMARG,ROBO_ORANGE
     955 00006860                   AMAC    str_cpulos,     0,AUD_CPULOSMARG,ROBO_ORANGE
     956 000068c0                   AMAC    str_scrdiff,    prn_avgdropdif,0,ROBO_YELLOW
     957 00006920                   AMAC    str_humans,     prn_humans,0,   ROBO_GREY
     958 00006980                   AMAC    str_leftwins,   prn_leftwins,0, ROBO_GREY
     959 000069e0                   AMAC    str_numhotstrks,prn_numhot,0,   ROBO_BLUE
     960 00006a40                   AMAC    str_hotstrkpts, prn_hotpts,0,   ROBO_BLUE
     961                    
     962 00006aa0 00000000          .long   0
     963                    
     964                    
     965                    
     966 00006ac0           str_snderr      TXTLINE "SND ERR (DAV & READ BACK)"
     967                    
     968 00006b90           str_lockups     TXTLINE "DOGS"
     969 00006bc0           str_lockups2    TXTLINE "PROCESS KO"
     970 00006c20           str_totuptime   TXTLINE "TOTAL GAME UPTIME (HRS:MINS)"
     971 00006d10           str_totpltime   TXTLINE "TOTAL GAME PLAY TIME (HRS:MINS)"
     972 00006e10           str_totplys     TXTLINE "GAMES STARTED"
     973 00006e80           str_totstarts   TXTLINE "INDIVIDUAL PLAYER STARTS"
     974 00006f50           str_avginit     TXTLINE "INITIALS ENTERED"
     975 00006fe0           str_avgfulg     TXTLINE "FULL GAMES PURCHASED"
     976 00007090           str_tot1plyt    TXTLINE "1 PLAYER PLAY"
     977 00007100           str_tot2plyt    TXTLINE "2 PLAYER PLAY"
     978 00007170           str_tot3plyt    TXTLINE "3 PLAYER PLAY"
     979 000071e0           str_tot4plyt    TXTLINE "4 PLAYER PLAY"
     980 00007250           str_ply21st     TXTLINE "FINISHED 1ST QUARTER"
     981 00007300           str_ply22nd     TXTLINE "FINISHED 2ND QUARTER"
     982 000073b0           str_ply23rd     TXTLINE "FINISHED 3RD QUARTER"
     983 00007460           str_ply2comp    TXTLINE "FINISHED 4TH QUARTER"
     984 00007510           str_2ovrtime    TXTLINE "GONE TO OVERTIME"
     985 000075a0           str_avgscr      TXTLINE "AVERAGE SCORE"
     986 00007610           str_avgplyscr   TXTLINE "AVERAGE HUMAN SCORE"
     987 000076b0           str_avgcpuscr   TXTLINE "AVERAGE CPU SCORE"
     988 00007740           str_avgwin      TXTLINE "AVERAGE WINNING SCORE"
     989 000077f0           str_avglos      TXTLINE "AVERAGE LOSING SCORE"
     990 000078a0           str_cpuvic      TXTLINE "CPU VICTORIES"
     991 00007910           str_cpuwin      TXTLINE "GREATEST CPU VICTORY MARGIN"
     992 000079f0           str_cpulos      TXTLINE "GREATEST CPU LOSS MARGIN"
     993 00007ac0           str_scrdiff     TXTLINE "SCORE DIFFERENTIAL AT DROPOUT"
     994 00007bb0           str_humans      TXTLINE "HUMAN VS. HUMAN - GAMES PLAYED"
TMS340 COFF Macro Assembler Version 6.10     Tue Dec 19 01:45:20 2023
 Copyright (c) 1985-1991  Texas Instruments Incorporated 

test menus                                                           PAGE   23

     995 00007cb0           str_leftwins    TXTLINE "LSW"
     996 00007cd0           str_numhotstrks TXTLINE "TOTAL HOT STREAKS STARTED"
     997 00007da0           str_hotstrkpts  TXTLINE "AVERAGE PTS. SCORED ON HOT STREAK"
     998 00007eb0           str_pct         TXTLINE "%"
     999 00007ec0                   .even
    1000                    
    1001                            .asg    10,COL1
    1002                            .asg    COL1+200,COL2
    1003                            .asg    160,WIDTH
    1004                    
    1005                    
    1006 00007ec0           GAME_AUD2a
    1007 00007ec0     0038          .word   60-4,11,COL1,COL1+WIDTH ;Y start, Y spacing, L margin, R margin
    1008                    
    1009 00007f00                   AMAC    str_atl,0,AUD_ATL,ROBO_GREEN
    1010 00007f60                   AMAC    str_bos,0,AUD_BOS,ROBO_WHITE
    1011 00007fc0                   AMAC    str_cha,0,AUD_CHA,ROBO_BLUE
    1012 00008020                   AMAC    str_chi,0,AUD_CHI,ROBO_YELLOW
    1013 00008080                   AMAC    str_cle,0,AUD_CLE,ROBO_CYAN
    1014 000080e0                   AMAC    str_dal,0,AUD_DAL,ROBO_PURPLE
    1015 00008140                   AMAC    str_den,0,AUD_DEN,ROBO_GREEN
    1016 000081a0                   AMAC    str_det,0,AUD_DET,ROBO_WHITE
    1017 00008200                   AMAC    str_gld,0,AUD_GLD,ROBO_BLUE
    1018 00008260                   AMAC    str_hou,0,AUD_HOU,ROBO_YELLOW
    1019 000082c0                   AMAC    str_ind,0,AUD_IND,ROBO_CYAN
    1020 00008320                   AMAC    str_lac,0,AUD_LAC,ROBO_PURPLE
    1021 00008380                   AMAC    str_lal,0,AUD_LAL,ROBO_GREEN
    1022 000083e0                   AMAC    str_mi, 0,AUD_MI, ROBO_WHITE
    1023 00008440 00000000          .long   0
    1024                    
    1025 00008460           GAME_AUD2b
    1026 00008460     0038          .word   60-4,11,COL2,COL2+WIDTH ;Y start, Y spacing, L margin, R margin
    1027                    
    1028 000084a0                   AMAC    str_mil,0,AUD_MIL,ROBO_GREEN
    1029 00008500                   AMAC    str_min,0,AUD_MIN,ROBO_WHITE
    1030 00008560                   AMAC    str_nj, 0,AUD_NJ, ROBO_BLUE
    1031 000085c0                   AMAC    str_jy, 0,AUD_JY, ROBO_YELLOW
    1032 00008620                   AMAC    str_orl,0,AUD_ORL,ROBO_CYAN
    1033 00008680                   AMAC    str_phi,0,AUD_PHI,ROBO_PURPLE
    1034 000086e0                   AMAC    str_phx,0,AUD_PHX,ROBO_GREEN
    1035 00008740                   AMAC    str_por,0,AUD_POR,ROBO_WHITE
    1036 000087a0                   AMAC    str_sac,0,AUD_SAC,ROBO_BLUE
    1037 00008800                   AMAC    str_san,0,AUD_SAN,ROBO_YELLOW
    1038 00008860                   AMAC    str_sea,0,AUD_SEA,ROBO_CYAN
    1039 000088c0                   AMAC    str_uta,0,AUD_UTA,ROBO_PURPLE
    1040 00008920                   AMAC    str_was,0,AUD_WAS,ROBO_GREEN
    1041 00008980 00000000          .long   0
    1042                    
    1043                    
    1044                     .if 0
    1045                    ROBO_GREY       EQU     0101H   ;[0E0H-223,0E0H-223]
    1046                    ROBO_WHITE      EQU     0202H   ;[0E1H-223,0E1H-223]
    1047                    ROBO_RED        EQU     0303H   ;[0E2H-223,0E2H-223]
    1048                    ROBO_ORANGE     EQU     0404H   ;[0E3H-223,0E3H-223]
    1049                    ROBO_YELLOW     EQU     0505H   ;[0E4H-223,0E4H-223]
TMS340 COFF Macro Assembler Version 6.10     Tue Dec 19 01:45:20 2023
 Copyright (c) 1985-1991  Texas Instruments Incorporated 

test menus                                                           PAGE   24

    1050                    ROBO_GREEN      EQU     0606H   ;[0E5H-223,0E5H-223]
    1051                    ROBO_BLUE       EQU     0707H   ;[0E6H-223,0E6H-223]
    1052                    ROBO_LF         EQU     03E3EH 
    1053                    ROBO_CYAN       EQU     0E0EH   ;[0EDH-223,0EDH-223]
    1054                    ROBO_DECAY      EQU     03F3FH
    1055                    ROBO_RGOLD      EQU     0A0AH   ;[0E9H-223,0E9H-223]
    1056                    ROBO_LASER      EQU     03E3EH
    1057                    ROBO_LASER2     EQU     03F3FH
    1058                    ROBO_BLUWH      EQU     0C0CH   ;[0EBH-223,0EBH-223]
    1059                    ROBO_PINK       EQU     0303H   ;[0E2H-223,0E2H-223]
    1060                    ROBO_SKY        EQU     0D0DH   ;[0ECH-223,0ECH-223]  ;LAST COLOR IN ROBO IS "SKY" COLOR
    1061                    ROBO_PURPLE     EQU     ROBO_SKY     ;PURPLE FOR TEST MODE
    1062                    ROBO_BLACK      EQU     1414H   ;BLACK AS COAL
    1063                     .endif
    1064                    
    1065                    
    1066 000089a0           str_atl TXTLINE "ATLANTA"
    1067 000089e0           str_bos TXTLINE "BOSTON"
    1068 00008a20           str_cha TXTLINE "CHARLOTTE"
    1069 00008a70           str_chi TXTLINE "CHICAGO"
    1070 00008ab0           str_cle TXTLINE "CLEVELAND"
    1071 00008b00           str_dal TXTLINE "DALLAS"
    1072 00008b40           str_den TXTLINE "DENVER"
    1073 00008b80           str_det TXTLINE "DETROIT"
    1074 00008bc0           str_gld TXTLINE "GOLDEN STATE"
    1075 00008c30           str_hou TXTLINE "HOUSTON"
    1076 00008c70           str_ind TXTLINE "INDIANA"
    1077 00008cb0           str_lac TXTLINE "L.A. CLIPPERS"
    1078 00008d20           str_lal TXTLINE "L.A. LAKERS"
    1079 00008d80           str_mi  TXTLINE "MIAMI"
    1080 00008db0           str_mil TXTLINE "MILWAUKEE"
    1081 00008e00           str_min TXTLINE "MINNESOTA"
    1082 00008e50           str_nj  TXTLINE "NEW JERSEY"
    1083 00008eb0           str_jy  TXTLINE "NEW YORK"
    1084 00008f00           str_orl TXTLINE "ORLANDO"
    1085 00008f40           str_phi TXTLINE "PHILADELPHIA"
    1086 00008fb0           str_phx TXTLINE "PHOENIX"
    1087 00008ff0           str_por TXTLINE "PORTLAND"
    1088 00009040           str_sac TXTLINE "SACRAMENTO"
    1089 000090a0           str_san TXTLINE "SAN ANTONIO"
    1090 00009100           str_sea TXTLINE "SEATTLE"
    1091 00009140           str_uta TXTLINE "UTAH"
    1092 00009170           str_was TXTLINE "WASHINGTON"
    1093 000091d0                   .even
    1094                    
    1095 000091d0           prn_uptime
    1096 000091d0     09c0          movi    AUD_UPTIME,a0
         000091e0     001e  
    1097 000091f0     0d5f          calla   GET_AUD
         00009200 00000000! 
    1098                                                            ;* 5 sec incs / 60 (sec p/min) = /12
    1099 00009220     1980          movk    12,a0
    1100 00009230     5a01          divu    a0,a1                   ;mins
    1101 00009240     c000          jruc    P_TIME
         00009250     0538  
TMS340 COFF Macro Assembler Version 6.10     Tue Dec 19 01:45:20 2023
 Copyright (c) 1985-1991  Texas Instruments Incorporated 

test menus                                                           PAGE   25

    1102                    
    1103                    
    1104 00009260           prn_pltime
    1105 00009260     09c0          movi    AUD_PLTIME,a0
         00009270     001f  
    1106 00009280     0d5f          calla   GET_AUD
         00009290 00000000! 
    1107                                                            ;* 5 sec incs / 60 (sec p/min) = /12
    1108 000092b0     1980          movk    12,a0
    1109 000092c0     5a01          divu    a0,a1                   ;mins
    1110 000092d0     c000          jruc    P_TIME
         000092e0     052f  
    1111                    
    1112                    
    1113 000092f0           prn_initpct
    1114 000092f0     09c0          movi    AUD_TOTPLYS,a0
         00009300     0020  
    1115 00009310     0d5f          calla   GET_AUD
         00009320 00000000! 
    1116 00009340     4c24          move    a1,a4
    1117                    
    1118 00009350     09c0          movi    AUD_INITENTRD,a0
         00009360     0021  
    1119 00009370     0d5f          calla   GET_AUD
         00009380 00000000! 
    1120 000093a0     09c0          movi    100,a0
         000093b0     0064  
    1121 000093c0     5e01          mpyu    a0,a1
    1122 000093d0     4c22          move    a1,a2
    1123 000093e0     4c80          move    a4,a0
    1124 000093f0     0d3f          callr   ROUNDED_A0_INTO_A2      ;DIVIDES A0 INTO A2. RESULT IN A2
         00009400     047b  
    1125 00009410     4c43          move    a2,a3
    1126 00009420     c000          jruc    PERCENT_WORK
         00009430     0192  
    1127                    
    1128 00009440           prn_fullgmpct
    1129 00009440     09c0          movi    AUD_PRESTARTS,a0
         00009450     002f  
    1130 00009460     0d5f          calla   GET_AUD
         00009470 00000000! 
    1131 00009490     4c24          move    a1,a4
    1132                    
    1133 000094a0     09c0          movi    AUD_PURCHASED,a0
         000094b0     0022  
    1134 000094c0     0d5f          calla   GET_AUD
         000094d0 00000000! 
    1135 000094f0     09c0          movi    100,a0
         00009500     0064  
    1136 00009510     5e01          mpyu    a0,a1
    1137 00009520     4c22          move    a1,a2
    1138 00009530     4c80          move    a4,a0
    1139 00009540     0d3f          callr   ROUNDED_A0_INTO_A2      ;DIVIDES A0 INTO A2. RESULT IN A2
         00009550     0466  
    1140 00009560     4c43          move    a2,a3
TMS340 COFF Macro Assembler Version 6.10     Tue Dec 19 01:45:20 2023
 Copyright (c) 1985-1991  Texas Instruments Incorporated 

test menus                                                           PAGE   26

    1141 00009570     c000          jruc    PERCENT_WORK
         00009580     017d  
    1142                    
    1143 00009590           prn_1plpct
    1144 00009590     09c0          movi    AUD_PLTIME,a0
         000095a0     001f  
    1145 000095b0     0d5f          calla   GET_AUD
         000095c0 00000000! 
    1146 000095e0     4c24          move    a1,a4
    1147                    
    1148 000095f0     09c0          movi    AUD_1PLAYTIME,a0
         00009600     0023  
    1149 00009610     0d5f          calla   GET_AUD
         00009620 00000000! 
    1150 00009640     09c0          movi    100,a0
         00009650     0064  
    1151 00009660     5e01          mpyu    a0,a1
    1152 00009670     4c22          move    a1,a2
    1153 00009680     4c80          move    a4,a0
    1154 00009690     0d3f          callr   ROUNDED_A0_INTO_A2      ;DIVIDES A0 INTO A2. RESULT IN A2
         000096a0     0451  
    1155 000096b0     4c43          move    a2,a3
    1156 000096c0     c000          jruc    PERCENT_WORK
         000096d0     0168  
    1157                    
    1158 000096e0           prn_2plpct
    1159 000096e0     09c0          movi    AUD_PLTIME,a0
         000096f0     001f  
    1160 00009700     0d5f          calla   GET_AUD
         00009710 00000000! 
    1161 00009730     4c24          move    a1,a4
    1162                    
    1163 00009740     09c0          movi    AUD_2PLAYTIME,a0
         00009750     0024  
    1164 00009760     0d5f          calla   GET_AUD
         00009770 00000000! 
    1165 00009790     09c0          movi    100,a0
         000097a0     0064  
    1166 000097b0     5e01          mpyu    a0,a1
    1167 000097c0     4c22          move    a1,a2
    1168 000097d0     4c80          move    a4,a0
    1169 000097e0     0d3f          callr   ROUNDED_A0_INTO_A2      ;DIVIDES A0 INTO A2. RESULT IN A2
         000097f0     043c  
    1170 00009800     4c43          move    a2,a3
    1171 00009810     c000          jruc    PERCENT_WORK
         00009820     0153  
    1172                    
    1173                    
    1174 00009830           prn_3plpct
    1175 00009830     09c0          movi    AUD_PLTIME,a0
         00009840     001f  
    1176 00009850     0d5f          calla   GET_AUD
         00009860 00000000! 
    1177 00009880     4c24          move    a1,a4
    1178                    
TMS340 COFF Macro Assembler Version 6.10     Tue Dec 19 01:45:20 2023
 Copyright (c) 1985-1991  Texas Instruments Incorporated 

test menus                                                           PAGE   27

    1179 00009890     09c0          movi    AUD_3PLAYTIME,a0
         000098a0     0025  
    1180 000098b0     0d5f          calla   GET_AUD
         000098c0 00000000! 
    1181 000098e0     09c0          movi    100,a0
         000098f0     0064  
    1182 00009900     5e01          mpyu    a0,a1
    1183 00009910     4c22          move    a1,a2
    1184 00009920     4c80          move    a4,a0
    1185 00009930     0d3f          callr   ROUNDED_A0_INTO_A2      ;DIVIDES A0 INTO A2. RESULT IN A2
         00009940     0427  
    1186 00009950     4c43          move    a2,a3
    1187 00009960     c000          jruc    PERCENT_WORK
         00009970     013e  
    1188                    
    1189                    
    1190 00009980           prn_4plpct
    1191 00009980     09c0          movi    AUD_PLTIME,a0
         00009990     001f  
    1192 000099a0     0d5f          calla   GET_AUD
         000099b0 00000000! 
    1193 000099d0     4c24          move    a1,a4
    1194                    
    1195 000099e0     09c0          movi    AUD_4PLAYTIME,a0
         000099f0     0026  
    1196 00009a00     0d5f          calla   GET_AUD
         00009a10 00000000! 
    1197 00009a30     09c0          movi    100,a0
         00009a40     0064  
    1198 00009a50     5e01          mpyu    a0,a1
    1199 00009a60     4c22          move    a1,a2
    1200 00009a70     4c80          move    a4,a0
    1201 00009a80     0d3f          callr   ROUNDED_A0_INTO_A2      ;DIVIDES A0 INTO A2. RESULT IN A2
         00009a90     0412  
    1202 00009aa0     4c43          move    a2,a3
    1203 00009ab0     c000          jruc    PERCENT_WORK
         00009ac0     0129  
    1204                    
    1205                    
    1206 00009ad0           prn_1stqtrpct
    1207 00009ad0     09c0          movi    AUD_TOTPLYS,a0
         00009ae0     0020  
    1208 00009af0     0d5f          calla   GET_AUD
         00009b00 00000000! 
    1209 00009b20     4c24          move    a1,a4
    1210                    
    1211 00009b30     09c0          movi    AUD_1STQUARTR,a0
         00009b40     0027  
    1212 00009b50     0d5f          calla   GET_AUD
         00009b60 00000000! 
    1213 00009b80     09c0          movi    100,a0
         00009b90     0064  
    1214 00009ba0     5e01          mpyu    a0,a1
    1215 00009bb0     4c22          move    a1,a2
    1216 00009bc0     4c80          move    a4,a0
TMS340 COFF Macro Assembler Version 6.10     Tue Dec 19 01:45:20 2023
 Copyright (c) 1985-1991  Texas Instruments Incorporated 

test menus                                                           PAGE   28

    1217 00009bd0     0d3f          callr   ROUNDED_A0_INTO_A2      ;DIVIDES A0 INTO A2. RESULT IN A2
         00009be0     03fd  
    1218 00009bf0     4c43          move    a2,a3
    1219 00009c00     c000          jruc    PERCENT_WORK
         00009c10     0114  
    1220                    
    1221                    
    1222 00009c20           prn_1sthlfpct
    1223 00009c20     09c0          movi    AUD_TOTPLYS,a0
         00009c30     0020  
    1224 00009c40     0d5f          calla   GET_AUD
         00009c50 00000000! 
    1225 00009c70     4c24          move    a1,a4
    1226                    
    1227 00009c80     09c0          movi    AUD_HALFTIME,a0
         00009c90     0028  
    1228 00009ca0     0d5f          calla   GET_AUD
         00009cb0 00000000! 
    1229 00009cd0     09c0          movi    100,a0
         00009ce0     0064  
    1230 00009cf0     5e01          mpyu    a0,a1
    1231 00009d00     4c22          move    a1,a2
    1232 00009d10     4c80          move    a4,a0
    1233 00009d20     0d3f          callr   ROUNDED_A0_INTO_A2      ;DIVIDES A0 INTO A2. RESULT IN A2
         00009d30     03e8  
    1234 00009d40     4c43          move    a2,a3
    1235 00009d50     c000          jruc    PERCENT_WORK
         00009d60     00ff  
    1236                    
    1237                    
    1238 00009d70           prn_3rdqtrpct
    1239 00009d70     09c0          movi    AUD_TOTPLYS,a0
         00009d80     0020  
    1240 00009d90     0d5f          calla   GET_AUD
         00009da0 00000000! 
    1241 00009dc0     4c24          move    a1,a4
    1242                    
    1243 00009dd0     09c0          movi    AUD_3RDQUARTR,a0
         00009de0     0029  
    1244 00009df0     0d5f          calla   GET_AUD
         00009e00 00000000! 
    1245 00009e20     09c0          movi    100,a0
         00009e30     0064  
    1246 00009e40     5e01          mpyu    a0,a1
    1247 00009e50     4c22          move    a1,a2
    1248 00009e60     4c80          move    a4,a0
    1249 00009e70     0d3f          callr   ROUNDED_A0_INTO_A2      ;DIVIDES A0 INTO A2. RESULT IN A2
         00009e80     03d3  
    1250 00009e90     4c43          move    a2,a3
    1251 00009ea0     c000          jruc    PERCENT_WORK
         00009eb0     00ea  
    1252                    
    1253                    
    1254 00009ec0           prn_comppct
    1255 00009ec0     09c0          movi    AUD_TOTPLYS,a0
TMS340 COFF Macro Assembler Version 6.10     Tue Dec 19 01:45:20 2023
 Copyright (c) 1985-1991  Texas Instruments Incorporated 

test menus                                                           PAGE   29

         00009ed0     0020  
    1256 00009ee0     0d5f          calla   GET_AUD
         00009ef0 00000000! 
    1257 00009f10     4c24          move    a1,a4
    1258                    
    1259 00009f20     09c0          movi    AUD_COMPLETED,a0
         00009f30     002a  
    1260 00009f40     0d5f          calla   GET_AUD
         00009f50 00000000! 
    1261 00009f70     09c0          movi    100,a0
         00009f80     0064  
    1262 00009f90     5e01          mpyu    a0,a1
    1263 00009fa0     4c22          move    a1,a2
    1264 00009fb0     4c80          move    a4,a0
    1265 00009fc0     0d3f          callr   ROUNDED_A0_INTO_A2      ;DIVIDES A0 INTO A2. RESULT IN A2
         00009fd0     03be  
    1266 00009fe0     4c43          move    a2,a3
    1267 00009ff0     c000          jruc    PERCENT_WORK
         0000a000     00d5  
    1268                    
    1269                    
    1270 0000a010           prn_ovtmpct
    1271 0000a010     09c0          movi    AUD_TOTPLYS,a0
         0000a020     0020  
    1272 0000a030     0d5f          calla   GET_AUD
         0000a040 00000000! 
    1273 0000a060     4c24          move    a1,a4
    1274                    
    1275 0000a070     09c0          movi    AUD_OVERTIME,a0
         0000a080     002b  
    1276 0000a090     0d5f          calla   GET_AUD
         0000a0a0 00000000! 
    1277 0000a0c0     09c0          movi    100,a0
         0000a0d0     0064  
    1278 0000a0e0     5e01          mpyu    a0,a1
    1279 0000a0f0     4c22          move    a1,a2
    1280 0000a100     4c80          move    a4,a0
    1281 0000a110     0d3f          callr   ROUNDED_A0_INTO_A2      ;DIVIDES A0 INTO A2. RESULT IN A2
         0000a120     03a9  
    1282 0000a130     4c43          move    a2,a3
    1283 0000a140     c000          jruc    PERCENT_WORK
         0000a150     00c0  
    1284                    
    1285                    
    1286 0000a160           prn_avgscr
    1287 0000a160     09c0          movi    AUD_COMPLETED,a0
         0000a170     002a  
    1288 0000a180     0d5f          calla   GET_AUD
         0000a190 00000000! 
    1289 0000a1b0     4c24          move    a1,a4
    1290                    
    1291 0000a1c0     09c0          movi    AUD_WIN_SCORE,a0
         0000a1d0     0030  
    1292 0000a1e0     0d5f          calla   GET_AUD
         0000a1f0 00000000! 
TMS340 COFF Macro Assembler Version 6.10     Tue Dec 19 01:45:20 2023
 Copyright (c) 1985-1991  Texas Instruments Incorporated 

test menus                                                           PAGE   30

    1293 0000a210     2fe1          srl     1,a1                    ;/2
    1294 0000a220                   PUSH    a1
    1295 0000a230     09c0          movi    AUD_LOS_SCORE,a0
         0000a240     0031  
    1296 0000a250     0d5f          calla   GET_AUD
         0000a260 00000000! 
    1297 0000a280     2fe1          srl     1,a1                    ;/2
    1298 0000a290                   PULL    a3
    1299 0000a2a0     4023          add     a1,a3
    1300 0000a2b0     4c62          move    a3,a2
    1301 0000a2c0     4c80          move    a4,a0
    1302 0000a2d0     0d3f          callr   ROUNDED_A0_INTO_A2      ;DIVIDES A0 INTO A2. RESULT IN A2
         0000a2e0     038d  
    1303 0000a2f0     4c43          move    a2,a3
    1304 0000a300     c000          jruc    NUMBER_WORK
         0000a310     0269  
    1305                    
    1306                    
    1307 0000a320           prn_avgwin
    1308 0000a320     09c0          movi    AUD_COMPLETED,a0
         0000a330     002a  
    1309 0000a340     0d5f          calla   GET_AUD
         0000a350 00000000! 
    1310 0000a370     4c24          move    a1,a4
    1311                    
    1312 0000a380     09c0          movi    AUD_WIN_SCORE,a0
         0000a390     0030  
    1313 0000a3a0     0d5f          calla   GET_AUD
         0000a3b0 00000000! 
    1314 0000a3d0     4c22          move    a1,a2
    1315 0000a3e0     4c80          move    a4,a0
    1316 0000a3f0     0d3f          callr   ROUNDED_A0_INTO_A2      ;DIVIDES A0 INTO A2. RESULT IN A2
         0000a400     037b  
    1317 0000a410     4c43          move    a2,a3
    1318 0000a420     c000          jruc    NUMBER_WORK
         0000a430     0257  
    1319                    
    1320                    
    1321 0000a440           prn_avglos
    1322 0000a440     09c0          movi    AUD_COMPLETED,a0
         0000a450     002a  
    1323 0000a460     0d5f          calla   GET_AUD
         0000a470 00000000! 
    1324 0000a490     4c24          move    a1,a4
    1325                    
    1326 0000a4a0     09c0          movi    AUD_LOS_SCORE,a0
         0000a4b0     0031  
    1327 0000a4c0     0d5f          calla   GET_AUD
         0000a4d0 00000000! 
    1328 0000a4f0     4c22          move    a1,a2
    1329 0000a500     4c80          move    a4,a0
    1330 0000a510     0d3f          callr   ROUNDED_A0_INTO_A2      ;DIVIDES A0 INTO A2. RESULT IN A2
         0000a520     0369  
    1331 0000a530     4c43          move    a2,a3
    1332 0000a540     c000          jruc    NUMBER_WORK
TMS340 COFF Macro Assembler Version 6.10     Tue Dec 19 01:45:20 2023
 Copyright (c) 1985-1991  Texas Instruments Incorporated 

test menus                                                           PAGE   31

         0000a550     0245  
    1333                    
    1334                    
    1335 0000a560           prn_cpuwins
    1336 0000a560     09c0          movi    AUD_COMPLETED,a0
         0000a570     002a  
    1337 0000a580     0d5f          calla   GET_AUD
         0000a590 00000000! 
    1338 0000a5b0     4c24          move    a1,a4
    1339                    
    1340 0000a5c0     09c0          movi    AUD_CPUWINS,a0
         0000a5d0     0032  
    1341 0000a5e0     0d5f          calla   GET_AUD
         0000a5f0 00000000! 
    1342 0000a610     09c0          movi    100,a0
         0000a620     0064  
    1343 0000a630     5e01          mpyu    a0,a1
    1344 0000a640     4c22          move    a1,a2
    1345 0000a650     4c80          move    a4,a0
    1346 0000a660     0d3f          callr   ROUNDED_A0_INTO_A2      ;DIVIDES A0 INTO A2. RESULT IN A2
         0000a670     0354  
    1347 0000a680     4c43          move    a2,a3
    1348 0000a690     c06c          jruc    PERCENT_WORK
    1349                    
    1350                    
    1351 0000a6a0           prn_leftwins
    1352 0000a6a0     09c0          movi    AUD_HUMANVSHUMAN,a0
         0000a6b0     005e  
    1353 0000a6c0     0d5f          calla   GET_AUD
         0000a6d0 00000000! 
    1354 0000a6f0     4c24          move    a1,a4
    1355                    
    1356 0000a700     09c0          movi    AUD_WINSONLEFT,a0
         0000a710     005f  
    1357 0000a720     0d5f          calla   GET_AUD
         0000a730 00000000! 
    1358 0000a750     09c0          movi    100,a0
         0000a760     0064  
    1359 0000a770     5e01          mpyu    a0,a1
    1360 0000a780     4c22          move    a1,a2
    1361 0000a790     4c80          move    a4,a0
    1362 0000a7a0     0d3f          callr   ROUNDED_A0_INTO_A2      ;DIVIDES A0 INTO A2. RESULT IN A2
         0000a7b0     0340  
    1363 0000a7c0     4c43          move    a2,a3
    1364 0000a7d0     c058          jruc    PERCENT_WORK
    1365                    
    1366 0000a7e0           prn_humans
    1367 0000a7e0     09c0          movi    AUD_HUMANVSHUMAN,a0
         0000a7f0     005e  
    1368 0000a800     0d5f          calla   GET_AUD
         0000a810 00000000! 
    1369 0000a830     4c23          move    a1,a3
    1370 0000a840     c000          jruc    NUMBER_WORK
         0000a850     0215  
    1371                    
TMS340 COFF Macro Assembler Version 6.10     Tue Dec 19 01:45:20 2023
 Copyright (c) 1985-1991  Texas Instruments Incorporated 

test menus                                                           PAGE   32

    1372                    
    1373                    
    1374 0000a860           prn_avgcpuscr
    1375                    
    1376 0000a860     09c0          movi    AUD_CPUGAMES,a0         ;a cpu team
         0000a870     0039  
    1377 0000a880     0d5f          calla   GET_AUD
         0000a890 00000000! 
    1378 0000a8b0     4c24          move    a1,a4
    1379                    
    1380 0000a8c0     09c0          movi    AUD_CPUSCORES,a0
         0000a8d0     003a  
    1381 0000a8e0     0d5f          calla   GET_AUD
         0000a8f0 00000000! 
    1382 0000a910     4c22          move    a1,a2
    1383 0000a920     4c80          move    a4,a0
    1384 0000a930     0d3f          callr   ROUNDED_A0_INTO_A2      ;DIVIDES A0 INTO A2. RESULT IN A2
         0000a940     0327  
    1385 0000a950     4c43          move    a2,a3
    1386 0000a960     c000          jruc    NUMBER_WORK
         0000a970     0203  
    1387                    
    1388                    
    1389 0000a980           prn_avghumscr
    1390                    
    1391 0000a980     09c0          movi    AUD_HUMGAMES,a0         ;a human team
         0000a990     0057  
    1392 0000a9a0     0d5f          calla   GET_AUD
         0000a9b0 00000000! 
    1393 0000a9d0     4c24          move    a1,a4
    1394                    
    1395 0000a9e0     09c0          movi    AUD_HUMSCORES,a0
         0000a9f0     0058  
    1396 0000aa00     0d5f          calla   GET_AUD
         0000aa10 00000000! 
    1397 0000aa30     4c22          move    a1,a2
    1398 0000aa40     4c80          move    a4,a0
    1399 0000aa50     0d3f          callr   ROUNDED_A0_INTO_A2      ;DIVIDES A0 INTO A2. RESULT IN A2
         0000aa60     0315  
    1400 0000aa70     4c43          move    a2,a3
    1401 0000aa80     c000          jruc    NUMBER_WORK
         0000aa90     01f1  
    1402                    
    1403                    
    1404 0000aaa0           prn_avgdropdif
    1405                    
    1406 0000aaa0     09c0          movi    AUD_NUMDROPOUT,a0
         0000aab0     0035  
    1407 0000aac0     0d5f          calla   GET_AUD
         0000aad0 00000000! 
    1408 0000aaf0     4c24          move    a1,a4
    1409                    
    1410 0000ab00     09c0          movi    AUD_DROPDIFF,a0
         0000ab10     0038  
    1411 0000ab20     0d5f          calla   GET_AUD
TMS340 COFF Macro Assembler Version 6.10     Tue Dec 19 01:45:20 2023
 Copyright (c) 1985-1991  Texas Instruments Incorporated 

test menus                                                           PAGE   33

         0000ab30 00000000! 
    1412 0000ab50     4c22          move    a1,a2
    1413 0000ab60     4c80          move    a4,a0
    1414 0000ab70     0d3f          callr   ROUNDED_A0_INTO_A2      ;DIVIDES A0 INTO A2. RESULT IN A2
         0000ab80     0303  
    1415 0000ab90     4c43          move    a2,a3
    1416 0000aba0     c000          jruc    NUMBER_WORK
         0000abb0     01df  
    1417                    
    1418 0000abc0           prn_numhot
    1419                    
    1420 0000abc0     09c0          movi    AUD_NUMHOTSTRK,a0
         0000abd0     005a  
    1421 0000abe0     0d5f          calla   GET_AUD
         0000abf0 00000000! 
    1422 0000ac10     4c23          move    a1,a3
    1423 0000ac20     c000          jruc    NUMBER_WORK
         0000ac30     01d7  
    1424                    
    1425 0000ac40           prn_hotpts
    1426                    
    1427 0000ac40     09c0          movi    AUD_HOTSTRKPTS,a0
         0000ac50     005b  
    1428 0000ac60     0d5f          calla   GET_AUD
         0000ac70 00000000! 
    1429 0000ac90     4c24          move    a1,a4
    1430                    
    1431 0000aca0     09c0          movi    AUD_NUMHOTSTRK,a0
         0000acb0     005a  
    1432 0000acc0     0d5f          calla   GET_AUD
         0000acd0 00000000! 
    1433 0000acf0     4c20          move    a1,a0
    1434 0000ad00     4c82          move    a4,a2
    1435 0000ad10     0d3f          callr   ROUNDED_A0_INTO_A2      ;DIVIDES A0 INTO A2. RESULT IN A2
         0000ad20     02e9  
    1436 0000ad30     4c43          move    a2,a3
    1437 0000ad40     c000          jruc    NUMBER_WORK
         0000ad50     01c5  
    1438                    
    1439                    
    1440 0000ad60           PERCENT_WORK
    1441 0000ad60     09e8          MOVI    MESS_AUD_NUM,A8         ;SETUP FOR AUDIT NUMBER
         0000ad70 000000d0" 
    1442 0000ad90     0d5f          CALLA   LM_SETUP
         0000ada0 00000000! 
    1443                    
    1444 0000adc0     4c68          MOVE    A3,A8                   ;NOW WE HAVE BINARY NUMBER
    1445 0000add0     0d5f          CALLA   HEXTOASC                ;NOW WE POINT TO THE STRING.
         0000ade0 00000000! 
    1446                    
    1447 0000ae00                   PUSH    a8
    1448 0000ae10     4d07          move    a8,a7
    1449 0000ae20     09e8          movi    str_pct,a8
         0000ae30 00007eb0' 
    1450 0000ae50     0d5f          CALLA   STRCAT
TMS340 COFF Macro Assembler Version 6.10     Tue Dec 19 01:45:20 2023
 Copyright (c) 1985-1991  Texas Instruments Incorporated 

test menus                                                           PAGE   34

         0000ae60 00000000! 
    1451 0000ae80                   PULL    a8
    1452                    
    1453 0000ae90                   PUSH    a0
    1454 0000aea0     b5a0          move    *a13(AT_RX),a0
         0000aeb0     0150  
    1455 0000aec0                   PUSHP   a0
    1456 0000aed0     0b00          addi    13,a0
         0000aee0     000d  
    1457 0000aef0     b00d          move    a0,*a13(AT_RX)
         0000af00     0150  
    1458 0000af10                   PULL    a0
    1459                    
    1460 0000af20     b7a6          move    *a13(AT_PTR),a6,L       ;Get *audit
         0000af30     0100  
    1461 0000af40     b4c6          move    *a6(AUD_COLOR),a6
         0000af50     0050  
    1462                    
    1463 0000af60                   JSRP    RIGHT_FINISH
    1464                    
    1465 0000afd0                   PULLP   a0
    1466 0000afe0     b00d          move    a0,*a13(AT_RX)          ;restore right margin
         0000aff0     0150  
    1467 0000b000                   RETP
    1468                    
    1469                    
    1470 0000b030           MISC_AUD
    1471 0000b030     0032          .word   50,18,AUD_LM,AUD_RM             ;Y start, Y spacing, LMar, RMar
    1472 0000b070                   AMAC    M_SECBON,0,AUDSURV,ROBO_YELLOW  ;WARPS TAKEN
    1473 0000b0d0                   AMAC    M_HIDB,0,AUDBONE,ROBO_YELLOW    ;GAMES NOT FINISHED
    1474 0000b130                   AMAC    M_PLAYS,DOPLAYS,0,ROBO_YELLOW   ;PLAYS ON TOP
    1475 0000b190                   AMAC    M_P1MIN,DO_P1MIN,0,ROBO_YELLOW
    1476 0000b1f0                   AMAC    M_P2MIN,DO_P2MIN,0,ROBO_YELLOW
    1477 0000b250                   AMAC    M_AVGT,DO_AVGT,0,ROBO_YELLOW
    1478 0000b2b0                   AMAC    M_ELAPSE,DO_ELAPSE,0,ROBO_YELLOW
    1479 0000b310                   AMAC    adiff_s,diff_prt,0,01212H
    1480 0000b370 00000000          .LONG   0
    1481                    
    1482 0000b390           adiff_s TXTLINE "GAME DIFFICULTY LEVEL"
    1483                    
    1484                    
    1485                            .IF     0
    1486                    
    1487                    FACCHECK
    1488                            calla   dpageflip_off
    1489                    
    1490                            CALLA   CLR_SCRN
    1491                            MOVI    DIAGP,A0
    1492                            CALLA   pal_getf
    1493                    
    1494                            MOVI    AUDSTAT,A0              ;CLEAR GAME STATE AUDIT
    1495                            CLR     A1
    1496                            CALLA   STORE_AUDIT
    1497                    
    1498                            MOVI    ROM_NAME,A2
TMS340 COFF Macro Assembler Version 6.10     Tue Dec 19 01:45:20 2023
 Copyright (c) 1985-1991  Texas Instruments Incorporated 

test menus                                                           PAGE   35

    1499                            MOVI    ROBO_LF,A3
    1500                            JSRP    TOP_BOX                 ;PRINT TITLE BOX.
    1501                    
    1502                            .if     YUNIT
    1503                            move    @SWITCH+30h,a0
    1504                            btst    6,a0
    1505                            jrnz    fc40                    ;No DIP coinage?
    1506                    
    1507                            movk    1,a0                    ;Just coinage
    1508                            calla   FAC_SET
    1509                            movi    dipcoinage_mess,a8
    1510                            JSRP    L_MESS
    1511                    fc40
    1512                            .endif
    1513                    
    1514                            .if     DEBUG
    1515                            SLEEPK  1                       ;Show it DEBUG
    1516                            .else
    1517                            SLEEP   120                     ;Show it
    1518                            .endif
    1519                    
    1520                            CALLA   CMOS_VAL                ;CMOS BOGUS?
    1521                            JRZ     FACC0                   ;NO
    1522                    
    1523                            MOVI    MESS_RESET,A8           ;ERROR MESSAGE
    1524                            JSRP    L_MESS
    1525                            SLEEP   60
    1526                    
    1527                            CALLR   RES_ALL                 ;ALL TIME TABLE
    1528                            clr     a0                      ;Full
    1529                            CALLA   FAC_SET
    1530                    
    1531                            MOVI    MESS_FAC,A8
    1532                            CALLA   LM_SETUP                ;GET CONFIRMATION DATA READY.
    1533                            JSRP    LM_FINIS
    1534                            SLEEP   60
    1535                            CALLA   CMOS_VAL                ;CMOS BOGUS?
    1536                            JRZ     FACC00                  ;NO
    1537                    
    1538                            CALLA   SCRCLR
    1539                            MOVI    MESS_RESET,A8           ;ERROR MESSAGE
    1540                            JSRP    L_MESS
    1541                    FACC00
    1542                            SLEEP   240
    1543                    
    1544                    FACC0   CALLA   SCRCLR
    1545                            jauc    amode_start
    1546                    
    1547                    
    1548                    dipcoinage_mess
    1549                            MESS_MAC RD7FONT,SPACING20,200,65,ROBO_WHITE,STRCNRM,0
    1550                            .byte   "USING DIPSWITCH COINAGE",0,0
    1551                            .even
    1552                    
    1553                            .ENDIF
TMS340 COFF Macro Assembler Version 6.10     Tue Dec 19 01:45:20 2023
 Copyright (c) 1985-1991  Texas Instruments Incorporated 

test menus                                                           PAGE   36

    1554                    
    1555 0000b440           SECRET_NAME
    1556 0000b440       53          .byte   "SECRET MIDWAY MENU",0
    1557 0000b4e0                   .even
    1558                    
    1559                    
    1560                    
    1561                            .ref    show_designteam
    1562                    
    1563 0000b4e0           HID_P
    1564 0000b4e0     5600          clr     a0
    1565 0000b4f0     0580          move    a0,@octopus2
         0000b500 00000050- 
    1566                    
    1567 0000b520                   JSRP    show_designteam
    1568                    
    1569 0000b590     05a0          move    @octopus2,a0
         0000b5a0 00000050- 
    1570 0000b5c0     ca80          JAZ     DIAG_EX                 ;NOW GET OUT!
         0000b5d0 00000000! 
    1571                    
    1572 0000b5f0     0d5f          CALLA   display_init            ;MAKE SURE A13 IS OK BEFORE ANY ACTIONS!
         0000b600 00000000! 
    1573 0000b620     0d5f          CALLA   DIGSRT                  ;RE-INIT THE WORLD!
         0000b630 00000000! 
    1574                    
    1575 0000b650     09e2          MOVI    SECRET_NAME,A2
         0000b660 0000b440' 
    1576 0000b680     09c3          MOVI    ROBO_LF,A3
         0000b690     3e3e  
    1577 0000b6a0                   JSRP    TOP_BOX                 ;PRINT TITLE BOX.
    1578                    
    1579                    
    1580                    
    1581                    
    1582 0000b710     0d5f          calla   CLR_SCRN                ;Clr screen
         0000b720 00000000! 
    1583                    
    1584 0000b740     09e0          movi    COIN_OCTO_AUDS,a0
         0000b750 000052c0' 
    1585 0000b770                   JSRP    PRNT_AUD
    1586                    
    1587 0000b7e0     09c0          movi    AUD_Y_STRT,a0           ;aud Y start
         0000b7f0     0036  
    1588 0000b800     b00d          MOVE    a0,*A13(AT_Y),W         ;set Y COORDINATE
         0000b810     0120  
    1589 0000b820     09c8          MOVI    AUDLCOIN,A8             ;NOW PRINT MONEY FOR 1ST 3
         0000b830     0001  
    1590 0000b840                   JSRP    PRINT_COL2
    1591                    
    1592                    
    1593                    
    1594 0000b8b0                   JSRP    WAIT_BUT
    1595                    
    1596                    
TMS340 COFF Macro Assembler Version 6.10     Tue Dec 19 01:45:20 2023
 Copyright (c) 1985-1991  Texas Instruments Incorporated 

test menus                                                           PAGE   37

    1597 0000b920     0d5f          calla   CLR_SCRN                ;Clr screen
         0000b930 00000000! 
    1598 0000b950     09e0          movi    GAME_AUDS,A0            ;Show 1st screen
         0000b960 00005e60' 
    1599 0000b980                   JSRP    PRNT_AUD
    1600 0000b9f0                   JSRP    WAIT_BUT
    1601                    
    1602 0000ba60     0d5f          calla   CLR_SCRN                ;Clr screen
         0000ba70 00000000! 
    1603 0000ba90     09e0          movi    GAME_AUDS1a,A0          ;Show 2nd screen
         0000baa0 000064c0' 
    1604 0000bac0                   JSRP    PRNT_AUD
    1605 0000bb30                   JSRP    WAIT_BUT
    1606                    
    1607 0000bba0     0d5f          calla   CLR_SCRN                ;Clr screen
         0000bbb0 00000000! 
    1608 0000bbd0     09e0          movi    GAME_AUD2a,a0
         0000bbe0 00007ec0' 
    1609 0000bc00                   JSRP    PRNT_AUD
    1610 0000bc70     09e0          movi    GAME_AUD2b,a0
         0000bc80 00008460' 
    1611 0000bca0                   JSRP    PRNT_AUD
    1612 0000bd10                   JSRP    WAIT_BUT
    1613                    
    1614                    
    1615 0000bd80                   JSRP    show_player_records
    1616                    
    1617 0000bdf0     c080          JAUC    DIAG_EX                 ;NOW GET OUT!
         0000be00 00000000! 
    1618                    
    1619                    
    1620                    
    1621              0100  AT_PTR   EQU    PDATA                   ;LONG
    1622              0120  AT_Y     EQU    PDATA+LONG_SIZE         ;WORD
    1623              0130  AT_DY    EQU    AT_Y+WORD_SIZE          ;WORD
    1624              0140  AT_LX    EQU    AT_DY+WORD_SIZE         ;WORD LEFT MARGIN X
    1625              0150  AT_RX    EQU    AT_LX+WORD_SIZE         ;WORD RIGHT MARGIN X
    1626              0160  AT_OBJ   EQU    AT_RX+WORD_SIZE         ;LONG OBJECT POINTER FOR COLLECTION ROUT
    1627              0180  AT_MESS  EQU    AT_OBJ+LONG_SIZE        ;LONG PRINT_MONEY MESSAGE STASH
    1628                            
    1629 0000be20           PRNT_AUD
    1630 0000be20     9401          MOVE    *A0+,A1                 ;GET STARTING HEIGHT
    1631 0000be30     b02d          MOVE    A1,*A13(AT_Y)           ;STORE
         0000be40     0120  
    1632                    
    1633 0000be50     9401          MOVE    *A0+,A1                 ;GET DY TO USE
    1634 0000be60     b02d          MOVE    A1,*A13(AT_DY)          ;STASH IT AWAY
         0000be70     0130  
    1635                    
    1636 0000be80     9401          MOVE    *A0+,A1                 ;GET LEFT MARGIN
    1637 0000be90     b02d          MOVE    A1,*A13(AT_LX)          ;STORE
         0000bea0     0140  
    1638                    
    1639 0000beb0     9401          MOVE    *A0+,A1                 ;GET RIGHT MARGIN
    1640 0000bec0     b02d          MOVE    A1,*A13(AT_RX)          ;STASH IT AWAY
TMS340 COFF Macro Assembler Version 6.10     Tue Dec 19 01:45:20 2023
 Copyright (c) 1985-1991  Texas Instruments Incorporated 

test menus                                                           PAGE   38

         0000bed0     0150  
    1641                    
    1642 0000bee0     b20d          MOVE    A0,*A13(AT_PTR),L       ;SAVE POINTER INTO AREA
         0000bef0     0100  
    1643                    
    1644 0000bf00           PA1     JSRP    aud_prtone
    1645                    
    1646 0000bf70     b7a0          MOVE    *A13(AT_PTR),A0,L       ;GET POINTER
         0000bf80     0100  
    1647 0000bf90     0b00          ADDI    AUD_T_SIZE,A0
         0000bfa0     0060  
    1648 0000bfb0     b20d          MOVE    A0,*A13(AT_PTR),L       ;PUT BACK
         0000bfc0     0100  
    1649                    
    1650 0000bfd0     0d3f          CALLR   ADD_AUDIT_DY
         0000bfe0     0005  
    1651                    
    1652 0000bff0     8601          MOVE    *A0,A1,L                ;ARE WE DONE?
    1653 0000c000     cbef          JRNZ    PA1
    1654                    
    1655 0000c010                   RETP
    1656                    
    1657 0000c040           ADD_AUDIT_DY
    1658 0000c040     098f          MMTM    SP,A1,A2
         0000c050     6000  
    1659 0000c060     b5a1          MOVE    *A13(AT_Y),A1,W
         0000c070     0120  
    1660 0000c080     b5a2          MOVE    *A13(AT_DY),A2,W        ;GET DELTA Y
         0000c090     0130  
    1661 0000c0a0     4041          ADD     A2,A1                   ;MOVE THE Y DOWN
    1662 0000c0b0     b02d          MOVE    A1,*A13(AT_Y),W
         0000c0c0     0120  
    1663 0000c0d0     09af          MMFM    SP,A1,A2
         0000c0e0     0006  
    1664 0000c0f0     0960          RETS
    1665                    
    1666 0000c100           BEGIN_AUDIT
    1667 0000c100     098f          MMTM    SP,A0
         0000c110     8000  
    1668 0000c120     5600          CLR     A0
    1669 0000c130     0580          MOVE    A0,@BAD_AUD,W           ;MONITOR CORRUPTION.
         0000c140 00000000! 
    1670 0000c160     09af          MMFM    SP,A0
         0000c170     0001  
    1671 0000c180     0960          RETS
    1672                    
    1673                    
    1674 0000c190            SUBRP  aud_prtone
    1675                    
    1676 0000c190     0d3f          CALLR   BEGIN_AUDIT
         0000c1a0     fff5  
    1677 0000c1b0     b7a3          MOVE    *A13(AT_PTR),A3,L       ;GET POINTER
         0000c1c0     0100  
    1678 0000c1d0     b664          MOVE    *A3(AUD_ROUTINE),A4,L
         0000c1e0     0020  
TMS340 COFF Macro Assembler Version 6.10     Tue Dec 19 01:45:20 2023
 Copyright (c) 1985-1991  Texas Instruments Incorporated 

test menus                                                           PAGE   39

    1679 0000c1f0     ca05          jrz     apo20                   ;No code?
    1680                    
    1681 0000c200     09e7          movi    apo50,a7
         0000c210 0000c320' 
    1682 0000c230     a2ec          MOVE    A7,-*A12,L              ;PUSH RET ADDR
    1683 0000c240     0164          JUMP    A4                      ;"CALL" THE ROUTINE
    1684                    
    1685 0000c250     b460  apo20   MOVE    *A3(AUD_NUMBER),A0      ;FETCH THE AUDIT NUMBER
         0000c260     0040  
    1686 0000c270     0d5f          CALLA   GET_AUD                 ;TURN INTO AUDIT COUNT!
         0000c280 00000000! 
    1687 0000c2a0     4c23          MOVE    A1,A3                   ;PROTECT FOR A SECOND.
    1688 0000c2b0                   JSRP    NUMBER_WORK             ;GET THE NUMBER IN A3 UP THERE!
    1689                    
    1690 0000c320           apo50
    1691 0000c320     09e8          movi    MESS_AUD_LINE,a8
         0000c330 00000170" 
    1692 0000c350     0d5f          calla   LM_SETUP                ;Setup for audit printing
         0000c360 00000000! 
    1693                    
    1694 0000c380     b7a3          move    *a13(AT_PTR),a3,L       ;Get *audit
         0000c390     0100  
    1695 0000c3a0     b466          move    *a3(AUD_COLOR),a6
         0000c3b0     0050  
    1696 0000c3c0     b668          move    *a3(AUD_MESS),a8,L      ;Get *text
         0000c3d0     0000  
    1697                    
    1698 0000c3e0     0300          jruc    LEFT_FINISH
    1699                    
    1700                    
    1701                    
    1702 0000c3f0           LEFT_FINISH
    1703 0000c3f0     0d3f          CALLR   TURN_RED_IF_NEC
         0000c400     0036  
    1704 0000c410     0d3f          CALLR   SET_FOR_Y               ;SET FOR AUDIT'S Y
         0000c420     003f  
    1705 0000c430     0d3f          CALLR   SET_LEFT_X              ;SET FOR LEFT X
         0000c440     0046  
    1706 0000c450                   JSRP    LM_FINIS                ;AND TYPE UP THE MESSAGE!
    1707 0000c4c0                   RETP
    1708                    
    1709 0000c4f0           RIGHT_FINISH
    1710 0000c4f0     0d3f          CALLR   TURN_RED_IF_NEC         ;CHANGE COLOR IF CORRUPTED.
         0000c500     0026  
    1711 0000c510     0d3f          CALLR   SET_FOR_Y               ;SET FOR AUDIT'S Y
         0000c520     002f  
    1712 0000c530     0d3f          CALLR   SET_RIGHT_X
         0000c540     003e  
    1713 0000c550                   JSRP    LM_FINIS                ;FINISH THE JOB!
    1714                    
    1715 0000c5c0     05a0          MOVE    @BAD_AUD,A0,W          ;IS IT CORRUPTED?
         0000c5d0 00000000! 
    1716 0000c5f0     ca14          JRZ     RFX                    ;NOPE....RETURN
    1717                    
    1718 0000c600     09e8          MOVI    MESS_ERROR,A8
TMS340 COFF Macro Assembler Version 6.10     Tue Dec 19 01:45:20 2023
 Copyright (c) 1985-1991  Texas Instruments Incorporated 

test menus                                                           PAGE   40

         0000c610 00000000" 
    1719 0000c630     0d5f          CALLA   LM_SETUP               ;SETUP "ERROR"
         0000c640 00000000! 
    1720                    
    1721 0000c660     0d3f          CALLR   SET_FOR_Y              ;SET FOR AUDIT'S Y
         0000c670     001a  
    1722 0000c680     0b29          ADDI    40000H,A9              ;PUSH 4 Y UNITS TO CENTER
         0000c690 00040000  
    1723 0000c6b0     0d3f          CALLR   SET_RIGHT_X
         0000c6c0     0026  
    1724 0000c6d0                   JSRP    LM_FINIS               ;FINISH THE JOB!
    1725                    
    1726 0000c740           RFX     RETP
    1727                    
    1728 0000c770           TURN_RED_IF_NEC
    1729 0000c770     098f          MMTM    SP,A3
         0000c780     1000  
    1730 0000c790     05a3          MOVE    @BAD_AUD,A3     ;CHANGE TO RED?
         0000c7a0 00000000! 
    1731 0000c7c0     ca02          JRZ     DAA_1           ;NOPE...ITS OK!
    1732 0000c7d0     09c6          MOVI    ROBO_RED,A6    ;CHANGE COLOR TO RED
         0000c7e0     0303  
    1733 0000c7f0     09af  DAA_1   MMFM    SP,A3
         0000c800     0008  
    1734 0000c810     0960          RETS
    1735                                            
    1736 0000c820           SET_FOR_Y
    1737 0000c820     098f          MMTM    SP,A3
         0000c830     1000  
    1738 0000c840     b5a3          MOVE    *A13(AT_Y),A3,W   ;GET Y COORDINATE
         0000c850     0120  
    1739 0000c860     2603          SLL     16,A3             ;PUT IT IN POSITION
    1740 0000c870     ee69          MOVY    A3,A9             ;PUT IT IN PLACE
    1741 0000c880     09af          MMFM    SP,A3
         0000c890     0008  
    1742 0000c8a0     0960          RETS
    1743                    
    1744 0000c8b0           SET_LEFT_X
    1745 0000c8b0     098f          MMTM    SP,A3
         0000c8c0     1000  
    1746 0000c8d0     b5a3          MOVE    *A13(AT_LX),A3,W
         0000c8e0     0140  
    1747 0000c8f0     ec69          MOVX    A3,A9             ;PUT THE X IN PLACE
    1748 0000c900     09af          MMFM    SP,A3
         0000c910     0008  
    1749 0000c920     0960          RETS
    1750                    
    1751 0000c930           SET_RIGHT_X
    1752 0000c930     098f          MMTM    SP,A3
         0000c940     1000  
    1753 0000c950     b5a3          MOVE    *A13(AT_RX),A3,W
         0000c960     0150  
    1754 0000c970     ec69          MOVX    A3,A9             ;PUT THE X IN PLACE
    1755 0000c980     09af          MMFM    SP,A3
         0000c990     0008  
TMS340 COFF Macro Assembler Version 6.10     Tue Dec 19 01:45:20 2023
 Copyright (c) 1985-1991  Texas Instruments Incorporated 

test menus                                                           PAGE   41

    1756 0000c9a0     0960          RETS
    1757                    
    1758                    
    1759 0000c9b0           NUMBER_WORK
    1760 0000c9b0     09e8          MOVI    MESS_AUD_NUM,A8         ;SETUP FOR AUDIT NUMBER
         0000c9c0 000000d0" 
    1761 0000c9e0     0d5f          CALLA   LM_SETUP
         0000c9f0 00000000! 
    1762                    
    1763 0000ca10     4c68          MOVE    A3,A8                   ;NOW WE HAVE BINARY NUMBER
    1764 0000ca20     0d5f          CALLA   HEXTOASC                ;NOW WE POINT TO THE STRING.
         0000ca30 00000000! 
    1765 0000ca50     b7a6          move    *a13(AT_PTR),a6,L       ;Get *audit
         0000ca60     0100  
    1766 0000ca70     b4c6          move    *a6(AUD_COLOR),a6
         0000ca80     0050  
    1767 0000ca90     c0a5          jruc    RIGHT_FINISH
    1768                    
    1769 0000caa0           GET_STARTS
    1770 0000caa0     098f          MMTM    SP,A0,A1
         0000cab0     c000  
    1771 0000cac0     19c0          MOVK    AUD1STRT,A0
    1772 0000cad0     0d5f          CALLA   GET_AUD
         0000cae0 00000000! 
    1773 0000cb00     4c22          MOVE    A1,A2
    1774                    
    1775 0000cb10     19e0          MOVK    AUD2STRT,A0
    1776 0000cb20     0d5f          CALLA   GET_AUD
         0000cb30 00000000! 
    1777 0000cb50     4022          ADD     A1,A2
    1778 0000cb60     09af          MMFM    SP,A0,A1
         0000cb70     0003  
    1779 0000cb80     0960          RETS
    1780                    
    1781 0000cb90           GET_CONTS
    1782 0000cb90     098f          MMTM    SP,A0,A1
         0000cba0     c000  
    1783 0000cbb0     1a00          MOVK    AUD1CONT,A0
    1784 0000cbc0     0d5f          CALLA   GET_AUD
         0000cbd0 00000000! 
    1785 0000cbf0     4c22          MOVE    A1,A2
    1786                    
    1787 0000cc00     1a20          MOVK    AUD2CONT,A0
    1788 0000cc10     0d5f          CALLA   GET_AUD
         0000cc20 00000000! 
    1789 0000cc40     4022          ADD     A1,A2
    1790 0000cc50     09af          MMFM    SP,A0,A1
         0000cc60     0003  
    1791 0000cc70     0960          RETS
    1792                    
    1793                    
    1794                    
    1795 0000cc80           GET_PLAYS
    1796 0000cc80                   PUSH    a0
    1797 0000cc90     1aa0          movk    AUDBEGIN,a0
TMS340 COFF Macro Assembler Version 6.10     Tue Dec 19 01:45:20 2023
 Copyright (c) 1985-1991  Texas Instruments Incorporated 

test menus                                                           PAGE   42

    1798 0000cca0     0d5f          calla   GET_AUD
         0000ccb0 00000000! 
    1799 0000ccd0     4c20          move    a1,a0
    1800 0000cce0     0d3f          callr   GET_STARTS      ;Actually middle starts
         0000ccf0     ffda  
    1801 0000cd00     4040          add     a2,a0
    1802 0000cd10     0d3f          callr   GET_CONTS
         0000cd20     ffe6  
    1803 0000cd30     4002          add     a0,a2
    1804 0000cd40                   PULL    a0
    1805 0000cd50     0960          rets
    1806                    
    1807 0000cd60           PRINT_COL
    1808 0000cd60     09e9          MOVI    T_MONEY,A9           ;THIS ENTRYPOINT IS FOR COLLECTION MESSAGE
         0000cd70 00000af0" 
    1809                            
    1810 0000cd90           PRINT_MONEY
    1811 0000cd90     b32d          MOVE    A9,*A13(AT_MESS),L   ;HOLD MESSAGE FOR WHEN WE NEED IT!
         0000cda0     0180  
    1812 0000cdb0     09c0          MOVI    ADJCDIV,A0           ;IF DIVISOR IS ZERO..THEN ITS OFF!
         0000cdc0     0009  
    1813 0000cdd0     0d5f          CALLA   GET_ADJ
         0000cde0 00000000! 
    1814 0000ce00     ca5e          JRZ     NO_MONEY             ;THAT'S ALL FOLKS!
    1815                    
    1816 0000ce10     0d3f          CALLR   BEGIN_AUDIT          ;KEEP TRACK OF SANITY OF CALC.
         0000ce20     ff2d  
    1817 0000ce30     0d3f          CALLR   STR_OBJ              ;GET AN OBJECT FOR STRINGING
         0000ce40     00c5  
    1818 0000ce50     c859          JRC     NO_MONEY             ;COULDN'T GET AN OBJECT!
    1819                    
    1820 0000ce60     0d3f          CALLR   SUM_COINS            ;ADD UP THE COIN PARTS IN A2
         0000ce70     00f9  
    1821                    
    1822 0000ce80     0d3f          CALLR   SIXP                 ;HAVE THE 6 BEEN TAMPERED
         0000ce90     0116  
    1823 0000cea0     ca07          JRZ     NO_PREFIX
    1824 0000ceb0     0d3f          CALLR   GET_CSPT             ;A6 POINTS AT CSECECT DATA.
         0000cec0     f313  
    1825 0000ced0     b6c8          MOVE    *A6(CS_LMES),A8,L    ;LEFT STRING FOR MONEY TOTAL
         0000cee0     00f0  
    1826 0000cef0     0d5f          CALLA   STRCAT               ;SHOVE THE STRING IN!
         0000cf00 00000000! 
    1827                    
    1828 0000cf20           NO_PREFIX
    1829 0000cf20     1820          MOVK    1,A0                 ;DIVIDE COINS BY 1 IF ITS BEEN TAMPERED WITH
    1830 0000cf30     0d3f          CALLR   SIXP
         0000cf40     010b  
    1831 0000cf50     ca05          JRZ     DIV_BY_1             ;TAMPERED WITH...DIVIDE BY 1 FOR "COINS"
    1832                    
    1833 0000cf60     09c0          MOVI    ADJCDIV,A0           ;GET THE COIN PARTS PLEASE
         0000cf70     0009  
    1834 0000cf80     0d5f          CALLA   GET_ADJ
         0000cf90 00000000! 
    1835 0000cfb0           DIV_BY_1
TMS340 COFF Macro Assembler Version 6.10     Tue Dec 19 01:45:20 2023
 Copyright (c) 1985-1991  Texas Instruments Incorporated 

test menus                                                           PAGE   43

    1836 0000cfb0     4c43          MOVE    A2,A3                ;SETUP <A2><A3> AS DIVIDEND
    1837 0000cfc0     5642          CLR     A2
    1838 0000cfd0     5a02          DIVU    A0,A2                ;DIVIDE UNITS/DIVISOR
    1839                    
    1840 0000cfe0     4c48          MOVE    A2,A8                ;WE NEED TO PUT QUOTIENT IN STRING
    1841 0000cff0     0d5f          CALLA   HEXTOASC             ;THIS FORMS STRING FOR QUOTIENT
         0000d000 00000000! 
    1842                    
    1843 0000d020     0d5f          CALLA   STRCAT               ;ADD QUOTIENT TO PRINTOUT
         0000d030 00000000! 
    1844                    
    1845 0000d050     0b40          CMPI    1,A0                 ;IS DIVISOR ONE??????
         0000d060     fffe  
    1846 0000d070     ca0e          JRZ     NOFRAC               ;YEP.......NO DECIMAL!
    1847 0000d080     09e8          MOVI    ME_DECIMAL,A8        ;ADD DECIMAL POINT
         0000d090 0000dc00" 
    1848 0000d0b0     0d5f          CALLA   STRCAT               ;ITS THERE!
         0000d0c0 00000000! 
    1849 0000d0e0     09c2          MOVI    100,A2
         0000d0f0     0064  
    1850 0000d100     5e43          MPYU    A2,A3                ;REMAINDER TIMES 100
    1851 0000d110     4c62          MOVE    A3,A2                ;DIVIDEND IN A2
    1852                    
    1853 0000d120     0d3f          CALLR   ROUNDED_A0_INTO_A2
         0000d130     00a8  
    1854 0000d140     0d3f          CALLR   A2_100TH             ;CAT THE 100THS IN A2 TO THE A7 STRING.
         0000d150     00b6  
    1855                    
    1856 0000d160           NOFRAC
    1857 0000d160     09e8          MOVI    COINS_TRAIL,A8           ;ASSUME IT WILL BE "COINS"
         0000d170 0000de80" 
    1858 0000d190     0d3f          CALLR   SIXP                 ;TAMPERED?
         0000d1a0     00e5  
    1859 0000d1b0     ca02          JRZ     COIN_SUF             ;YEP....USE " COINS"
    1860 0000d1c0     b6c8          MOVE    *A6(CS_RMES),A8,L    ;FINISH IT OFF WITH RIGHT STRING
         0000d1d0     0110  
    1861                    
    1862 0000d1e0           COIN_SUF
    1863 0000d1e0     0d5f          CALLA   STRCAT               ;SHOVE THE STRING IN!
         0000d1f0 00000000! 
    1864 0000d210     09e8          MOVI    M_MONEY,A8                ;MESSAGE FOR THIS LINE PASSED IN A9
         0000d220 00000a50" 
    1865 0000d240     0d5f          CALLA   LM_SETUP
         0000d250 00000000! 
    1866                    
    1867 0000d270     07a8          MOVE    @TMPOBJ,A8,L         ;POINTER TO MONEY STRING
         0000d280 00000030- 
    1868 0000d2a0                   JSRP    RIGHT_FINISH            ;PUT ON RIGHT MARGIN
    1869                    
    1870 0000d310     0d3f          CALLR   STR_FREE
         0000d320     0155  
    1871                    
    1872 0000d330     b7a8          MOVE    *A13(AT_MESS),A8,L      ;SETUP PASSED MESSAGE
         0000d340     0180  
    1873 0000d350     0d5f          CALLA   LM_SETUP
TMS340 COFF Macro Assembler Version 6.10     Tue Dec 19 01:45:20 2023
 Copyright (c) 1985-1991  Texas Instruments Incorporated 

test menus                                                           PAGE   44

         0000d360 00000000! 
    1874 0000d380                   JSRP    LEFT_FINISH             ;PUT UP PASSED MESSAGE.
    1875 0000d3f0           NO_MONEY
    1876 0000d3f0                   RETP
    1877                    
    1878                    
    1879 0000d420           PRINT_COL2
    1880 0000d420     09e9          MOVI    T_MONEY2,A9          ;THIS ENTRYPOINT IS FOR COLLECTION MESSAGE
         0000d430 00000c20" 
    1881                            
    1882 0000d450     b32d          MOVE    A9,*A13(AT_MESS),L   ;HOLD MESSAGE FOR WHEN WE NEED IT!
         0000d460     0180  
    1883 0000d470     09c0          MOVI    ADJCDIV,A0           ;IF DIVISOR IS ZERO..THEN ITS OFF!
         0000d480     0009  
    1884 0000d490     0d5f          CALLA   GET_ADJ
         0000d4a0 00000000! 
    1885 0000d4c0     ca5a          JRZ     NO_MONEY2            ;THAT'S ALL FOLKS!
    1886                    
    1887 0000d4d0     0d3f          CALLR   BEGIN_AUDIT          ;KEEP TRACK OF SANITY OF CALC.
         0000d4e0     fec1  
    1888 0000d4f0     0d3f          CALLR   STR_OBJ              ;GET AN OBJECT FOR STRINGING
         0000d500     0059  
    1889 0000d510     c855          JRC     NO_MONEY2            ;COULDN'T GET AN OBJECT!
    1890                    
    1891 0000d520     0d3f          CALLR   SUM_COINS            ;ADD UP THE COIN PARTS IN A2
         0000d530     008d  
    1892                    
    1893 0000d540     09e8          movi    M_VERINF,a8
         0000d550 00000d10" 
    1894 0000d570     0d5f          CALLA   STRCAT               ;SHOVE THE STRING IN!
         0000d580 00000000! 
    1895                    
    1896 0000d5a0           NO_PREFIX2
    1897 0000d5a0     1820          MOVK    1,A0                 ;DIVIDE COINS BY 1 IF ITS BEEN TAMPERED WITH
    1898 0000d5b0     0d3f          CALLR   SIXP
         0000d5c0     00a3  
    1899 0000d5d0     ca05          JRZ     DIV_BY_12            ;TAMPERED WITH...DIVIDE BY 1 FOR "COINS"
    1900                    
    1901 0000d5e0     09c0          MOVI    ADJCDIV,A0           ;GET THE COIN PARTS PLEASE
         0000d5f0     0009  
    1902 0000d600     0d5f          CALLA   GET_ADJ
         0000d610 00000000! 
    1903 0000d630           DIV_BY_12
    1904 0000d630     4c43          MOVE    A2,A3                ;SETUP <A2><A3> AS DIVIDEND
    1905 0000d640     5642          CLR     A2
    1906 0000d650     5a02          DIVU    A0,A2                ;DIVIDE UNITS/DIVISOR
    1907                    
    1908 0000d660     4c48          MOVE    A2,A8                ;WE NEED TO PUT QUOTIENT IN STRING
    1909 0000d670     0d5f          CALLA   HEXTOASC             ;THIS FORMS STRING FOR QUOTIENT
         0000d680 00000000! 
    1910                    
    1911 0000d6a0     0d5f          CALLA   STRCAT               ;ADD QUOTIENT TO PRINTOUT
         0000d6b0 00000000! 
    1912                    
    1913 0000d6d0     0b40          CMPI    1,A0                 ;IS DIVISOR ONE??????
TMS340 COFF Macro Assembler Version 6.10     Tue Dec 19 01:45:20 2023
 Copyright (c) 1985-1991  Texas Instruments Incorporated 

test menus                                                           PAGE   45

         0000d6e0     fffe  
    1914 0000d6f0     ca0e          JRZ     NOFRAC2              ;YEP.......NO DECIMAL!
    1915 0000d700     09e8          MOVI    ME_DASH,A8           ;ADD DASH
         0000d710 0000dbf0" 
    1916 0000d730     0d5f          CALLA   STRCAT               ;ITS THERE!
         0000d740 00000000! 
    1917 0000d760     09c2          MOVI    100,A2
         0000d770     0064  
    1918 0000d780     5e43          MPYU    A2,A3                ;REMAINDER TIMES 100
    1919 0000d790     4c62          MOVE    A3,A2                ;DIVIDEND IN A2
    1920                    
    1921 0000d7a0     0d3f          CALLR   ROUNDED_A0_INTO_A2
         0000d7b0     0040  
    1922 0000d7c0     0d3f          CALLR   A2_100TH             ;CAT THE 100THS IN A2 TO THE A7 STRING.
         0000d7d0     004e  
    1923                    
    1924 0000d7e0           NOFRAC2
    1925 0000d7e0     09e8          MOVI    COINS_TRAIL,A8           ;ASSUME IT WILL BE "COINS"
         0000d7f0 0000de80" 
    1926 0000d810     0d3f          CALLR   SIXP                 ;TAMPERED?
         0000d820     007d  
    1927 0000d830     ca02          JRZ     COIN_SUF2            ;YEP....USE " COINS"
    1928 0000d840     b6c8          MOVE    *A6(CS_RMES),A8,L    ;FINISH IT OFF WITH RIGHT STRING
         0000d850     0110  
    1929                    
    1930 0000d860           COIN_SUF2
    1931 0000d860     0d5f          CALLA   STRCAT               ;SHOVE THE STRING IN!
         0000d870 00000000! 
    1932 0000d890     09e8          MOVI    M_MONEY,A8                ;MESSAGE FOR THIS LINE PASSED IN A9
         0000d8a0 00000a50" 
    1933 0000d8c0     0d5f          CALLA   LM_SETUP
         0000d8d0 00000000! 
    1934                    
    1935 0000d8f0     07a8          MOVE    @TMPOBJ,A8,L         ;POINTER TO MONEY STRING
         0000d900 00000030- 
    1936 0000d920                   JSRP    RIGHT_FINISH            ;PUT ON RIGHT MARGIN
    1937                    
    1938 0000d990     0d3f          CALLR   STR_FREE
         0000d9a0     00ed  
    1939                    
    1940 0000d9b0     b7a8          MOVE    *A13(AT_MESS),A8,L      ;SETUP PASSED MESSAGE
         0000d9c0     0180  
    1941 0000d9d0     0d5f          CALLA   LM_SETUP
         0000d9e0 00000000! 
    1942 0000da00                   JSRP    LEFT_FINISH             ;PUT UP PASSED MESSAGE.
    1943 0000da70           NO_MONEY2
    1944 0000da70                   RETP
    1945                    
    1946 0000daa0           STR_OBJ
    1947 0000daa0                   PUSH    a0,a1,a14
    1948 0000dac0     0d5f          CALLA   GETOBJ               ;USE AN OBJECT BLOCK FOR STRING MANIPULATION
         0000dad0 00000000! 
    1949 0000daf0     cb02          JRNZ    STR_O1
    1950 0000db00     0de0          SETC    
    1951 0000db10     c007          JRUC    STR_OFAIL
TMS340 COFF Macro Assembler Version 6.10     Tue Dec 19 01:45:20 2023
 Copyright (c) 1985-1991  Texas Instruments Incorporated 

test menus                                                           PAGE   46

    1952                    
    1953 0000db20           STR_O1
    1954 0000db20     0780          MOVE    A0,@TMPOBJ,L         ;SAVE TO FREE LATER
         0000db30 00000030- 
    1955 0000db50     4c07          MOVE    A0,A7                ;THIS IS WHERE IT BELONGS.
    1956 0000db60     5600          CLR     A0
    1957 0000db70     8c07          MOVB    A0,*A7               ;MAKE STRING NULL
    1958 0000db80     0320          CLRC                         ;RETURN SUCCESS
    1959 0000db90           STR_OFAIL
    1960 0000db90                   PULL    a0,a1,a14
    1961 0000dbb0     0960          RETS
    1962                    
    1963 0000dbc0           ROUNDED_A0_INTO_A2
    1964 0000dbc0     098f          MMTM    SP,A3
         0000dbd0     1000  
    1965 0000dbe0     4c00          MOVE    A0,A0                ;DIVIDE BY ZERO?
    1966 0000dbf0     cb02          JRNZ    NDZ
    1967 0000dc00     4c02          MOVE    A0,A2                ;RETURN ZERO
    1968 0000dc10     c007          JRUC    NOROUND
    1969 0000dc20           NDZ
    1970 0000dc20     4c43          MOVE    A2,A3
    1971 0000dc30     5642          CLR     A2                   ;<A2> <A3> AS DIVIDEND
    1972 0000dc40     5a02          DIVU    A0,A2                ;DIVIDE AND A2 = PENNIES....A3 = REMAINDER
    1973 0000dc50     2423          SLL     1,A3                 ;SHIFT REMAINDER
    1974 0000dc60     4803          CMP     A0,A3                ;COMPARE TO DIVISOR
    1975 0000dc70     c801          JRLO    NOROUND              ;TOO LOW TO ROUND UP
    1976 0000dc80     1022          INC     A2                   ;A2 HAS CORRECT PENNIES
    1977 0000dc90           NOROUND
    1978 0000dc90     09af          MMFM    SP,A3
         0000dca0     0008  
    1979 0000dcb0     0960          RETS
    1980                    
    1981 0000dcc0           A2_100TH
    1982 0000dcc0     098f          MMTM    SP,A8
         0000dcd0     0080  
    1983 0000dce0     0b42          CMPI    9,A2                 ;9 OR LESS REQUIES LEAD ZERO.
         0000dcf0     fff6  
    1984 0000dd00     c306          JRHI    NOLEAD
    1985                    
    1986 0000dd10     09e8          MOVI    ME_ZERO,A8           ;THROW IN THE LEAD ZERO
         0000dd20 0000dbe0" 
    1987 0000dd40     0d5f          CALLA   STRCAT               ;THIS DOES IT!
         0000dd50 00000000! 
    1988                    
    1989 0000dd70           NOLEAD
    1990 0000dd70     4c48          MOVE    A2,A8
    1991 0000dd80     0d5f          CALLA   HEXTOASC             ;MAKE STRING
         0000dd90 00000000! 
    1992 0000ddb0     0d5f          CALLA   STRCAT               ;PUT IT IN!
         0000ddc0 00000000! 
    1993 0000dde0     09af          MMFM    SP,A8
         0000ddf0     0100  
    1994 0000de00     0960          RETS
    1995                    
    1996 0000de10           SUM_COINS
TMS340 COFF Macro Assembler Version 6.10     Tue Dec 19 01:45:20 2023
 Copyright (c) 1985-1991  Texas Instruments Incorporated 

test menus                                                           PAGE   47

    1997 0000de10     098f          MMTM    SP,A0,A1,A3,A6,A4
         0000de20     da00  
    1998                    
    1999 0000de30     4d00          MOVE    A8,A0                     ;POINT AT AUDIT NUMBER
    2000 0000de40     5642          CLR     A2                        ;SUM = ZERO
    2001                    
    2002 0000de50     0d3f          CALLR   GET_CSPT                  ;A6 POINTS AT CSELECT TABLE
         0000de60     f219  
    2003 0000de70     0b06          ADDI    CS_LVAL,A6                ;POINT AT 1ST MULTIPLIER
         0000de80     00b0  
    2004                    
    2005 0000de90     09c4          MOVI    CHUTES,A4                 ;NOW...ITERATE OVER THE CHUTES
         0000dea0     0004  
    2006                    
    2007 0000deb0           NEXT_CHUTE
    2008 0000deb0     94c3          MOVE    *A6+,A3,W                 ;GET MULTPLIER FOR THIS CHUTE
    2009 0000dec0     0d3f          CALLR   FIX_A3                    ;REPLACE A3 WITH 1 (MULTIPLIER) IF
         0000ded0     000d  
    2010                                                              ;ITS SOME CUSTOM MODE.
    2011 0000dee0     0d3f          CALLR   ADD_AUD_A0_TIMES_A3_TO_A2
         0000def0     0005  
    2012 0000df00     1020          INC     A0                        ;NEXT AUDIT
    2013 0000df10     3ce4          DSJS    A4,NEXT_CHUTE
    2014                    
    2015 0000df20     09af          MMFM    SP,A0,A1,A3,A6,A4
         0000df30     005b  
    2016 0000df40     0960          RETS
    2017                    
    2018 0000df50           ADD_AUD_A0_TIMES_A3_TO_A2
    2019 0000df50     0d5f          CALLA   GET_AUD                   ;FETCH THE AUDIT
         0000df60 00000000! 
    2020 0000df80     5e23          MPYU    A1,A3                     ;TIME THE FACTOR
    2021 0000df90     4062          ADD     A3,A2
    2022 0000dfa0     0960          RETS
    2023                    
    2024 0000dfb0           FIX_A3
    2025 0000dfb0     0d3f          CALLR   SIXP                 ;HAS IT BEEN TAMPERED WITH?
         0000dfc0     0003  
    2026 0000dfd0     cb01          JRNZ    FIX_A3X              ;NOPE...LEAVE A3
    2027                    
    2028 0000dfe0     1823          MOVK    1,A3
    2029 0000dff0           FIX_A3X
    2030 0000dff0     0960          RETS
    2031                    
    2032 0000e000           SIXP
    2033 0000e000     098f          MMTM    SP,A0
         0000e010     8000  
    2034 0000e020     09c0          MOVI    ADJ1ST6,A0
         0000e030     0015  
    2035 0000e040     0d5f          CALLA   GET_ADJ         ;HAS IT BEEN TAMPERED WITH?
         0000e050 00000000! 
    2036 0000e070     09af          MMFM    SP,A0
         0000e080     0001  
    2037 0000e090     0960          RETS
    2038                    
TMS340 COFF Macro Assembler Version 6.10     Tue Dec 19 01:45:20 2023
 Copyright (c) 1985-1991  Texas Instruments Incorporated 

test menus                                                           PAGE   48

    2039 0000e0a0           STARTS
    2040 0000e0a0     0d3f          CALLR   GET_STARTS
         0000e0b0     fe9e  
    2041 0000e0c0     4c43          MOVE    A2,A3           ;GET IN PRINTOUT REG.
    2042 0000e0d0     c000          jruc    NUMBER_WORK     ;AND PRINT IT
         0000e0e0     fe8c  
    2043                    
    2044 0000e0f0           CONTINS
    2045 0000e0f0     0d3f          CALLR   GET_CONTS
         0000e100     fea8  
    2046 0000e110     4c43          MOVE    A2,A3           ;GET IN PRINTOUT REG.
    2047 0000e120     c000          jruc    NUMBER_WORK     ;AND PRINT IT
         0000e130     fe87  
    2048                    
    2049 0000e140           DOPLAYS
    2050 0000e140     0d3f          CALLR   GET_PLAYS
         0000e150     feb2  
    2051 0000e160     4c43          MOVE    A2,A3           ;PUT IN PLACE
    2052 0000e170     c000          jruc    NUMBER_WORK
         0000e180     fe82  
    2053                    
    2054 0000e190           DOHSLEFT
    2055 0000e190     09c0          MOVI    ADJHSRES,A0
         0000e1a0     000e  
    2056 0000e1b0     0d5f          CALLA   GET_ADJ         ;IS IF OFF?
         0000e1c0 00000000! 
    2057 0000e1e0     ca06          JRZ     DOHSOFF         ;YEP...PRINT IT
    2058                    
    2059 0000e1f0     0d5f          CALLA   GET_HSC         ;GET THE COUNTER VALUE
         0000e200 00000000! 
    2060 0000e220     4c03          MOVE    A0,A3
    2061 0000e230     c000          jruc    NUMBER_WORK     ;AND SHOW IT!
         0000e240     fe76  
    2062                    
    2063 0000e250           DOHSOFF
    2064 0000e250     09e8          MOVI    MESS_AUD_NUM,A8
         0000e260 000000d0" 
    2065 0000e280     0d5f          CALLA   LM_SETUP        ;SETUP FOR AUDIT PRINTING.
         0000e290 00000000! 
    2066                    
    2067 0000e2b0     09e8          MOVI    M_HSOFF,A8      ;THIS EFFECTIVELY ERASES LINE!
         0000e2c0 00000970" 
    2068 0000e2e0     c080          JAUC    RIGHT_FINISH
         0000e2f0 0000c4f0' 
    2069                    
    2070 0000e310           DO_P1MIN
    2071 0000e310     09c0          MOVI    AUD1TIME,A0
         0000e320     0012  
    2072 0000e330           P1MJ
    2073 0000e330     0d5f          CALLA   GET_AUD         ;TURN INTO NUMBER
         0000e340 00000000! 
    2074 0000e360     4c24          MOVE    A1,A4           ;MOVE NUMBER TO "HOUR" COMPUTATION REGGIE
    2075 0000e370     c005          JRUC    DH11            ;AND DO LIKE THE HOURS!
    2076                    
    2077                    
TMS340 COFF Macro Assembler Version 6.10     Tue Dec 19 01:45:20 2023
 Copyright (c) 1985-1991  Texas Instruments Incorporated 

test menus                                                           PAGE   49

    2078 0000e380           DO_P2MIN
    2079 0000e380     09c0          MOVI    AUD2TIME,A0
         0000e390     0013  
    2080 0000e3a0     c0f8          JRUC    P1MJ
    2081                    
    2082 0000e3b0           DO_HOURS
    2083 0000e3b0     0d3f          CALLR   TOT_TIME        ;READ OUT THE TOTAL TIME.
         0000e3c0     0053  
    2084 0000e3d0     4c85  DH11    MOVE    A4,A5           ;A5 HAS RUNNING PLAY TIME
    2085 0000e3e0     5684          CLR     A4              ;<A4><A5> READY FOR DIVISION
    2086 0000e3f0     1980          MOVK    12,A0
    2087 0000e400     5a04          DIVU    A0,A4           ;A4 HAS MINUTES
    2088 0000e410     0b45          CMPI    6,A5            ;ROUND PROPERLY
         0000e420     fff9  
    2089 0000e430     c801          JRLO    DH1             ;NOT ENOUGH
    2090 0000e440     1024          INC     A4
    2091 0000e450           DH1
    2092 0000e450     4c81          MOVE    A4,A1           ;NOW THIS DIVIDED BY 60 IS WHAT WE NEED
    2093 0000e460     c017          jruc    P_TIME          ;DO IT!
    2094                    
    2095 0000e470           DO_AVGT
    2096 0000e470     0d3f          CALLR   TOT_TIME        ;A3 HAS WEIGHTED TIME
         0000e480     0047  
    2097                    
    2098 0000e490     0d3f  DOAVC   CALLR   GET_PLAYS       ;GET TOTAL PLAYS IN A2
         0000e4a0     fe7d  
    2099 0000e4b0     4c40          MOVE    A2,A0           ;STASH IN A0.
    2100 0000e4c0     18a1          MOVK    5,A1            ;TURN INTO SECONDS
    2101 0000e4d0     5e23          MPYU    A1,A3           ;A3 HAS SECONDS OF INTEREST
    2102 0000e4e0     4c62          MOVE    A3,A2
    2103 0000e4f0     0d3f          CALLR   ROUNDED_A0_INTO_A2   ;DIVIDE A2 BY PLAYS (AND ROUND)
         0000e500     ff6b  
    2104 0000e510     4c41          MOVE    A2,A1           ;NOW GET IN PLACE FOR P_TIME
    2105 0000e520     c00b          jruc    P_TIME          ;DO IT!
    2106                    
    2107 0000e530           DO_ELAPSE
    2108 0000e530     0d3f          CALLR   TOT_TIME
         0000e540     003b  
    2109 0000e550     4c83          MOVE    A4,A3           ;USE ELAPSED TIME
    2110 0000e560     c0f2          JRUC    DOAVC           ;AND THE REST IS IDENTICAL.
    2111                    
    2112                    
    2113 0000e570           keyavg_prt
    2114                    
    2115                    
    2116 0000e570           diff_prt
    2117 0000e570     19a0          movk    ADJDIFF,a0
    2118 0000e580     0d5f          calla   GET_ADJ
         0000e590 00000000! 
    2119 0000e5b0     4c03          move    a0,a3
    2120 0000e5c0     c000          jruc    NUMBER_WORK     ;Print it
         0000e5d0     fe3d  
    2121                    
    2122                    
    2123 0000e5e0           P_TIME
TMS340 COFF Macro Assembler Version 6.10     Tue Dec 19 01:45:20 2023
 Copyright (c) 1985-1991  Texas Instruments Incorporated 

test menus                                                           PAGE   50

    2124 0000e5e0     0d3f          CALLR   STR_OBJ         ;USE AN OBJECT BLOCK FOR STRING MANIPULATION
         0000e5f0     ff4a  
    2125 0000e600     c824          JRC     NO_OBJS         ;NO OBJECTS....PRINT NOTHING
    2126                    
    2127 0000e610     5600          CLR     A0              ;DIVIDEND IN <A0><A1>
    2128 0000e620     09c2          MOVI    60,A2
         0000e630     003c  
    2129 0000e640     5a40          DIVU    A2,A0           ;A0 = "MINUTES"....A1 = "SECONDS
    2130                    
    2131 0000e650     0d5f          CALLA   CAT_A0          ;ADD A0 STRING TO A7 BUILD
         0000e660 00000000! 
    2132 0000e680     09e8          MOVI    ME_COLON,A8
         0000e690 0000dc10" 
    2133 0000e6b0     0d5f          CALLA   STRCAT          ;PUT THE COLON IN.
         0000e6c0 00000000! 
    2134                    
    2135 0000e6e0     4c22          MOVE    A1,A2           ;GET "SECONDS" IN A2
    2136 0000e6f0     0d3f          CALLR   A2_100TH        ;AND GET THE 100THS IN.
         0000e700     ff5b  
    2137                    
    2138 0000e710     09e8          MOVI    MESS_AUD_NUM,A8 ;SETUP FOR AUDIT NUMBER
         0000e720 000000d0" 
    2139 0000e740     0d5f          CALLA   LM_SETUP
         0000e750 00000000! 
    2140 0000e770     b7a6          move    *a13(AT_PTR),a6,L       ;Get *audit
         0000e780     0100  
    2141 0000e790     b4c6          move    *a6(AUD_COLOR),a6
         0000e7a0     0050  
    2142                    
    2143 0000e7b0     4ce8          MOVE    A7,A8           ;PUT STRING CORRECT REGGIE
    2144 0000e7c0                   JSRP    RIGHT_FINISH    ;PRINT THE LINE
    2145                    
    2146 0000e830     0d3f          CALLR   STR_FREE        ;FREE UP THE OBJECT!
         0000e840     0003  
    2147                    
    2148 0000e850           NO_OBJS
    2149 0000e850                   RETP                    ;NOW RETURN TO CALLER
    2150                    
    2151 0000e880           STR_FREE
    2152 0000e880     07a0          MOVE    @TMPOBJ,A0,L    ;GET OBJECT BACK
         0000e890 00000030- 
    2153 0000e8b0     cb01          JRNZ    FREE_IT_NOW
    2154                    
    2155                            .IF     DEBUG
    2156                            JRUC    $
    2157                            .ENDIF
    2158 0000e8c0     0960          RETS                    ;NO OBJECT...RETURN!
    2159                    
    2160 0000e8d0           FREE_IT_NOW
    2161 0000e8d0     c080          jauc    FREEOBJ         ;AND LET IT GO.
         0000e8e0 00000000! 
    2162                            
    2163 0000e900           TOT_TIME
    2164 0000e900     098f          MMTM    SP,A0,A1
         0000e910     c000  
TMS340 COFF Macro Assembler Version 6.10     Tue Dec 19 01:45:20 2023
 Copyright (c) 1985-1991  Texas Instruments Incorporated 

test menus                                                           PAGE   51

    2165 0000e920     09c0          MOVI    AUD1TIME,A0
         0000e930     0012  
    2166 0000e940     0d5f          CALLA   GET_AUD
         0000e950 00000000! 
    2167 0000e970     4c23          MOVE    A1,A3
    2168 0000e980     4c24          MOVE    A1,A4
    2169 0000e990     09c0          MOVI    AUD2TIME,A0
         0000e9a0     0013  
    2170 0000e9b0     0d5f          CALLA   GET_AUD
         0000e9c0 00000000! 
    2171 0000e9e0     4024          ADD     A1,A4                ;A4 HAS SIMPLE SUM NOW
    2172 0000e9f0     2421          SLL     1,A1                 ;DOUBLE THE PLAYER 2 TIME
    2173 0000ea00     4023          ADD     A1,A3
    2174 0000ea10     09af          MMFM    SP,A0,A1
         0000ea20     0003  
    2175 0000ea30     0960          RETS
    2176                    
    2177                    
    2178                    
    2179 00000000                   .DATA
    2180                    
    2181                    
    2182                    
    2183                    
    2184 00000000           MESS_ERROR
    2185 00000000                   MESS_MAC RD7FONT,SPACING07,0,0,ROBO_RED,STRLNRM,0
    2186 000000a0                   TXTLINE "  ERROR"
    2187                    
    2188 000000d0           MESS_AUD_NUM
    2189 000000d0                   MESS_MAC RD7FONT,SPACING20,367,227,ROBO_YELLOW,STRRNRM,0
    2190                    
    2191 00000170           MESS_AUD_LINE
    2192 00000170                   MESS_MAC RD7FONT,SPACING20,23,227,ROBO_YELLOW,STRLNRM,0
    2193                    
    2194                    
    2195 00000210           MES_AUD TXTLINE "GAME AUDITS"
    2196                    
    2197 00000270           MES_BOOK
    2198 00000270                   TXTLINE "COIN BOOKKEEPING"
    2199                    
    2200 00000300           M_LCOIN TXTLINE "LEFT SLOT COINS"
    2201 00000380           M_CCOIN TXTLINE "CENTER SLOT (3) COINS"
    2202 00000430           M_RCOIN TXTLINE "RIGHT SLOT COINS"
    2203                    
    2204 000004c0           M_LCOIN2 TXTLINE "JAMS FROM THE LEFT"
    2205 00000560           M_CCOIN2 TXTLINE "JAMS FROM THE CENTER"
    2206 00000610           M_RCOIN2 TXTLINE "JAMS FROM THE RIGHT"
    2207                    
    2208 000006b0           M_XCOIN TXTLINE "EXTRA SLOT (4) COINS"
    2209                    
    2210 00000760           M_PAIDC TXTLINE "PAID CREDITS"
    2211                    
    2212 000007d0           M_SERV  TXTLINE "SERVICE CREDITS"
    2213                    
    2214                    
TMS340 COFF Macro Assembler Version 6.10     Tue Dec 19 01:45:20 2023
 Copyright (c) 1985-1991  Texas Instruments Incorporated 

test menus                                                           PAGE   52

    2215 00000850           M_PLAYS TXTLINE "TOTAL PLAYS"
    2216                    
    2217 000008b0           M_HSLEFT
    2218 000008b0                   TXTLINE "PLAYS UNTIL H.S. RESET"
    2219                    
    2220 00000970           M_HSOFF TXTLINE "OFF"
    2221                    
    2222 00000990                   .even
    2223 00000990           M_ELAPSE
    2224 00000990                   TXTLINE "AVG. ELAPSED TIME/PLAY"
    2225                    
    2226 00000a50           M_MONEY MESS_MAC  RD15FONT,SPACING20,367,227,ROBO_WHITE,STRRNRM,0
    2227                    
    2228 00000af0           T_MONEY MESS_MAC  RD15FONT,SPACING20,23,227,ROBO_WHITE,STRLNRM,0
    2229 00000b90                   TXTLINE "TOTAL COLLECTION"
    2230                    
    2231 00000c20           T_MONEY2 MESS_MAC  RD15FONT,SPACING20,23,227,ROBO_WHITE,STRLNRM,0
    2232 00000cc0                   TXTLINE "JAM INFO"
    2233                    
    2234 00000d10           M_VERINF
    2235 00000d10                   TXTLINE "031-0"
    2236                    
    2237 00000d40           M_LOCKUP
    2238 00000d40                   TXTLINE "LOCKUPS"
    2239 00000d80           M_HIDB  TXTLINE "GAMES NOT FINISHED"
    2240                    
    2241 00000e20           M_SECBON
    2242 00000e20                   TXTLINE "WARPS"
    2243                    
    2244                    
    2245 00000e50           MEN_MAIN
    2246 00000e50 00000000!          .LONG   RD7FONT        ;FONT   
    2247 00000e70 00000000!          .LONG   STRCNRM        ;CENTER PLEASE
    2248 00000e90 00007390"          .LONG   MESSMAIN       ;TITLE
    2249 00000eb0     0202           .WORD   ROBO_WHITE     ;COLOR OF TITLE
    2250 00000ec0     0066           .WORD   MENU_X         ;UL X
    2251 00000ed0     0057           .WORD   MENU_Y-3       ;UL Y
    2252 00000ee0     0017           .WORD   MENU_DY        ;VERTICAL SPACING
    2253 00000ef0     0202           .WORD   ROBO_WHITE     ;COLOR WHEN NOT SELECTED
    2254 00000f00     0010           .WORD   16             ;HEIGHT OF SELECTION BAR
    2255 00000f10     fffc           .WORD   -4             ;DISTANCE OF BAR FROM TOP OF TEXT (NEGATIVE)
    2256 00000f20     0006           .WORD   BAR_DX         ;EXTRA X ON EACH SIDE.
    2257 00000f30     00b7           .WORD   BAR_WID        ;WIDTH OF BAR!
    2258 00000f40     3d3d           .WORD   ROBO_DECAY     ;TEXT COLOR OF SELECTED ITEM
    2259 00000f50 00004360"          .LONG   MESS_DIAG,GO_DIAG,DIAG_HELP
    2260 00000fb0 000043f0"          .LONG   MESS_COIN_AUD,GO_BOOK,COIN_HELP
    2261 00001010 00004480"          .LONG   MESS_GAME_AUD,GO_AUD,AUDIT_HELP
    2262 00001070 000044e0"          .LONG   MESS_GAME_ADJ,GO_ADJ,ADJUST_HELP
    2263 000010d0 00004560"          .LONG   MESS_UTIL,GO_UTIL,UTIL_HELP
    2264 00001130 000045b0"          .LONG   MESS_EXIT,0,EXIT_HELP  ;SPECIAL CASE!
    2265 00001190 00000000           .LONG   0              ;END
    2266                    
    2267                    
    2268              00ce  UM_WID   EQU     206
    2269              0072  UM_X     EQU     TIT_ULX+GAP+MB_XWID+(UM_WID/2)+C_KLUDGE
TMS340 COFF Macro Assembler Version 6.10     Tue Dec 19 01:45:20 2023
 Copyright (c) 1985-1991  Texas Instruments Incorporated 

test menus                                                           PAGE   53

    2270                    
    2271 000011b0           MEN_UTIL
    2272 000011b0 00000000!         .LONG   RD7FONT         ;FONT
    2273 000011d0 00000000!         .LONG   STRCNRM         ;CENTER PLEASE
    2274 000011f0 00007420"         .LONG   MESSUTIL        ;TITLE
    2275 00001210     0202          .WORD   COLOR_WHITE     ;COLOR OF TITLE
    2276 00001220     0072          .WORD   UM_X            ;UL X
    2277 00001230     0057          .WORD   MENU_Y-3        ;UL Y
    2278 00001240     0012          .WORD   18              ;VERTICAL SPACING
    2279 00001250     0202          .WORD   COLOR_WHITE     ;COLOR WHEN NOT SELECTED
    2280 00001260     0010          .WORD   16              ;HEIGHT OF SELECTION BAR
    2281 00001270     fffc          .WORD   -4              ;DISTANCE OF BAR FROM TOP OF TEXT (NEG)
    2282 00001280     0006          .WORD   BAR_DX          ;EXTRA X ON EACH SIDE.
    2283 00001290     00ce          .WORD   UM_WID          ;WIDTH OF BAR!
    2284 000012a0     3d3d          .WORD   COLOR_DECAY     ;TEXT COLOR OF SELECTED ITEM
    2285 000012b0 000049f0"         .LONG   MESS_CLCRED,DO_CLCRED,CLCRED_HELP
    2286 00001310 00004ae0"         .LONG   MESS_CLCOIN,DO_CLCOIN,CLCOIN_HELP
    2287 00001370 00004b80"         .LONG   MESS_CLAUD,DO_CLAUD,CLAUD_HELP
    2288 000013d0 00004d60"         .LONG   MESS_HSRES,DO_HSRES,HSRES_HELP
    2289 00001430 00004c10"         .LONG   MESS_CLPLRECS,DO_CLPLRECS,CLPLRECS_HELP
    2290 00001490 00004ef0"         .LONG   MESS_DEF_ADJ,DO_DEF_ADJ,DEF_ADJ_HELP
    2291 000014f0 00005020"         .LONG   MESS_FACSET,DO_FACSET,FACSET_HELP
    2292 00001550 000050d0"         .LONG   opmsg_s,opmsg_main,OPMSG_HELP
    2293 000015b0 000042c0"         .LONG   MESS_MM,0,BLNK_HELP     ;RETURN TO MAIN MENU
    2294 00001610 00000000          .LONG   0                       ;END
    2295                    
    2296                    
    2297 00001630           MEN_DIAG
    2298 00001630 00000000!         .LONG   RD7FONT         ;FONT
    2299 00001650 00000000!         .LONG   STRCNRM         ;CENTER PLEASE
    2300 00001670 00004360"         .LONG   MESSDIAG        ;TITLE
    2301 00001690     0303          .WORD   COLOR_RED       ;COLOR OF TITLE
    2302 000016a0     00c8          .WORD   200             ;UL X
    2303 000016b0     0057          .WORD   MENU_Y-3        ;UL Y
    2304 000016c0     0014          .WORD   20              ;VERTICAL SPACING
    2305 000016d0     0303          .WORD   COLOR_RED       ;COLOR WHEN NOT SELECTED
    2306 000016e0     0010          .WORD   16              ;HEIGHT OF SELECTION BAR
    2307 000016f0     fffc          .WORD   -4              ;DISTANCE OF BAR FROM TOP OF TEXT (NEGATIVE)
    2308 00001700     0006          .WORD   BAR_DX          ;EXTRA X ON EACH SIDE.
    2309 00001710     00c3          .WORD   195             ;WIDTH OF BAR!  (A LITTLE FATTER)
    2310 00001720     3d3d          .WORD   COLOR_DECAY     ;TEXT COLOR OF SELECTED ITEM
    2311 00001730 00005310"         .LONG   MESS_SWTEST,GO_SWTEST,BLNK_HELP
    2312 00001790 00005370"         .LONG   diptst_mess,dipsw_test,BLNK_HELP
    2313              0003  ROM_LEV EQU     3               ;TEST NUMBER FOLLOWING ROM TEST
    2314 000017f0 000053f0"         .LONG   MESS_CPUTEST,GO_CPUTEST,BLNK_HELP
    2315              0004  RTR_LEV EQU     4               ;TEST NUMBER FOLLOWING CPU TEST (FOR RETURN)
    2316 00001850 00005470"         .LONG   M_STEST,GO_STEST,BLNK_HELP
    2317 000018b0 00005500"         .LONG   MESS_PATTERNS,GO_PATTERNS,BLNK_HELP
    2318 00001910 00004e60"         .LONG   MESS_BURN,DO_BURN,BLNK_HELP
    2319 00001970 000042c0"         .LONG   MESS_MM,0,BLNK_HELP     ;RETURN TO MAIN MENU
    2320 000019d0 00000000          .LONG   0
    2321                    
    2322              00fa  STM_WID EQU       250
    2323                    
    2324                    
TMS340 COFF Macro Assembler Version 6.10     Tue Dec 19 01:45:20 2023
 Copyright (c) 1985-1991  Texas Instruments Incorporated 

test menus                                                           PAGE   54

    2325                    
    2326 000019f0           ANY_MENU
    2327 000019f0 00000000!         .LONG   RD7FONT         ;FONT
    2328 00001a10 00000000!         .LONG   STRCNRM         ;CENTER PLEASE
    2329 00001a30 00000000          .LONG   0               ;TITLE
    2330 00001a50     0000          .WORD   0               ;COLOR OF TITLE
    2331 00001a60     00c8          .WORD   200             ;UL X
    2332 00001a70     00c8          .WORD   200             ;UL Y
    2333 00001a80     0017          .WORD   MENU_DY         ;VERTICAL SPACING
    2334 00001a90     0707          .WORD   COLOR_BLUE      ;COLOR WHEN NOT SELECTED
    2335 00001aa0     001a          .WORD   BAR_HITE        ;HEIGHT OF SELECTION BAR
    2336 00001ab0     fff7          .WORD   -9              ;DISTANCE OF BAR FROM TOP OF TEXT (NEGATIVE)
    2337 00001ac0     0006          .WORD   BAR_DX          ;EXTRA X ON EACH SIDE.
    2338 00001ad0     00ea          .WORD   234             ;WIDTH OF BAR!
    2339 00001ae0     3d3d          .WORD   COLOR_DECAY     ;TEXT COLOR OF SELECTED ITEM
    2340 00001af0 00004200"         .LONG   MESS_ANY,0,NO_HELP
    2341 00001b50 00000000          .LONG   0
    2342                    
    2343                    
    2344 00001b70           MEN_PATTERNS
    2345 00001b70 00000000!         .LONG   RD7FONT         ;FONT
    2346 00001b90 00000000!         .LONG   STRCNRM         ;CENTER PLEASE
    2347 00001bb0 00005500"         .LONG   MESSPAT         ;TITLE
    2348 00001bd0     0303          .WORD   COLOR_RED       ;COLOR OF TITLE
    2349 00001be0     00c8          .WORD   200             ;UL X       (CENTER IT!)
    2350 00001bf0     0057          .WORD   MENU_Y-3        ;UL Y
    2351 00001c00     0017          .WORD   23              ;VERTICAL SPACING
    2352 00001c10     0505          .WORD   COLOR_YELLOW    ;COLOR WHEN NOT SELECTED
    2353 00001c20     0010          .WORD   16              ;HEIGHT OF SELECTION BAR
    2354 00001c30     fffc          .WORD   -4              ;DISTANCE OF BAR FROM TOP OF TEXT (NEGATIVE)
    2355 00001c40     0006          .WORD   BAR_DX          ;EXTRA X ON EACH SIDE.
    2356 00001c50     00ea          .WORD   234             ;WIDTH OF BAR!
    2357 00001c60     3d3d          .WORD   COLOR_DECAY     ;TEXT COLOR OF SELECTED ITEM
    2358 00001c70 00005590"         .LONG   MESS_RED,GO_RED,BLNK_HELP
    2359 00001cd0 000055f0"         .LONG   MESS_GREEN,GO_GREEN,BLNK_HELP
    2360 00001d30 00005660"         .LONG   MESS_BLUE,GO_BLUE,BLNK_HELP
    2361 00001d90 000056c0"         .LONG   MESS_BARS,GO_BARS,BLNK_HELP
    2362 00001df0 00005720"         .LONG   MESS_CROSS,GO_CROSS,BLNK_HELP
    2363 00001e50 000057c0"         .LONG   MESS_DIAGM,0,BLNK_HELP
    2364 00001eb0 000042c0"         .LONG   MESS_MM,FORCE_MAIN,NO_HELP      ;RETURN TO MAIN MENU
    2365 00001f10 00000000          .LONG   0
    2366                    
    2367                    
    2368 00001f30           MEN_DETAIL
    2369 00001f30 00000000!         .LONG   RD7FONT ;FONT
    2370 00001f50 00000000!         .LONG   STRCNRM ;CENTER PLEASE
    2371 00001f70 00005500"         .LONG   MESSPAT ;TITLE
    2372 00001f90     0505          .WORD   COLOR_YELLOW    ;COLOR OF TITLE
    2373 00001fa0     00c8          .WORD   200             ;UL X       (CENTER IT!)
    2374 00001fb0     00e0          .WORD   224             ;UL Y
    2375 00001fc0     000c          .WORD   12              ;VERTICAL SPACING
    2376 00001fd0     0707          .WORD   COLOR_BLUE      ;COLOR WHEN NOT SELECTED
    2377 00001fe0     000a          .WORD   10              ;HEIGHT OF SELECTION BAR
    2378 00001ff0     ffff          .WORD   -1              ;DISTANCE OF BAR FROM TOP OF TEXT (NEGATIVE)
    2379 00002000     0006          .WORD   BAR_DX  ;EXTRA X ON EACH SIDE.
TMS340 COFF Macro Assembler Version 6.10     Tue Dec 19 01:45:20 2023
 Copyright (c) 1985-1991  Texas Instruments Incorporated 

test menus                                                           PAGE   55

    2380 00002010     009d          .WORD   157             ;WIDTH OF BAR!
    2381 00002020     3d3d          .WORD   COLOR_DECAY     ;TEXT COLOR OF SELECTED ITEM
    2382 00002030 00004ae0"         .LONG   MESS_CLCOIN,0,NO_HELP           ;Clr coins
    2383 00002090 000042c0"         .LONG   MESS_MM,FORCE_MAIN,NO_HELP      ;RETURN TO MAIN MENU
    2384 000020f0 00000000          .LONG   0
    2385                    
    2386                    
    2387 00002110 00000000! MEN_YN  .LONG    RD7FONT        ;FONT
    2388 00002130 00000000!         .LONG    STRCNRM        ;CENTER PLEASE
    2389 00002150 00004360"         .LONG    MESSDIAG       ;TITLE
    2390 00002170     0303          .WORD    COLOR_RED      ;COLOR OF TITLE
    2391 00002180     00c8          .WORD    200            ;UL X
    2392 00002190     00a6          .WORD    166            ;UL Y
    2393 000021a0     0013          .WORD    19             ;VERTICAL SPACING
    2394 000021b0     0505          .WORD    COLOR_YELLOW   ;COLOR WHEN NOT SELECTED
    2395 000021c0     0010          .WORD    16             ;HEIGHT OF SELECTION BAR
    2396 000021d0     fffc          .WORD    -4             ;DISTANCE OF BAR FROM TOP OF TEXT (NEGATIVE)
    2397 000021e0     0006          .WORD    BAR_DX         ;EXTRA X ON EACH SIDE.
    2398 000021f0     004e          .WORD    78             ;WIDTH OF BAR!  (A LITTLE FATTER)
    2399 00002200     3d3d          .WORD    COLOR_DECAY    ;TEXT COLOR OF SELECTED ITEM
    2400 00002210 00004098"         .LONG    MESS_YES,0,NO_HELP
    2401 00002270 000040c0"         .LONG    MESS_NO,0,NO_HELP
    2402 000022d0 00000000          .LONG    0
    2403                    
    2404                    
    2405 000022f0 00000000! MEN_AP1 .LONG    RD7FONT        ;FONT
    2406 00002310 00000000!         .LONG    STRCNRM        ;CENTER PLEASE
    2407 00002330 00005500"         .LONG    MESSPAT        ;TITLE
    2408 00002350     0505          .WORD    ROBO_YELLOW    ;COLOR OF TITLE
    2409 00002360     00c8          .WORD    200            ;UL X       (CENTER IT!)
    2410 00002370     00e2          .WORD    226            ;UL Y
    2411 00002380     000c          .WORD    12             ;VERTICAL SPACING
    2412 00002390     0707          .WORD    COLOR_BLUE     ;COLOR WHEN NOT SELECTED
    2413 000023a0     000a          .WORD    10             ;HEIGHT OF SELECTION BAR
    2414 000023b0     ffff          .WORD    -1             ;DISTANCE OF BAR FROM TOP OF TEXT (NEGATIVE)
    2415 000023c0     0006          .WORD    BAR_DX         ;EXTRA X ON EACH SIDE.
    2416 000023d0     009d          .WORD    157            ;WIDTH OF BAR!
    2417 000023e0     3d3d          .WORD    ROBO_DECAY     ;TEXT COLOR OF SELECTED ITEM
    2418 000023f0 000040e0"         .LONG    MESS_TOPAGE2,0,NO_HELP         ;DETAILED SECTION
    2419 00002450 000042c0"         .LONG    MESS_MM,FORCE_MAIN,NO_HELP;RETURN TO MAIN MENU
    2420 000024b0 00000000          .LONG    0
    2421                    
    2422                    
    2423                    
    2424 000024d0 00000000! MEN_AP2 .LONG    RD7FONT        ;FONT
    2425 000024f0 00000000!         .LONG    STRCNRM        ;CENTER PLEASE
    2426 00002510 00005500"         .LONG    MESSPAT        ;TITLE
    2427 00002530     0505          .WORD    ROBO_YELLOW    ;COLOR OF TITLE
    2428 00002540     00c8          .WORD    200            ;UL X       (CENTER IT!)
    2429 00002550     00e2          .WORD    226            ;UL Y
    2430 00002560     000c          .WORD    12             ;VERTICAL SPACING
    2431 00002570     0707          .WORD    COLOR_BLUE     ;COLOR WHEN NOT SELECTED
    2432 00002580     000a          .WORD    10             ;HEIGHT OF SELECTION BAR
    2433 00002590     ffff          .WORD    -1             ;DISTANCE OF BAR FROM TOP OF TEXT (NEGATIVE)
    2434 000025a0     0006          .WORD    BAR_DX         ;EXTRA X ON EACH SIDE.
TMS340 COFF Macro Assembler Version 6.10     Tue Dec 19 01:45:20 2023
 Copyright (c) 1985-1991  Texas Instruments Incorporated 

test menus                                                           PAGE   56

    2435 000025b0     009d          .WORD    157            ;WIDTH OF BAR!
    2436 000025c0     3d3d          .WORD    ROBO_DECAY     ;TEXT COLOR OF SELECTED ITEM
    2437 000025d0 000040e0"         .LONG    MESS_TOPAGE2,0,NO_HELP
    2438 00002630 00004160"         .LONG    MESS_BACKP1,0,NO_HELP          ;DETAILED SECTION
    2439 00002690 00000000          .LONG    0
    2440                    
    2441                    
    2442                    
    2443 000026b0 00000000! MEN_AP3 .LONG    RD7FONT        ;FONT
    2444 000026d0 00000000!         .LONG    STRCNRM        ;CENTER PLEASE
    2445 000026f0 00005500"         .LONG    MESSPAT        ;TITLE
    2446 00002710     0505          .WORD    ROBO_YELLOW    ;COLOR OF TITLE
    2447 00002720     00c8          .WORD    200            ;UL X       (CENTER IT!)
    2448 00002730     00e2          .WORD    226            ;UL Y
    2449 00002740     000c          .WORD    12             ;VERTICAL SPACING
    2450 00002750     0707          .WORD    COLOR_BLUE     ;COLOR WHEN NOT SELECTED
    2451 00002760     000a          .WORD    10             ;HEIGHT OF SELECTION BAR
    2452 00002770     ffff          .WORD    -1             ;DISTANCE OF BAR FROM TOP OF TEXT (NEGATIVE)
    2453 00002780     0006          .WORD    BAR_DX         ;EXTRA X ON EACH SIDE.
    2454 00002790     009d          .WORD    157            ;WIDTH OF BAR!
    2455 000027a0     3d3d          .WORD    ROBO_DECAY     ;TEXT COLOR OF SELECTED ITEM
    2456 000027b0 000042c0"         .LONG    MESS_MM,FORCE_MAIN,NO_HELP;RETURN TO MAIN MENU
    2457 00002810 00004160"         .LONG    MESS_BACKP1,0,NO_HELP          ;DETAILED SECTION
    2458 00002870 00000000          .LONG    0
    2459                    
    2460                    
    2461 00002890           MEN_SOUNDTEST
    2462 00002890 00000000!         .LONG   RD7FONT ;FONT
    2463 000028b0 00000000!         .LONG   STRCNRM ;CENTER PLEASE
    2464 000028d0 00003de0"         .LONG   MESS_SNDTST0    ;TITLE
    2465 000028f0     0505          .WORD   ROBO_YELLOW     ;COLOR OF TITLE
    2466 00002900     00c8          .WORD   200             ;UL X       (CENTER IT!)
    2467 00002910     0057          .WORD   MENU_Y-3        ;UL Y
    2468 00002920     0014          .WORD   20              ;VERTICAL SPACING
    2469 00002930     0303          .word   ROBO_RED        ;colour when not selected
    2470 00002940     0010          .WORD   16              ;HEIGHT OF SELECTION BAR
    2471 00002950     fffc          .WORD   -4              ;DISTANCE OF BAR FROM TOP OF TEXT (NEGATIVE)
    2472 00002960     0006          .WORD   BAR_DX          ;EXTRA X ON EACH SIDE.
    2473 00002970     00c6          .WORD   192+6           ;WIDTH OF BAR!
    2474 00002980     3d3d          .WORD   ROBO_DECAY      ;TEXT COLOR OF SELECTED ITEM
    2475 00002990 00003e68"         .long   MESS_SNDTST1,DO_GENTEST,NO_HELP
    2476 000029f0 00003ed0"         .long   MESS_SNDTST2,DO_PLAYSOUNDS,NO_HELP
    2477 00002a50 00003f30"         .long   MESS_SNDTST3,0,NO_HELP
    2478 00002ab0 00003ff8"         .long   MESS_SNDTST4,FORCE_MAIN,NO_HELP
    2479 00002b10 00000000          .LONG   0
    2480                    
    2481                    
    2482 00002b30           DIAG_HELP
    2483 00002b30     0000          .WORD   0               ;CENTER JUSTIFY
    2484 00002b40     0707          .WORD   COLOR_BLUE      ;COLOR
    2485 00002b50     0006          .WORD   6               ;# ENTRIES
    2486 00002b60 00005310"         .LONG   MESS_SWTEST
    2487 00002b80 00005370"         .long   diptst_mess
    2488 00002ba0 000053f0"         .LONG   MESS_CPUTEST
    2489 00002bc0 00005470"         .LONG   M_STEST
TMS340 COFF Macro Assembler Version 6.10     Tue Dec 19 01:45:20 2023
 Copyright (c) 1985-1991  Texas Instruments Incorporated 

test menus                                                           PAGE   57

    2490 00002be0 00005500"         .LONG   MESS_PATTERNS
    2491 00002c00 00004df0"         .LONG   U_BURNIN
    2492                    
    2493 00002c20           COIN_HELP
    2494 00002c20     0000          .WORD   0               ;CENTER JUSTIFY
    2495 00002c30     0707          .WORD   COLOR_BLUE      ;COLOR
    2496 00002c40     0003          .WORD   3               ;2 ENTRIES
    2497 00002c50 00004640"         .LONG   CH_0
    2498 00002c70 000046b0"         .LONG   CH_1
    2499 00002c90 00004710"         .LONG   CH_2
    2500                    
    2501 00002cb0           AUDIT_HELP
    2502 00002cb0     0000          .WORD   0               ;CENTER JUSTIFY
    2503 00002cc0     0707          .WORD   COLOR_BLUE      ;COLOR
    2504 00002cd0     0002          .WORD   2               ;2 ENTRIES
    2505 00002ce0 000047a0"         .LONG   AH_1
    2506 00002d00 000047f0"         .LONG   AH_2
    2507                    
    2508 00002d20           ADJUST_HELP
    2509 00002d20     0000          .WORD   0               ;CENTER JUSTIFY
    2510 00002d30     0707          .WORD   COLOR_BLUE      ;COLOR
    2511 00002d40     0003          .WORD   3               ;3 ENTRIES
    2512 00002d50 00004870"         .LONG   AD_1
    2513 00002d70 000048e0"         .LONG   AD_2
    2514 00002d90 00004960"         .LONG   AD_3
    2515                    
    2516 00002db0           UTIL_HELP
    2517 00002db0     0000          .WORD   0               ;CENTER JUSTIFY
    2518 00002dc0     0707          .WORD   COLOR_BLUE      ;COLOR
    2519 00002dd0     0006          .WORD   6               ;6 ENTRIES
    2520 00002de0 000049f0"         .LONG   U_CLR_CRED
    2521 00002e00 00004ae0"         .LONG   U_CLR_COIN
    2522 00002e20 00004b80"         .LONG   U_CLR_AUD
    2523 00002e40 00004cd0"         .LONG   U_HSRESET
    2524 00002e60 00004c10"         .LONG   U_CLRRECS
    2525 00002e80 00004f90"         .LONG   U_FACTORY
    2526                    
    2527 00002ea0           EXIT_HELP
    2528 00002ea0     0000          .WORD   0               ;CENTER JUSTIFY
    2529 00002eb0     0707          .WORD   COLOR_BLUE      ;COLOR
    2530 00002ec0     0001          .WORD   1               ;1 ENTRY
    2531 00002ed0 000052b0"         .LONG   U_END
    2532                    
    2533                    
    2534                    
    2535 00002ef0           CLCRED_HELP
    2536 00002ef0     0000          .WORD   0               ;CENTER JUSTIFY
    2537 00002f00     0707          .WORD   COLOR_BLUE      ;COLOR
    2538 00002f10     0003          .WORD   3               ;# entries
    2539 00002f20 000068c0"         .LONG   MEH_CLCRED1
    2540 00002f40 00006920"         .LONG   MEH_CLCRED2
    2541 00002f60 000069a0"         .LONG   MEH_CLCRED3
    2542                    
    2543 00002f80           CLCOIN_HELP
    2544 00002f80     0000          .WORD   0               ;CENTER JUSTIFY
TMS340 COFF Macro Assembler Version 6.10     Tue Dec 19 01:45:20 2023
 Copyright (c) 1985-1991  Texas Instruments Incorporated 

test menus                                                           PAGE   58

    2545 00002f90     0707          .WORD   COLOR_BLUE      ;COLOR
    2546 00002fa0     0004          .WORD   4               ;# entries
    2547 00002fb0 00006a10"         .LONG   MEH_CLCOIN1
    2548 00002fd0 00006a90"         .LONG   MEH_CLCOIN2
    2549 00002ff0 00006b00"         .LONG   MEH_CLCOIN3
    2550 00003010 00006b70"         .LONG   MEH_CLCOIN4
    2551                    
    2552 00003030           CLAUD_HELP
    2553 00003030     0000          .WORD   0               ;CENTER JUSTIFY
    2554 00003040     0707          .WORD   COLOR_BLUE      ;COLOR
    2555 00003050     0002          .WORD   2               ;# entries
    2556 00003060 00006be0"         .LONG   MEH_CLAUD1
    2557 00003080 00006c60"         .LONG   MEH_CLAUD2
    2558                    
    2559 000030a0           CLPLRECS_HELP
    2560 000030a0     0000          .WORD   0               ;CENTER JUSTIFY
    2561 000030b0     0707          .WORD   COLOR_BLUE      ;COLOR
    2562 000030c0     0002          .WORD   2               ;# entries
    2563 000030d0 00006cc0"         .long   MEH_CLPLRECS1
    2564 000030f0 00006d30"         .long   MEH_CLPLRECS2
    2565                    
    2566 00003110           HSRES_HELP
    2567 00003110     0000          .WORD   0               ;CENTER JUSTIFY
    2568 00003120     0707          .WORD   COLOR_BLUE      ;COLOR
    2569 00003130     0003          .WORD   3               ;# entries
    2570 00003140 00006d90"         .LONG   MEH_RESHS1
    2571 00003160 00006e20"         .LONG   MEH_RESHS2
    2572 00003180 00006eb0"         .LONG   MEH_RESHS3
    2573                    
    2574 000031a0           DEF_ADJ_HELP
    2575 000031a0     0000          .WORD   0               ;CENTER JUSTIFY
    2576 000031b0     0707          .WORD   COLOR_BLUE      ;COLOR
    2577 000031c0     0004          .WORD   4               ;# entries
    2578 000031d0 00006f30"         .LONG   MEH_DEFA1
    2579 000031f0 00006fa0"         .LONG   MEH_DEFA2
    2580 00003210 00007020"         .LONG   MEH_DEFA3
    2581 00003230 00007090"         .LONG   MEH_DEFA4
    2582                    
    2583 00003250           FACSET_HELP
    2584 00003250     0000          .WORD   0               ;CENTER JUSTIFY
    2585 00003260     0707          .WORD   COLOR_BLUE      ;COLOR
    2586 00003270     0004          .WORD   4               ;# entries
    2587 00003280 00007100"         .LONG   MEH_FAC1
    2588 000032a0 00007190"         .LONG   MEH_FAC2
    2589 000032c0 00007250"         .LONG   MEH_FAC3
    2590 000032e0 000072d0"         .LONG   MEH_FAC4
    2591                    
    2592 00003300           OPMSG_HELP
    2593 00003300     0000          .word   0               ;CENTER JUSTIFY
    2594 00003310     0707          .word   COLOR_BLUE      ;COLOR
    2595 00003320     0003          .word   3               ;# entries
    2596 00003330 00005160"         .long   opmsgh1_s
    2597 00003350 000051f0"         .long   opmsgh2_s
    2598 00003370 00005250"         .long   opmsgh3_s
    2599                    
TMS340 COFF Macro Assembler Version 6.10     Tue Dec 19 01:45:20 2023
 Copyright (c) 1985-1991  Texas Instruments Incorporated 

test menus                                                           PAGE   59

    2600                    
    2601                    
    2602              00be  SIY0    equ     190
    2603              00d4  SIY1    equ     212
    2604              00e0  SIY2    equ     224
    2605              00ec  SIY3    equ     236
    2606                    
    2607 00003390           SND_INST
    2608 00003390                    MESS_MAC  RD7FONT,SPACING07,200,SIY1,ROBO_WHITE,STRCNRM,0
    2609 00003430       55          .STRING   "UP AND DOWN TO SELECT SOUND",0,1
    2610 00003520                   .EVEN
    2611 00003520                    MESS_MAC  RD7FONT,SPACING07,200,SIY2,ROBO_WHITE,STRCNRM,0
    2612 000035c0       50          .STRING   "PRESS ACTION BUTTON TO PLAY",0,1
    2613 000036b0                   .EVEN
    2614 000036b0                    MESS_MAC  RD7FONT,SPACING07,200,SIY3,ROBO_WHITE,STRCNRM,0
    2615 00003750       50          .STRING   "PRESS START BUTTON TO EXIT",0,0
    2616                    
    2617 00003830           SND_SETUP MESS_MAC  RD15FONT,SPACING20,200,SIY0,ROBO_WHITE,STRCNRM,0
    2618                    
    2619 000038d0 000039d0" sounds_tab      .long   SND_ST0,SND_ST1,SND_ST2,SND_ST3
    2620 00003950 00003bb8"                 .long   SND_ST4,SND_ST5,SND_ST6,SND_ST7
    2621                    
    2622                    
    2623 000039d0       47  SND_ST0 .string "GAME START (U3)",0
    2624 00003a50       50  SND_ST1 .string "PERIOD END (U3)",0
    2625 00003ad0       57  SND_ST2 .string "WHOOMP (U13)",0
    2626 00003b38       41  SND_ST3 .string "ALLEY OOP (U12)",0
    2627 00003bb8       52  SND_ST4 .string "RANGE (U12)",0
    2628 00003c18       53  SND_ST5 .string "SHOWTIME (U13)",0
    2629 00003c90       53  SND_ST6 .string "SHOES? (U13)",0
    2630 00003cf8       57  SND_ST7 .string "WEBBER (U12)",0
    2631                    
    2632 00003d60                   .EVEN
    2633 00003d60           TEST_SOUND_TAB
    2634 00003d60     0001          .WORD   01H,0aH,1abH,1b9H,01e3H,1CBH,1adh,69H
    2635                    
    2636 00003de0       53  MESS_SNDTST0    .string "SOUND BOARD TEST",0
    2637 00003e68       47  MESS_SNDTST1    .string "GENERAL TEST",0
    2638 00003ed0       50  MESS_SNDTST2    .string "PLAY SOUNDS",0
    2639 00003f30       42  MESS_SNDTST3    .string "BACK TO DIAGNOSTICS MENU",0
    2640 00003ff8       52  MESS_SNDTST4    .string "RETURN TO MAIN MENU",0
    2641                    
    2642 00004098           MESS_YES
    2643 00004098       59          .byte    "YES",0
    2644 000040c0                   .EVEN
    2645                    
    2646 000040c0       4e  MESS_NO .byte    "NO",0
    2647 000040e0                   .EVEN
    2648                    
    2649                    
    2650 000040e0           MESS_TOPAGE2
    2651 000040e0       4e           .byte   "NEXT AUDIT PAGE"
    2652 00004158       00           .BYTE           0
    2653 00004160                    .EVEN
    2654                    
TMS340 COFF Macro Assembler Version 6.10     Tue Dec 19 01:45:20 2023
 Copyright (c) 1985-1991  Texas Instruments Incorporated 

test menus                                                           PAGE   60

    2655 00004160           MESS_BACKP1
    2656 00004160       50           .byte   "PREVIOUS AUDIT PAGE"
    2657 000041f8       00           .BYTE           0
    2658 00004200                    .EVEN
    2659                    
    2660 00004200           MESS_ANY
    2661 00004200       41           .byte   "ANY BUTTON TO CONTINUE"
    2662 000042b0       00           .BYTE           0
    2663 000042c0                    .EVEN
    2664                    
    2665 000042c0           MESS_MM
    2666 000042c0       52           .byte   "RETURN TO MAIN MENU"
    2667 00004358       00           .BYTE           0
    2668 00004360                    .EVEN
    2669                    
    2670 00004360           MESSDIAG                                ;THIS IS TITLE OF PAGE
    2671 00004360           MESS_DIAG
    2672 00004360       44           .byte   "DIAGNOSTIC TESTS"
    2673 000043e0       00           .BYTE     0
    2674 000043f0                    .EVEN
    2675 000043f0           MESS_COIN_AUD
    2676 000043f0       43           .byte   "COIN BOOKKEEPING"
    2677 00004470       00           .BYTE     0
    2678 00004480                    .EVEN
    2679 00004480           MESS_GAME_AUD
    2680 00004480       47           .byte   "GAME AUDITS"
    2681 000044d8       00           .BYTE     0
    2682 000044e0                    .EVEN
    2683                    
    2684 000044e0           MESS_GAME_ADJ
    2685 000044e0       47           .byte   "GAME ADJUSTMENT"
    2686 00004558       00           .BYTE     0
    2687 00004560                    .EVEN
    2688 00004560           MESS_UTIL
    2689 00004560       55           .byte   "UTILITIES"
    2690 000045a8       00           .BYTE     0
    2691 000045b0                    .EVEN
    2692                    
    2693 000045b0           MESS_EXIT
    2694 000045b0       45           .byte   "EXIT TO GAME OVER"
    2695 00004638       00           .BYTE     0
    2696 00004640                    .EVEN
    2697                    
    2698 00004640       56  CH_0     .byte   "VIEW COINBOX"
    2699 000046a0       00           .BYTE   0
    2700 000046b0                    .EVEN
    2701 000046b0       54  CH_1     .byte   "TOTALS AND"
    2702 00004700       00           .BYTE   0
    2703 00004710                    .EVEN
    2704 00004710       47  CH_2     .byte   "GAMEPLAY COUNTERS"
    2705 00004798       00           .BYTE   0
    2706 000047a0                    .EVEN
    2707                    
    2708 000047a0       56  AH_1     .byte   "VIEW GAME"
    2709 000047e8       00           .BYTE   0
TMS340 COFF Macro Assembler Version 6.10     Tue Dec 19 01:45:20 2023
 Copyright (c) 1985-1991  Texas Instruments Incorporated 

test menus                                                           PAGE   61

    2710 000047f0                    .EVEN
    2711 000047f0       50  AH_2     .byte   "PLAY STATISTICS"
    2712 00004868       00           .BYTE   0
    2713 00004870                    .EVEN
    2714                    
    2715 00004870       4d  AD_1     .byte   "MAKE CHANGES",0
    2716 000048e0                    .EVEN
    2717 000048e0       54  AD_2     .byte   "TO PRICING AND",0
    2718 00004960                    .EVEN
    2719 00004960       44  AD_3     .byte   "DRONE DIFFICULTY",0
    2720 000049f0                    .EVEN
    2721                    
    2722 000049f0           MESS_CLCRED
    2723 000049f0       43  U_CLR_CRED       .byte "CLEAR CREDITS"
    2724 00004a58       00           .BYTE   0
    2725 00004a60                    .EVEN
    2726                    
    2727 00004a60       43  MESS_CCCONF      .byte "CREDITS CLEARED"
    2728 00004ad8       00           .BYTE   0
    2729 00004ae0                    .EVEN
    2730                    
    2731 00004ae0           MESS_CLCOIN
    2732 00004ae0       43  U_CLR_COIN       .byte "CLEAR COIN COUNTERS"
    2733 00004b78       00           .BYTE   0
    2734 00004b80                    .EVEN
    2735                    
    2736 00004b80           MESS_CLAUD
    2737 00004b80       43  U_CLR_AUD        .byte "CLEAR GAME AUDITS"
    2738 00004c08       00           .BYTE   0
    2739 00004c10                    .EVEN
    2740                    
    2741 00004c10           MESS_CLPLRECS
    2742 00004c10           U_CLRRECS
    2743 00004c10       43          .string "CLEAR PLAYER STATISTICS",0
    2744                    
    2745 00004cd0           MESS_HSRESET
    2746 00004cd0       52  U_HSRESET        .byte "RESET HIGH SCORES"
    2747 00004d58       00           .BYTE   0
    2748 00004d60                    .EVEN
    2749                    
    2750 00004d60           MESS_HSRES
    2751 00004d60       52           .byte "RESET HIGH SCORES"
    2752 00004de8       00           .BYTE   0
    2753 00004df0                    .EVEN
    2754                    
    2755                    
    2756                    
    2757 00004df0       42  U_BURNIN        .byte "BURN-IN TEST",0
    2758 00004e60                   .even
    2759                    
    2760 00004e60       52  MESS_BURN       .byte "RUN BURN-IN TEST",0
    2761 00004ef0                   .even
    2762                    
    2763 00004ef0           MESS_DEF_ADJ    TXTLINE "DEFAULT ADJUSTMENTS"
    2764 00004f90           U_FACTORY       TXTLINE "FACTORY SETTINGS"
TMS340 COFF Macro Assembler Version 6.10     Tue Dec 19 01:45:20 2023
 Copyright (c) 1985-1991  Texas Instruments Incorporated 

test menus                                                           PAGE   62

    2765 00005020           MESS_FACSET     TXTLINE "FULL FACTORY RESTORE"
    2766                    
    2767 000050d0           opmsg_s         TXTLINE "OPERATOR MESSAGE"
    2768 00005160           opmsgh1_s       TXTLINE "ENTER AN OPERATOR"
    2769 000051f0           opmsgh2_s       TXTLINE "MESSAGE TO"
    2770 00005250           opmsgh3_s       TXTLINE "THE PLAYERS"
    2771                    
    2772                    
    2773 000052b0       45  U_END   .byte "END TESTING",0
    2774 00005310                   .even
    2775                    
    2776 00005310       53  MESS_SWTEST     .byte "SWITCH TEST",0
    2777 00005370                   .even
    2778 00005370       44  diptst_mess     .byte "DIP SWITCH TEST",0
    2779 000053f0                   .even
    2780 000053f0       43  MESS_CPUTEST    .byte "CPU BOARD TEST",0
    2781 00005470                   .even
    2782 00005470       53  M_STEST .byte   "SOUND BOARD TEST",0
    2783 00005500                   .even
    2784                    
    2785 00005500           MESSPAT                 ;HEADER TITLE
    2786 00005500       4d  MESS_PATTERNS   .byte "MONITOR PATTERNS",0
    2787 00005590                   .EVEN
    2788                    
    2789 00005590       52  MESS_RED        .byte "RED SCREEN",0
    2790 000055f0                   .EVEN
    2791 000055f0       47  MESS_GREEN       .byte "GREEN SCREEN",0
    2792 00005660                   .EVEN
    2793 00005660       42  MESS_BLUE        .byte "BLUE SCREEN",0
    2794 000056c0                   .EVEN
    2795 000056c0       43  MESS_BARS        .byte "COLOR BARS",0
    2796 00005720                   .EVEN
    2797 00005720       43  MESS_CROSS       .byte "CROSSHATCH  PATTERN",0
    2798 000057c0                   .EVEN
    2799 000057c0       42  MESS_DIAGM       .byte "BACK TO DIAGNOSTICS MENU",0
    2800 00005890                   .EVEN
    2801                    
    2802                            ;0 = END OF STRING...1 = MORE MESSAGES!
    2803                    
    2804 00005890           MESS_RESET
    2805 00005890                   MESS_MAC  RD7FONT,SPACING20,200,80,ROBO_RED,STRCNRM,0
    2806 00005930           MESS_FACFAIL
    2807 00005930       46          .byte  "FAILURE IN CMOS RAM",0,0
    2808 000059e0                   .EVEN
    2809                    
    2810 000059e0           MESS_FFSCONF
    2811 000059e0           MESS_FAC MESS_MAC RD7FONT,SPACING20,200,96,COLOR_WHITE,STRCNRM,0
    2812 00005a80           MESS_DEFCONF
    2813 00005a80       41          .byte   "ADJUSTMENTS RESTORED.",0,1
    2814 00005b40                   .EVEN
    2815                    
    2816 00005b40                   MESS_MAC RD7FONT,SPACING20,200,112,COLOR_YELLOW,STRCNRM,0
    2817 00005be0           MESS_CCNCONF
    2818 00005be0       43          .byte  "COIN COUNTERS CLEARED.",0,1
    2819 00005ca0                   .EVEN
TMS340 COFF Macro Assembler Version 6.10     Tue Dec 19 01:45:20 2023
 Copyright (c) 1985-1991  Texas Instruments Incorporated 

test menus                                                           PAGE   63

    2820                    
    2821 00005ca0                   MESS_MAC RD7FONT,SPACING20,200,128,COLOR_BLUE,STRCNRM,0
    2822 00005d40           MESS_CAUDCONF
    2823 00005d40       47          .byte  "GAME AUDITS CLEARED.",0,1
    2824 00005df0                   .EVEN
    2825                    
    2826 00005df0                   MESS_MAC RD7FONT,SPACING20,200,144,COLOR_RED,STRCNRM,0
    2827 00005e90           MESS_HSRCONF
    2828 00005e90       48          .byte  "HIGH SCORE TABLE RESET.",0,1
    2829 00005f60                   .EVEN
    2830                    
    2831 00005f60                   MESS_MAC RD7FONT,SPACING20,200,160,COLOR_CYAN,STRCNRM,0
    2832 00006000           MESS_CLPLRECSCONF
    2833 00006000       50          .string "PLAYER STATISTICS CLEARED.",0,0
    2834 000060e0                   .EVEN
    2835                    
    2836 000060e0           MESS_CANCELLED
    2837 000060e0       43          .byte "CANCELLED",0
    2838 00006130                   .EVEN
    2839                    
    2840              00c5  CIN_X   EQU     (TIT_ULX+TIT_LRX)/2
    2841              00a3  CR_X    EQU     CIN_X-34
    2842              0056  CIN_Y   EQU     86
    2843                    
    2844              0064  CIY1    EQU     CIN_Y+14
    2845              0073  CIY2    EQU     CIY1+15
    2846              008c  CIY3    EQU     CIY2+25
    2847              00a5  CIY4    EQU     CIY3+25
    2848                    
    2849 00006130           M_TEAM  MESS_MAC  RD7FONT,SPACING20,200,67,ROBO_WHITE,STRCNRM,0
    2850 000061d0       54          .byte   "TOTAL CARNAGE TEAM:",0,1
    2851 00006278                   MESS_MAC  RD7FONT,SPACING20,200,97,ROBO_WHITE,STRCNRM,0
    2852 00006320       4d          .byte   "MARK TURMELL",0,1
    2853 00006390                   MESS_MAC  RD7FONT,SPACING20,200,107,ROBO_WHITE,STRCNRM,0
    2854 00006430       4a          .byte   "JOHN TOBIAS",0,1
    2855 00006498                   MESS_MAC  RD7FONT,SPACING20,200,117,ROBO_WHITE,STRCNRM,0
    2856 00006540       4a          .byte   "JIM GENTILE",0,1
    2857 000065a8                   MESS_MAC  RD7FONT,SPACING20,200,127,ROBO_WHITE,STRCNRM,0
    2858 00006650       53          .byte   "SHAWN LIPTAK",0,1
    2859 000066c0                   MESS_MAC  RD7FONT,SPACING20,200,137,ROBO_WHITE,STRCNRM,0
    2860 00006760       4a          .byte   "JON HEY",0,1
    2861 000067a8                   MESS_MAC  RD7FONT,SPACING20,200,147,ROBO_WHITE,STRCNRM,0
    2862 00006850       54          .byte   "TONY GOSKIE",0,0
    2863 000068c0                   .even
    2864                    
    2865 000068c0       52  MEH_CLCRED1      .byte "REMOVE ANY",0
    2866 00006920                            .EVEN
    2867 00006920       50  MEH_CLCRED2      .byte "POSTED CREDITS",0
    2868 000069a0                            .EVEN
    2869 000069a0       46  MEH_CLCRED3      .byte "FROM THE GAME",0
    2870 00006a10                            .EVEN
    2871                    
    2872 00006a10       43  MEH_CLCOIN1      .byte "CLEAR OUT PAID",0
    2873 00006a90                            .EVEN
    2874 00006a90       43  MEH_CLCOIN2      .byte "CREDITS TOTAL",0
TMS340 COFF Macro Assembler Version 6.10     Tue Dec 19 01:45:20 2023
 Copyright (c) 1985-1991  Texas Instruments Incorporated 

test menus                                                           PAGE   64

    2875 00006b00                            .EVEN
    2876 00006b00       41  MEH_CLCOIN3      .byte "AND THE COIN",0
    2877 00006b70                            .EVEN
    2878 00006b70       53  MEH_CLCOIN4      .byte "SLOT COUNTERS",0
    2879 00006be0                            .EVEN
    2880                    
    2881 00006be0       43  MEH_CLAUD1       .byte "CLEAR GAMEPLAY",0
    2882 00006c60                            .EVEN
    2883 00006c60       53  MEH_CLAUD2       .byte "STATISTICS",0
    2884 00006cc0                            .EVEN
    2885                    
    2886 00006cc0       43  MEH_CLPLRECS1   .string "CLEAR PLAYER",0
    2887 00006d30                           .even
    2888 00006d30       53  MEH_CLPLRECS2   .string "STATISTICS",0
    2889 00006d90                           .even
    2890                    
    2891 00006d90       52  MEH_RESHS1       .byte "RESET HIGH SCORE",0
    2892 00006e20                            .EVEN
    2893 00006e20       54  MEH_RESHS2       .byte "TABLE TO FACTORY",0
    2894 00006eb0                            .EVEN
    2895 00006eb0       44  MEH_RESHS3       .byte "DEFAULT VALUES",0
    2896 00006f30                            .EVEN
    2897                    
    2898 00006f30       53  MEH_DEFA1        .byte "SET ALL GAME",0
    2899 00006fa0                            .EVEN
    2900 00006fa0       41  MEH_DEFA2        .byte "ADJUSTMENTS TO",0
    2901 00007020                            .EVEN
    2902 00007020       54  MEH_DEFA3        .byte "THEIR FACTORY",0
    2903 00007090                            .EVEN
    2904 00007090       44  MEH_DEFA4        .byte "DEFAULT VALUE",0
    2905 00007100                            .EVEN
    2906                    
    2907                    
    2908 00007100           MEH_FAC1
    2909 00007100       52          .STRING "RESET ALL AUDITS,",0
    2910 00007190                   .EVEN
    2911 00007190           MEH_FAC2
    2912 00007190       43          .STRING "COUNTERS, ADJUSTMENTS,",0
    2913 00007250                   .EVEN
    2914 00007250           MEH_FAC3
    2915 00007250       48          .STRING "HIGH SCORES AND",0
    2916 000072d0                   .EVEN
    2917 000072d0           MEH_FAC4
    2918 000072d0       54          .STRING "THE PLAYER STATISTICS.",0
    2919 00007390                   .EVEN
    2920                    
    2921                    
    2922 00007390           MESSMAIN
    2923 00007390       4e          .byte   "NBA JAM TEST MENU",0
    2924 00007420                   .even
    2925                    
    2926 00007420           MESSUTIL
    2927 00007420       55          .byte   "UTILITY MENU",0
    2928 00007490                   .even
    2929                    
TMS340 COFF Macro Assembler Version 6.10     Tue Dec 19 01:45:20 2023
 Copyright (c) 1985-1991  Texas Instruments Incorporated 

test menus                                                           PAGE   65

    2930                    
    2931                    
    2932 00007490           CSELCT
    2933 00007490     0001          .WORD   1,4,1,0,1,0,0,2,2       ;WILLY PRICING
    2934 00007520     0004          .WORD   4                       ;4 COINS PER DOLLAR (FOR CALC)
    2935 00007530     0001          .WORD   1                       ;DISPLAY COIN FRACTIONS
    2936 00007540     0001          .WORD   1,4,1,0                 ;COIN VALUE
    2937 00007580 0000dc20"         .LONG   DOLLAR_LEAD,NULL_ST     ;CHARACTER STRINGS.
    2938 000075c0 00014500"         .LONG   OCOP                    ;ONE COIN ONE PLAY
    2939 000075e0 0000e008"         .LONG   USA_1                   ;TITLE OF COIN MODE
    2940 00007600 0000f140"         .LONG   Q_Q             ;1 COIN PER CREDIT (SERIES OF STRINGS)
    2941 00007620     0000          .WORD   SHOW_NONE               ;NO PRICING LINE ON 2/1
    2942 00007630 000135c0"         .LONG   USA_QDQ                 ;QUARTER
    2943                    
    2944 00007650     0001          .WORD   1,4,1,0,1,0,0,2,1       ;WILLY PRICING
    2945 000076e0     0004          .WORD   4                       ;4 COINS PER DOLLAR (FOR CALC)
    2946 000076f0     0001          .WORD   1                       ;DISPLAY COIN FRACTIONS
    2947 00007700     0001          .WORD   1,4,1,0                 ;COIN VALUE
    2948 00007740 0000dc20"         .LONG   DOLLAR_LEAD,NULL_ST     ;CHARACTER STRINGS.
    2949 00007780 00014500"         .LONG   OCOP                    ;ONE COIN ONE PLAY
    2950 000077a0 0000e040"         .LONG   USA_2                   ;TITLE OF COIN MODE
    2951 000077c0 0000f140"         .LONG   Q_Q             ;1 COIN PER CREDIT (SERIES OF STRINGS)
    2952 000077e0     0000          .WORD   SHOW_NONE               ;NO PRICING LINE ON 2/1
    2953 000077f0 000135c0"         .LONG   USA_QDQ                 ;QUARTER
    2954                    
    2955                    
    2956                    
    2957 00007810     0001          .WORD   1,4,1,0,1,0,0,1,1          ;WILLY PRICING
    2958 000078a0     0004          .WORD   4                               ;4 COINS PER DOLLAR (FOR CALC)
    2959 000078b0     0001          .WORD   1                               ;DISPLAY COIN FRACTIONS
    2960 000078c0     0001          .WORD   1,4,1,0                  ;COIN VALUE
    2961 00007900 0000dc20"         .LONG   DOLLAR_LEAD,NULL_ST        ;CHARACTER STRINGS.
    2962 00007940 00000001          .LONG   CSM_LIST                         ;ONE COIN ONE PLAY
    2963 00007960 0000e070"         .LONG   USA_3                    ;TITLE OF COIN MODE
    2964 00007980 0000f140"         .LONG   Q_Q                      ;1 COIN PER CREDIT (SERIES OF STRINGS)
    2965 000079a0     0000          .WORD   SHOW_NONE               ;NO PRICING LINE ON 2/1
    2966 000079b0 000135c0"         .LONG   USA_QDQ                 ;QUARTER
    2967                    
    2968                    
    2969 000079d0     0001          .WORD   1,4,1,0,2,4,0,1,1     ; WILLY PRICING
    2970 00007a60     0004          .WORD   4                       ; 4 COINS PER DOLLAR (FOR CALC)
    2971 00007a70     0001          .WORD   1                       ; DISPLAY COIN FRACTIONS
    2972 00007a80     0001          .WORD   1,4,1,0                 ; COIN VALUE
    2973 00007ac0 0000dc20"         .LONG   DOLLAR_LEAD,NULL_ST     ; CHARACTER STRINGS.
    2974 00007b00 00000001          .LONG   CSM_LIST                ; PRINT THE 2 THE OP SEES
    2975 00007b20 0000e0a0"         .LONG   USA_4                   ; TITLE OF COIN MODE
    2976 00007b40 0000f1c0"         .LONG   DOLLAR_3                ; 1 COIN PER CREDIT (SERIES OF STRINGS)
    2977 00007b60     0003          .WORD   SHOW_2                  ; SHOW LINE 2
    2978 00007b70 000135c0"         .LONG   USA_QDQ                 ; QUARTER
    2979                                                                    
    2980                    
    2981                    
    2982                            .IF     FULLPRICE
    2983                    
    2984                    
TMS340 COFF Macro Assembler Version 6.10     Tue Dec 19 01:45:20 2023
 Copyright (c) 1985-1991  Texas Instruments Incorporated 

test menus                                                           PAGE   66

    2985 00007b90     0003          .WORD   3,12,3,0,4,12,6,2,1      ;WILLY PRICING
    2986 00007c20     0004          .WORD   4                       ;4 COINS PER DOLLAR (FOR CALC)
    2987 00007c30     0000          .WORD   0                               ;NO COIN FRACTIONS
    2988 00007c40     0001          .WORD   1,4,1,0                  ;COIN VALUE
    2989 00007c80 0000dc20"         .LONG   DOLLAR_LEAD,NULL_ST        ;CHARACTER STRINGS.
    2990 00007cc0 00000001          .LONG   CSM_LIST                         ;PRINT THE 2 THE OP SEES
    2991 00007ce0 0000e0d0"         .LONG   USA_5                    ;TITLE OF COIN MODE
    2992 00007d00 0000f220"         .LONG   DOLLAR_4                         ;1 COIN PER CREDIT (SERIES OF STRINGS)
    2993 00007d20     0003          .WORD   SHOW_2                  ;SHOW LINE 2
    2994 00007d30 000135c0"         .LONG   USA_QDQ                 ;QUARTER
    2995                    
    2996 00007d50     0001          .WORD   1,4,1,0,2,0,0,1,1       ; WILLY PRICING
    2997 00007de0     0004          .WORD   4                               ;4 COINS PER DOLLAR (FOR CALC)
    2998 00007df0     0001          .WORD   1                               ;DISPLAY COIN FRACTIONS
    2999 00007e00     0001          .WORD   1,4,1,0                  ;COIN VALUE
    3000 00007e40 0000dc20"         .LONG   DOLLAR_LEAD,NULL_ST        ;CHARACTER STRINGS.
    3001 00007e80 00000001          .LONG   CSM_LIST                         ;2 COINS PER PLAYER
    3002 00007ea0 0000e100"         .LONG   USA_6                    ;TITLE OF COIN MODE
    3003 00007ec0 0000f180"         .LONG   F_F_1S1C                 ;2 COINS PER CREDIT (SERIES OF STRINGS)
    3004 00007ee0     0002          .WORD   SHOW_1                  ;SHOW LINE 1
    3005 00007ef0 000135c0"         .LONG   USA_QDQ                 ;QUARTER
    3006 00007f10     0001          .WORD   1,4,1,0,2,4,0,1,1          ;WILLY PRICING
    3007 00007fa0     0004          .WORD   4                               ;4 COINS PER DOLLAR (FOR CALC)
    3008 00007fb0     0001          .WORD   1                               ;DISPLAY COIN FRACTIONS
    3009 00007fc0     0001          .WORD   1,4,1,0                  ;COIN VALUE
    3010 00008000 0000dc20"         .LONG   DOLLAR_LEAD,NULL_ST        ;CHARACTER STRINGS.
    3011 00008040 00000001          .LONG   CSM_LIST                         ;PRINT THE 2 THE OP SEES
    3012 00008060 0000e130"         .LONG   USA_7                    ;TITLE OF COIN MODE
    3013 00008080 0000f2e0"         .LONG   UFS3D                    ;1 COIN PER CREDIT (SERIES OF STRINGS)
    3014 000080a0     0003          .WORD   SHOW_2                  ;SHOW LINE 2
    3015 000080b0 000135c0"         .LONG   USA_QDQ                 ;QUARTER
    3016                    
    3017 000080d0     0003          .WORD   3,12,3,0,4,12,6,2,2      ;WILLY PRICING
    3018 00008160     0004          .WORD   4                               ;4 COINS PER DOLLAR (FOR CALC)
    3019 00008170     0000          .WORD   0                               ;NO COIN FRACTIONS
    3020 00008180     0001          .WORD   1,4,1,0                  ;COIN VALUE
    3021 000081c0 0000dc20"         .LONG   DOLLAR_LEAD,NULL_ST        ;CHARACTER STRINGS.
    3022 00008200 00000001          .LONG   CSM_LIST                         ;PRINT THE 2 THE OP SEES
    3023 00008220 0000e160"         .LONG   USA_8                    ;TITLE OF COIN MODE
    3024 00008240 0000f340"         .LONG   UFS4D                    ;1 COIN PER CREDIT (SERIES OF STRINGS)
    3025 00008260     0003          .WORD   SHOW_2                  ;SHOW LINE 2
    3026 00008270 000135c0"         .LONG   USA_QDQ                 ;QUARTER
    3027                    
    3028                            .ENDIF
    3029 00008290     0014          .WORD   20,2,5,1,5,0,0,2,2      ; L,C,R,4,U/C,U/B,MINUNITS
    3030 00008320     0014          .WORD   20                      ; COINS/DOLLAR
    3031 00008330     0001          .WORD   1                       ; DISPLAY FRACTIONS
    3032 00008340     0014          .WORD   20,2,5,1                ; L,C,R,4
    3033 00008380 0000dc20"         .LONG   DOLLAR_LEAD,NULL_ST     ; CHARACTER STRINGS.
    3034 000083c0 00014630"         .LONG   USA_ELECTRONIC          ; SPECIAL MESSAGE
    3035 000083e0 0000e190"         .LONG   USA_ELECTITLE           ; TITLE OF COIN MODE
    3036 00008400 0000f0e0"         .LONG   USA_EL                  ; SETTINGS DESCRIPTION
    3037 00008420     0003          .WORD   SHOW_2                  ; LINES TO SHOW ON
    3038 00008430 00013330"         .LONG   USA_ESLOT               ; QUARTER
    3039                    
TMS340 COFF Macro Assembler Version 6.10     Tue Dec 19 01:45:20 2023
 Copyright (c) 1985-1991  Texas Instruments Incorporated 

test menus                                                           PAGE   67

    3040 00008450     0006          .WORD   6,12,30,0,5,0,0,2,2      ;WILLY PRICING
    3041 000084e0     0001          .WORD   1                        ;DMS HAVE NO FRACTIONS
    3042 000084f0     0000          .WORD   0                        ;DON'T DISPLAY COIN FRACTIONS
    3043 00008500     0001          .WORD   1,2,5,0                  ;COIN VALUE
    3044 00008540 0000dc90"         .LONG   NULL_ST,DM_TRAIL                 ;CHARACTER STRINGS.
    3045 00008580 00000001          .LONG   CSM_LIST
    3046 000085a0 0000e290"         .LONG   GERMAN_1                         ;TITLE OF COIN MODE
    3047 000085c0 0000f400"         .LONG   DM_6                      ;1 COIN PER CREDIT (SERIES OF STRINGS)
    3048 000085e0     0003          .WORD   SHOW_2
    3049 000085f0 000136b0"         .LONG   GERMAN_15                       ;1 DM / 5 DM
    3050                    
    3051              000a  G1SEL   EQU     ($-CSELCT)/CS_SIZE          ;COIN SELECT VALUE FOR GERMAN 1
    3052 00008610     0006          .WORD   6,12,30,0,5,30,0,2,1            ;WILLY PRICING
    3053 000086a0     0001          .WORD   1                               ;DMS HAVE NO FRACTIONS
    3054 000086b0     0000          .WORD   0                               ;DON'T DISPLAY COIN FRACTIONS
    3055 000086c0     0001          .WORD   1,2,5,0                  ;COIN VALUE
    3056 00008700 0000dc90"         .LONG   NULL_ST,DM_TRAIL                 ;CHARACTER STRINGS.
    3057 00008740 00000001          .LONG   CSM_LIST
    3058 00008760 0000e2e0"         .LONG   GERMAN_2                         ;TITLE OF COIN MODE
    3059 00008780 0000f460"         .LONG   DM_7                      ;1 COIN PER CREDIT (SERIES OF STRINGS)
    3060 000087a0     0003          .WORD   SHOW_2
    3061 000087b0 000136b0"         .LONG   GERMAN_15                       ;1 DM / 5 DM
    3062 000087d0     0007          .WORD   7,14,35,0,5,35,0,2,1            ;WILLY PRICING
    3063 00008860     0001          .WORD   1                               ;DMS HAVE NO FRACTIONS
    3064 00008870     0000          .WORD   0                               ;DON'T DISPLAY COIN FRACTIONS
    3065 00008880     0001          .WORD   1,2,5,0                  ;COIN VALUE
    3066 000088c0 0000dc90"         .LONG   NULL_ST,DM_TRAIL                 ;CHARACTER STRINGS.
    3067 00008900 00000001          .LONG   CSM_LIST
    3068 00008920 0000e330"         .LONG   GERMAN_3                         ;TITLE OF COIN MODE
    3069 00008940 0000f4c0"         .LONG   DM_8                      ;1 COIN PER CREDIT (SERIES OF STRINGS)
    3070 00008960     0003          .WORD   SHOW_2
    3071 00008970 000136b0"         .LONG   GERMAN_15                       ;1 DM / 5 DM
    3072 00008990     0001          .WORD   1,2,5,0,1,0,0,2,1          ;WILLY PRICING
    3073 00008a20     0001          .WORD   1                               ;DMS HAVE NO FRACTIONS
    3074 00008a30     0000          .WORD   0                               ;DON'T DISPLAY COIN FRACTIONS
    3075 00008a40     0001          .WORD   1,2,5,0                  ;COIN VALUE
    3076 00008a80 0000dc90"         .LONG   NULL_ST,DM_TRAIL                 ;CHARACTER STRINGS.
    3077 00008ac0 00000001          .LONG   CSM_LIST
    3078 00008ae0 0000e380"         .LONG   GERMAN_4                         ;TITLE OF COIN MODE
    3079 00008b00 0000f3a0"         .LONG   DM_5                      ;1 COIN PER CREDIT (SERIES OF STRINGS)
    3080 00008b20     0003          .WORD   SHOW_2
    3081 00008b30 000136b0"         .LONG   GERMAN_15                       ;1 DM / 5 DM
    3082                    
    3083 00008b50     0006          .WORD   6,12,30,0,5,0,0,2,1      ;WILLY PRICING
    3084 00008be0     0001          .WORD   1                        ;DMS HAVE NO FRACTIONS
    3085 00008bf0     0000          .WORD   0                        ;DON'T DISPLAY COIN FRACTIONS
    3086 00008c00     0001          .WORD   1,2,5,0                  ;COIN VALUE
    3087 00008c40 0000dc90"         .LONG   NULL_ST,DM_TRAIL                 ;CHARACTER STRINGS.
    3088 00008c80 00000001          .LONG   CSM_LIST
    3089 00008ca0 0000e3d0"         .LONG   GERMAN_5                         ;TITLE OF COIN MODE
    3090 00008cc0 0000f400"         .LONG   DM_6                      ;1 COIN PER CREDIT (SERIES OF STRINGS)
    3091 00008ce0     0003          .WORD   SHOW_2
    3092 00008cf0 000136b0"         .LONG   GERMAN_15                       ;1 DM / 5 DM
    3093                    
    3094 00008d10     003c          .WORD   60,12,24,0,10,0,0,2,2   ; L,C,R,4,U/C,U/B,MINUNITS
TMS340 COFF Macro Assembler Version 6.10     Tue Dec 19 01:45:20 2023
 Copyright (c) 1985-1991  Texas Instruments Incorporated 

test menus                                                           PAGE   68

    3095 00008da0     0001          .WORD   1                       ; COINS/DOLLAR
    3096 00008db0     0000          .WORD   0                       ; DISPLAY FRACTIONS
    3097 00008dc0     0005          .WORD   5,1,2,0                 ; L,C,R,4
    3098 00008e00 0000dc90"         .LONG   NULL_ST,DM_TRAIL        ;CHARACTER STRINGS.
    3099 00008e40 00014a50"         .LONG   GERMAN_ELECTRONIC       ; SPECIAL MESSAGE
    3100 00008e60 0000e230"         .LONG   GERMAN_ELECTITLE        ; TITLE OF COIN MODE
    3101 00008e80 0000f520"         .LONG   DM112265                ; SETTINGS DESCRIPTION
    3102 00008ea0     0004          .WORD   SHOW_3                  ; LINES TO SHOW ON
    3103 00008eb0 00013460"         .LONG   GERMAN_ESLOT            ; QUARTER
    3104                    
    3105 00008ed0     0002          .WORD   2,0,4,0,1,4,0,2,2               ; 2/5F    5/10F
    3106 00008f60     0001          .WORD   1                               ;1 FRANC PER FRANC
    3107 00008f70     0000          .WORD   0                               ;DON'T DISPLAY COIN FRACTIONS
    3108 00008f80     0005          .WORD   5,0,10,0                        ;COIN VALUE
    3109 00008fc0 0000dc90"         .LONG   NULL_ST,FRANC_TRAIL             ;CHARACTER STRINGS.
    3110 00009000 00000001          .LONG   CSM_LIST                        ;WAIT TILL HE SAYS "IF IT IS NOT POSSIBLE"
    3111 00009020 0000e420"         .LONG   FRENCH_1                        ;TITLE OF COIN MODE
    3112 00009040 0000f720"         .LONG   FIVE_10                         ;1 COIN PER CREDIT (SERIES OF STRINGS)
    3113 00009060     0003          .WORD   SHOW_2
    3114 00009070 00013730"         .LONG   FRENCH510
    3115                    
    3116              0010  F1SEL   EQU     ($-CSELCT)/CS_SIZE          ;COIN SELECT VALUE FOR FRENCH 1
    3117                    
    3118 00009090     0002          .WORD   2,0,4,0,1,0,0,2,1          ; 2/5F    4/10F
    3119 00009120     0001          .WORD   1                               ;1 FRANC PER FRANC
    3120 00009130     0000          .WORD   0                               ;DON'T DISPLAY COIN FRACTIONS
    3121 00009140     0005          .WORD   5,0,10,0                        ;COIN VALUE
    3122 00009180 0000dc90"         .LONG   NULL_ST,FRANC_TRAIL        ;CHARACTER STRINGS.
    3123 000091c0 00000001          .LONG   CSM_LIST                         ;WAIT TILL HE SAYS "IF IT IS NOT POSSIBLE"
    3124 000091e0 0000e470"         .LONG   FRENCH_2                         ;TITLE OF COIN MODE
    3125 00009200 0000f800"         .LONG   FOUR_10                 ;1 COIN PER CREDIT (SERIES OF STRINGS)
    3126 00009220     0003          .WORD   SHOW_2
    3127 00009230 00013730"         .LONG   FRENCH510
    3128 00009250     0001          .WORD   1,0,2,0,1,2,0,2,1           ;1/5F  3/10F        
    3129 000092e0     0001          .WORD   1                               ;1 FRANC PER FRANC
    3130 000092f0     0000          .WORD   0                               ;DON'T DISPLAY COIN FRACTIONS
    3131 00009300     0005          .WORD   5,0,10,0                        ;COIN VALUE
    3132 00009340 0000dc90"         .LONG   NULL_ST,FRANC_TRAIL        ;CHARACTER STRINGS.
    3133 00009380 00000001          .LONG   CSM_LIST                         ;WAIT TILL HE SAYS "IF IT IS NOT POSSIBLE"
    3134 000093a0 0000e4c0"         .LONG   FRENCH_3                         ;TITLE OF COIN MODE
    3135 000093c0 0000f8e0"         .LONG   THREE_10                         ;1 COIN PER CREDIT (SERIES OF STRINGS)
    3136 000093e0     0003          .WORD   SHOW_2
    3137 000093f0 00013730"         .LONG   FRENCH510
    3138 00009410     0001          .WORD   1,0,2,0,1,0,0,2,1        ;1/5F  2/10F
    3139 000094a0     0001          .WORD   1                               ;1 FRANC PER FRANC
    3140 000094b0     0000          .WORD   0                               ;DON'T DISPLAY COIN FRACTIONS
    3141 000094c0     0005          .WORD   5,0,10,0                        ;COIN VALUE
    3142 00009500 0000dc90"         .LONG   NULL_ST,FRANC_TRAIL        ;CHARACTER STRINGS.
    3143 00009540 00000001          .LONG   CSM_LIST                         ;WAIT TILL HE SAYS "IF IT IS NOT POSSIBLE"
    3144 00009560 0000e510"         .LONG   FRENCH_4                         ;TITLE OF COIN MODE
    3145 00009580 0000f9c0"         .LONG   TWO_10                  ;1 COIN PER CREDIT (SERIES OF STRINGS)
    3146 000095a0     0002          .WORD   SHOW_1
    3147 000095b0 00013730"         .LONG   FRENCH510
    3148                    
    3149                            .IF     FULLPRICE
TMS340 COFF Macro Assembler Version 6.10     Tue Dec 19 01:45:20 2023
 Copyright (c) 1985-1991  Texas Instruments Incorporated 

test menus                                                           PAGE   69

    3150                    
    3151 000095d0     0005          .WORD   5,0,10,0,2,20,0,2,1              ;2/5F  5/10F   11/20F
    3152 00009660     0001          .WORD   1                               ;1 FRANC PER FRANC
    3153 00009670     0000          .WORD   0                               ;DON'T DISPLAY COIN FRACTIONS
    3154 00009680     0005          .WORD   5,0,10,0                        ;COIN VALUE
    3155 000096c0 0000dc90"         .LONG   NULL_ST,FRANC_TRAIL        ;CHARACTER STRINGS.
    3156 00009700 00000001          .LONG   CSM_LIST                         ;WAIT TILL HE SAYS "IF IT IS NOT POSSIBLE"
    3157 00009720 0000e560"         .LONG   FRENCH_5                         ;TITLE OF COIN MODE
    3158 00009740 0000f780"         .LONG   FIVE_10_11                  ;1 COIN PER CREDIT (SERIES OF STRINGS)
    3159 00009760     0004          .WORD   SHOW_3                  ;USE LINE 3 WHEN ONLY 1 WILL FIT
    3160 00009770 00013730"         .LONG   FRENCH510
    3161 00009790     0002          .WORD   2,0,4,0,1,8,0,2,1                  ;2/5F        4/10F   9/20F
    3162 00009820     0001          .WORD   1                               ;1 FRANC PER FRANC
    3163 00009830     0000          .WORD   0                               ;DON'T DISPLAY COIN FRACTIONS
    3164 00009840     0005          .WORD   5,0,10,0                        ;COIN VALUE
    3165 00009880 0000dc90"         .LONG   NULL_ST,FRANC_TRAIL        ;CHARACTER STRINGS.
    3166 000098c0 00000001          .LONG   CSM_LIST                         ;WAIT TILL HE SAYS "IF IT IS NOT POSSIBLE"
    3167 000098e0 0000e5b0"         .LONG   FRENCH_6                         ;TITLE OF COIN MODE
    3168 00009900 0000f860"         .LONG   FOUR_10_9                       ;1 COIN PER CREDIT (SERIES OF STRINGS)
    3169 00009920     0004          .WORD   SHOW_3                  ;USE LINE 3 WHEN ONLY 1 WILL FIT
    3170 00009930 00013730"         .LONG   FRENCH510
    3171 00009950     0003          .WORD   3,0,6,0,2,12,0,2,1                ;1/5F  3/10F   7/20F
    3172 000099e0     0001          .WORD   1                               ;1 FRANC PER FRANC
    3173 000099f0     0000          .WORD   0                               ;DON'T DISPLAY COIN FRACTIONS
    3174 00009a00     0005          .WORD   5,0,10,0                        ;COIN VALUE
    3175 00009a40 0000dc90"         .LONG   NULL_ST,FRANC_TRAIL        ;CHARACTER STRINGS.
    3176 00009a80 00000001          .LONG   CSM_LIST                         ;WAIT TILL HE SAYS "IF IT IS NOT POSSIBLE"
    3177 00009aa0 0000e600"         .LONG   FRENCH_7                         ;TITLE OF COIN MODE
    3178 00009ac0 0000f940"         .LONG   THREE_10_7                  ;1 COIN PER CREDIT (SERIES OF STRINGS)
    3179 00009ae0     0004          .WORD   SHOW_3                  ;USE LINE 3 WHEN ONLY 1 WILL FIT
    3180 00009af0 00013730"         .LONG   FRENCH510
    3181 00009b10     0001          .WORD   1,0,2,0,1,4,0,2,1                  ;1/5F        2/10F  5/20F
    3182 00009ba0     0001          .WORD   1                               ;1 FRANC PER FRANC
    3183 00009bb0     0000          .WORD   0                               ;DON'T DISPLAY COIN FRACTIONS
    3184 00009bc0     0005          .WORD   5,0,10,0                        ;COIN VALUE
    3185 00009c00 0000dc90"         .LONG   NULL_ST,FRANC_TRAIL        ;CHARACTER STRINGS.
    3186 00009c40 00000001          .LONG   CSM_LIST                         ;WAIT TILL HE SAYS "IF IT IS NOT POSSIBLE"
    3187 00009c60 0000e650"         .LONG   FRENCH_8                         ;TITLE OF COIN MODE
    3188 00009c80 0000fa20"         .LONG   TWO_10_5                         ;1 COIN PER CREDIT (SERIES OF STRINGS)
    3189 00009ca0     0004          .WORD   SHOW_3                  ;USE LINE 3 WHEN ONLY 1 WILL FIT
    3190 00009cb0 00013730"         .LONG   FRENCH510
    3191                    
    3192 00009cd0     0002          .WORD   2,0,10,0,5,0,0,2,1                ;1/3x1F  2/5F
    3193 00009d60     0001          .WORD   1                               ;1 FRANC PER FRANC
    3194 00009d70     0000          .WORD   0                               ;DON'T DISPLAY COIN FRACTIONS
    3195 00009d80     0001          .WORD   1,0,5,0                  ;COIN VALUE
    3196 00009dc0 0000dc90"         .LONG   NULL_ST,FRANC_TRAIL        ;CHARACTER STRINGS.
    3197 00009e00 00000001          .LONG   CSM_LIST                         ;WAIT TILL HE SAYS "IF IT IS NOT POSSIBLE"
    3198 00009e20 0000e6a0"         .LONG   FRENCH_9                         ;TITLE OF COIN MODE
    3199 00009e40 0000faa0"         .LONG   F1325                    ;1 COIN PER CREDIT (SERIES OF STRINGS)
    3200 00009e60     0003          .WORD   SHOW_2                  ;USE LINE 2 WHEN ONLY 1 WILL FIT
    3201 00009e70 000137b0"         .LONG   FRENCH1F5F
    3202 00009e90     0003          .WORD   3,0,15,0,5,0,0,2,1                ;1/2x1F  3/5F
    3203 00009f20     0001          .WORD   1                               ;1 FRANC PER FRANC
    3204 00009f30     0000          .WORD   0                               ;DON'T DISPLAY COIN FRACTIONS
TMS340 COFF Macro Assembler Version 6.10     Tue Dec 19 01:45:20 2023
 Copyright (c) 1985-1991  Texas Instruments Incorporated 

test menus                                                           PAGE   70

    3205 00009f40     0001          .WORD   1,0,5,0                  ;COIN VALUE
    3206 00009f80 0000dc90"         .LONG   NULL_ST,FRANC_TRAIL        ;CHARACTER STRINGS.
    3207 00009fc0 00000001          .LONG   CSM_LIST                         ;WAIT TILL HE SAYS "IF IT IS NOT POSSIBLE"
    3208 00009fe0 0000e6f0"         .LONG   FRENCH_10                       ;TITLE OF COIN MODE
    3209 0000a000 0000fb80"         .LONG   F1235                    ;1 COIN PER CREDIT (SERIES OF STRINGS)
    3210 0000a020     0003          .WORD   SHOW_2                  ;USE LINE 2 WHEN ONLY 1 WILL FIT
    3211 0000a030 000137b0"         .LONG   FRENCH1F5F
    3212 0000a050     0002          .WORD   2,0,10,0,5,20,0,2,1              ;1/3x1F        2/5F  5/10F
    3213 0000a0e0     0001          .WORD   1                               ;1 FRANC PER FRANC
    3214 0000a0f0     0000          .WORD   0                               ;DON'T DISPLAY COIN FRACTIONS
    3215 0000a100     0001          .WORD   1,0,5,0                  ;COIN VALUE
    3216 0000a140 0000dc90"         .LONG   NULL_ST,FRANC_TRAIL        ;CHARACTER STRINGS.
    3217 0000a180 00000001          .LONG   CSM_LIST                         ;WAIT TILL HE SAYS "IF IT IS NOT POSSIBLE"
    3218 0000a1a0 0000e740"         .LONG   FRENCH_11                       ;TITLE OF COIN MODE
    3219 0000a1c0 0000fb00"         .LONG   F13255                   ;1 COIN PER CREDIT (SERIES OF STRINGS)
    3220 0000a1e0     0004          .WORD   SHOW_3                  ;USE LINE 2 WHEN ONLY 1 WILL FIT
    3221 0000a1f0 000137b0"         .LONG   FRENCH1F5F
    3222                    
    3223 0000a210     0003          .WORD   3,0,15,0,5,30,0,2,1              ;1/2x1F        3/5F  7/10F
    3224 0000a2a0     0001          .WORD   1                               ;1 FRANC PER FRANC
    3225 0000a2b0     0000          .WORD   0                               ;DON'T DISPLAY COIN FRACTIONS
    3226 0000a2c0     0001          .WORD   1,0,5,0                  ;COIN VALUE
    3227 0000a300 0000dc90"         .LONG   NULL_ST,FRANC_TRAIL        ;CHARACTER STRINGS.
    3228 0000a340 00000001          .LONG   CSM_LIST                         ;WAIT TILL HE SAYS "IF IT IS NOT POSSIBLE"
    3229 0000a360 0000e790"         .LONG   FRENCH_12                       ;TITLE OF COIN MODE
    3230 0000a380 0000fbe0"         .LONG   F12355                   ;1 COIN PER CREDIT (SERIES OF STRINGS)
    3231 0000a3a0     0004          .WORD   SHOW_3                  ;USE LINE 2 WHEN ONLY 1 WILL FIT
    3232 0000a3b0 000137b0"         .LONG   FRENCH1F5F
    3233                    
    3234                            .ENDIF
    3235                    
    3236 0000a3d0     0001          .WORD   1,15,6,0,3,0,0,2,2      ; L,C,R,4,U/C,U/B,MINUNITS
    3237 0000a460     0001          .WORD   1                       ; COINS/DOLLAR
    3238 0000a470     0000          .WORD   0                       ;DON'T DISPLAY COIN FRACTIONS
    3239 0000a480     0001          .WORD   1,10,5,0                ; L,C,R,4
    3240 0000a4c0 0000dc90"         .LONG   NULL_ST,FRANC_TRAIL     ; CHARACTER STRINGS.
    3241 0000a500 00014840"         .LONG   FRANCE_ELECTRONIC       ; SPECIAL MESSAGE
    3242 0000a520 0000e1d0"         .LONG   FRENCH_ELECTITLE        ; TITLE OF COIN MODE
    3243 0000a540 0000fb00"         .LONG   F13255                  ;COIN PAGE DESCRIPTION
    3244 0000a560     0004          .WORD   SHOW_3                  ;THREE LINES FOR THIS BABY
    3245 0000a570 000133f0"         .LONG   FRANCE_ESLOT            ; QUARTER
    3246                    
    3247 0000a590     0001          .WORD   1,0,4,0,2,4,0,2,2    ;WILLY PRICING
    3248 0000a620     0004          .WORD   4                       ;4 COINS PER DOLLAR (FOR CALC)
    3249 0000a630     0001          .WORD   1                       ;DISPLAY COIN FRACTIONS
    3250 0000a640     0001          .WORD   1,0,4,0                 ;COIN VALUE
    3251 0000a680 0000dc20"         .LONG   DOLLAR_LEAD,NULL_ST     ;CHARACTER STRINGS.
    3252 0000a6c0 00000001          .LONG   CSM_LIST                ;PRINT THE 2 THE OP SEES
    3253 0000a6e0 0000e7e0"         .LONG   CANADA                  ;TITLE OF COIN MODE
    3254 0000a700 0000f600"         .LONG   CAN_1503D               ;1 PLAY 50, 3 FOR A DOLLAR
    3255 0000a720     0003          .WORD   SHOW_2                  ;SHOW LINE 2
    3256 0000a730 00013820"         .LONG   CAN_QD                  ;QUARTER
    3257                    
    3258                            .IF     FULLPRICE
    3259                    
TMS340 COFF Macro Assembler Version 6.10     Tue Dec 19 01:45:20 2023
 Copyright (c) 1985-1991  Texas Instruments Incorporated 

test menus                                                           PAGE   71

    3260                    
    3261 0000a750     0006          .WORD   6,0,30,0,5,0,0,2,2               ;WILLY PRICING
    3262 0000a7e0     0001          .WORD   1                               ;FRANCS HAVE NO FRACTIONS
    3263 0000a7f0     0000          .WORD   0                               ;DON'T DISPLAY COIN FRACTIO
    3264 0000a800     0001          .WORD   1,0,5,0                  ;COIN VALUE
    3265 0000a840 0000dc90"         .LONG   NULL_ST,FRANC_TRAIL              ;CHARACTER STRINGS.
    3266 0000a880 00000001          .LONG   CSM_LIST
    3267 0000a8a0 0000e820"         .LONG   SWISS_1                 ;TITLE OF COIN MODE
    3268 0000a8c0 0000f5a0"         .LONG   SFRANC_6                         ;1 COIN PER CREDIT (SERIES
    3269 0000a8e0     0003          .WORD   SHOW_2
    3270 0000a8f0 000138d0"         .LONG   SWISS15
    3271                    
    3272                    
    3273 0000a910     0006          .WORD   6,0,30,0,5,30,0,2,2             ;WILLY PRICING
    3274 0000a9a0     0001          .WORD   1                               ;FRANCS HAVE NO FRACTIONS
    3275 0000a9b0     0000          .WORD   0                               ;DON'T DISPLAY COIN FRACTIO
    3276 0000a9c0     0001          .WORD   1,0,5,0                  ;COIN VALUE
    3277 0000aa00 0000dc90"         .LONG   NULL_ST,FRANC_TRAIL              ;CHARACTER STRINGS.
    3278 0000aa40 00000001          .LONG   CSM_LIST
    3279 0000aa60 0000e860"         .LONG   SWISS_2                 ;TITLE OF COIN MODE
    3280 0000aa80 0000f660"         .LONG   SFRANC_7                         ;1 COIN PER CREDIT (SERIES
    3281 0000aaa0     0003          .WORD   SHOW_2
    3282 0000aab0 000138d0"         .LONG   SWISS15
    3283                    
    3284                    
    3285 0000aad0     0007          .WORD   7,0,35,0,5,35,0,2,2             ;WILLY PRICING
    3286 0000ab60     0001          .WORD   1                               ;FRANCS HAVE NO FRACTIONS
    3287 0000ab70     0000          .WORD   0                               ;DON'T DISPLAY COIN FRACTIO
    3288 0000ab80     0001          .WORD   1,0,5,0                         ;COIN VALUE
    3289 0000abc0 0000dc90"         .LONG   NULL_ST,FRANC_TRAIL             ;CHARACTER STRINGS.
    3290 0000ac00 00000001          .LONG   CSM_LIST
    3291 0000ac20 0000e8a0"         .LONG   SWISS_3                         ;TITLE OF COIN MODE
    3292 0000ac40 0000f6c0"         .LONG   SFRANC_8                        ;1 COIN PER CREDIT (SERIES
    3293 0000ac60     0003          .WORD   SHOW_2
    3294 0000ac70 000138d0"         .LONG   SWISS15
    3295                    
    3296                    
    3297 0000ac90     0001          .WORD   1,0,1,0,1,0,0,2,2               ;WILLY PRICING
    3298 0000ad20     0001          .WORD   1                               ;LIRE HAVE NO FRACTIONS
    3299 0000ad30     0000          .WORD   0                               ;DON'T DISPLAY COIN FRACTIO
    3300 0000ad40     01f4          .WORD   500,0,500,0                      ;COIN VALUE
    3301 0000ad80 0000dc90"         .LONG   NULL_ST,LIRE_TRAIL               ;CHARACTER STRINGS.
    3302 0000adc0 00000001          .LONG   CSM_LIST
    3303 0000ade0 0000e8e0"         .LONG   ITALY_1                 ;TITLE OF COIN MODE
    3304 0000ae00 0000fc60"         .LONG   P1500L                  ;1 COIN PER CREDIT (SERIES OF ST
    3305 0000ae20     0002          .WORD   SHOW_1
    3306 0000ae30 00013940"         .LONG   ITALYLIRE
    3307                    
    3308                    
    3309 0000ae50     0006          .WORD   6,0,15,0,5,0,0,2,2      ;WILLY PRICING
    3310 0000aee0     000a          .WORD   10                      ;PENCE ARE FRACTIONS!
    3311 0000aef0     0000          .WORD   0                       ;DON'T DISPLAY COIN FRACTIO
    3312 0000af00     0002          .WORD   2,0,5,0                 ;COIN VALUE
    3313 0000af40 0000dc90"         .LONG   NULL_ST,POUND_TRAIL     ;CHARACTER STRINGS.
    3314 0000af80 00000001          .LONG   CSM_LIST
TMS340 COFF Macro Assembler Version 6.10     Tue Dec 19 01:45:20 2023
 Copyright (c) 1985-1991  Texas Instruments Incorporated 

test menus                                                           PAGE   72

    3315 0000afa0 0000e910"         .LONG   UK_1                    ;TITLE OF COIN MODE
    3316 0000afc0 0000fca0"         .LONG   UK_120                  ;1 COIN PER CREDIT (SERIES OF ST
    3317 0000afe0     0003          .WORD   SHOW_2
    3318 0000aff0 00013a00"         .LONG   UK2050
    3319                    
    3320                    
    3321 0000b010     0002          .WORD   2,0,5,0,1,0,0,2,2                  ;WILLY PRICING
    3322 0000b0a0     000a          .WORD   10                          ;PENCE ARE FRACTIONS!
    3323 0000b0b0     0000          .WORD   0                               ;DON'T DISPLAY COIN FRACTIO
    3324 0000b0c0     0002          .WORD   2,0,5,0                  ;COIN VALUE
    3325 0000b100 0000dc90"         .LONG   NULL_ST,POUND_TRAIL     ;CHARACTER STRINGS.
    3326 0000b140 00000001          .LONG   CSM_LIST
    3327 0000b160 0000e950"         .LONG   UK_2                      ;TITLE OF COIN MODE
    3328 0000b180 0000fd00"         .LONG   UK_220                  ;1 COIN PER CREDIT (SERIES OF ST
    3329 0000b1a0     0002          .WORD   SHOW_1
    3330 0000b1b0 00013a00"         .LONG   UK2050
    3331                    
    3332                    
    3333                    
    3334 0000b1d0     001c          .WORD   28, 4, 12, 2,  4,  0,0,2,2              ;NUMBERS FOR 1L/20p/50p/10p
    3335 0000b260     000a          .WORD   10                                      ;PENCE SUCK!
    3336 0000b270     0000          .WORD   0                                       ;DON'T DISPLAY COIN FRACTIO
    3337 0000b280     000a          .WORD   10,2,5,1                                ;COIN VALUE
    3338 0000b2c0 0000dc90"         .LONG   NULL_ST,POUND_TRAIL     ;CHARACTER STRINGS.
    3339 0000b300 00014d50"         .LONG   UK_ELECTRONIC                           ;SPECIAL TITLE W/ POUND
    3340 0000b320 0000e990"         .LONG   UK_3                                    ;TITLE OF COIN MODE
    3341 0000b340 0000fde0"         .LONG   UK_420                                  ;.5/10p 1/20p   3/50p  7/1L
    3342 0000b360     0003          .WORD   SHOW_2
    3343 0000b370 00013a80"         .LONG   UK_ELEC
    3344                    
    3345                    
    3346                    
    3347                    
    3348                    
    3349 0000b390     0001          .WORD   1,0,0,0,1,0,0,2,2                  ;NUMBERS FOR
    3350 0000b420     0001          .WORD   1                               ;PENCE ARE FRACTIONS!
    3351 0000b430     0000          .WORD   0                               ;DON'T DISPLAY COIN FRACTIO
    3352 0000b440     0001          .WORD   1,0,0,0                  ;COIN VALUE
    3353 0000b480 0000dc90"         .LONG   NULL_ST,COINS_TRAIL        ;CHARACTER STRINGS.
    3354 0000b4c0 00014d50"         .LONG   UK_ELECTRONIC            ;SPECIAL TITLE W/ POUND
    3355 0000b4e0 0000e9e0"         .LONG   UK_4                      ;TITLE OF COIN MODE
    3356 0000b500 0000fd60"         .LONG   UK_320                  ;1/30P  2/50P   4/1L
    3357 0000b520     0003          .WORD   SHOW_2
    3358 0000b530 00013b30"         .LONG   UK_CCU
    3359                    
    3360                    
    3361                    
    3362 0000b550     0001          .WORD   1,0,5,0,1,5,0,2,2               ;WILLY PRICING
    3363 0000b5e0     0001          .WORD   1                               ;no fractions
    3364 0000b5f0     0000          .WORD   0                               ;DON'T DISPLAY COIN FRACTIO
    3365 0000b600     0064          .WORD   100,0,500,0                     ;COIN VALUE
    3366 0000b640 0000dc90"         .LONG   NULL_ST,PESETA_TRAIL            ;CHARACTER STRINGS.
    3367 0000b680 00000001          .LONG   CSM_LIST
    3368 0000b6a0 0000ea60"         .LONG   SP_1                            ;TITLE OF COIN MODE
    3369 0000b6c0 0000fec0"         .LONG   SP_5100                         ;1 COIN PER CREDIT (SERIES OF ST
TMS340 COFF Macro Assembler Version 6.10     Tue Dec 19 01:45:20 2023
 Copyright (c) 1985-1991  Texas Instruments Incorporated 

test menus                                                           PAGE   73

    3370 0000b6e0     0003          .WORD   SHOW_2
    3371 0000b6f0 00013be0"         .LONG   PESETA100
    3372                    
    3373                    
    3374                    
    3375 0000b710     0001          .WORD   1,0,5,0,1,0,0,2,2                  ;WILLY PRICING
    3376 0000b7a0     0001          .WORD   1                               ;no fractions
    3377 0000b7b0     0000          .WORD   0                               ;DON'T DISPLAY COIN FRACTIO
    3378 0000b7c0     0064          .WORD   100,0,500,0                      ;COIN VALUE
    3379 0000b800 0000dc90"         .LONG   NULL_ST,PESETA_TRAIL      ;CHARACTER STRINGS.
    3380 0000b840 00000001          .LONG   CSM_LIST
    3381 0000b860 0000eaa0"         .LONG   SP_2                      ;TITLE OF COIN MODE
    3382 0000b880 0000fe60"         .LONG   SP_4100                 ;1 COIN PER CREDIT (SERIES OF ST
    3383 0000b8a0     0003          .WORD   SHOW_2
    3384 0000b8b0 00013be0"         .LONG   PESETA100
    3385                    
    3386                    
    3387                    
    3388 0000b8d0     0002          .WORD   2,0,10,0,5,0,0,2,2                ;WILLY PRICING
    3389 0000b960     0005          .WORD   5                               ;DOLLARS
    3390 0000b970     0000          .WORD   0                               ;DON'T SHOW FRACTIONS FOR T
    3391 0000b980     0001          .WORD   1,0,5,0                  ;COIN VALUE
    3392 0000b9c0 0000dc20"         .LONG   DOLLAR_LEAD,NULL_ST       ;CHARACTER STRINGS.
    3393 0000ba00 00000001          .LONG   CSM_LIST
    3394 0000ba20 0000eae0"         .LONG   AUS_1                    ;TITLE OF COIN MODE
    3395 0000ba40 0000ff20"         .LONG   AU_60                    ;1 COIN PER CREDIT (SERIES OF S
    3396 0000ba60     0003          .WORD   SHOW_2
    3397 0000ba70 00013cb0"         .LONG   AUST20C
    3398 0000ba90     0001          .WORD   1,0,5,0,5,0,0,1,1        ; WILLY PRICING
    3399 0000bb20     0005          .WORD   5                        ; DOLLARS
    3400 0000bb30     0001          .WORD   1                        ; SHOW FRACTIONS FOR THE 3 C
    3401 0000bb40     0001          .WORD   1,0,5,0                  ; COIN VALUE
    3402 0000bb80 0000dc20"         .LONG   DOLLAR_LEAD,NULL_ST      ; CHARACTER STRINGS.
    3403 0000bbc0 00000001          .LONG   CSM_LIST
    3404 0000bbe0 0000eb40"         .LONG   AUS_2                    ; TITLE OF COIN MODE
    3405 0000bc00 0000ff80"         .LONG   AU_100                   ; 1 COIN PER CREDIT (SERIES OF ST
    3406 0000bc20     0003          .WORD   SHOW_2
    3407 0000bc30 00013cb0"         .LONG   AUST20C
    3408                    
    3409                            .ENDIF
    3410                    
    3411                    
    3412 0000bc50     0001          .WORD   1,1,1,0,1,0,0,2,2                  ;WILLY PRICING
    3413 0000bce0     0001          .WORD   1                               ;DOLLARS
    3414 0000bcf0     0001          .WORD   1                               ;FRACTIONS OK
    3415 0000bd00     0064          .WORD   100,100,100,0              ;COIN VALUE
    3416 0000bd40 0000dc90"         .LONG   NULL_ST,YEN_TRAIL               ;CHARACTER STRINGS.
    3417 0000bd80 00000001          .LONG   CSM_LIST
    3418 0000bda0 0000eba0"         .LONG   JAP_1                    ;TITLE OF COIN MODE
    3419 0000bdc0 0000ffe0"         .LONG   JAP_100                 ;1 COIN PER CREDIT (SERIES OF ST
    3420 0000bde0     0002          .WORD   SHOW_1
    3421 0000bdf0 00013d60"         .LONG   YEN100
    3422                    
    3423                            .IF     FULLPRICE
    3424                    
TMS340 COFF Macro Assembler Version 6.10     Tue Dec 19 01:45:20 2023
 Copyright (c) 1985-1991  Texas Instruments Incorporated 

test menus                                                           PAGE   74

    3425 0000be10     0002          .WORD   2,2,2,0,1,0,0,2,2                  ;WILLY PRICING
    3426 0000bea0     0001          .WORD   1                               ;DOLLARS
    3427 0000beb0     0001          .WORD   1                               ;FRACTIONS OK
    3428 0000bec0     0064          .WORD   100,100,100,0              ;COIN VALUE
    3429 0000bf00 0000dc90"         .LONG   NULL_ST,YEN_TRAIL               ;CHARACTER STRINGS.
    3430 0000bf40 00000001          .LONG   CSM_LIST
    3431 0000bf60 0000ebe0"         .LONG   JAP_2                    ;TITLE OF COIN MODE
    3432 0000bf80 00010020"         .LONG   JAP_200                 ;1 COIN PER CREDIT (SERIES OF ST
    3433 0000bfa0     0002          .WORD   SHOW_1
    3434 0000bfb0 00013d60"         .LONG   YEN100
    3435                    
    3436                    
    3437 0000bfd0     0001          .WORD   1,0,2,0,1,0,0,2,2                  ;WILLY PRICING
    3438 0000c060     0001          .WORD   1                               ;DOLLARS
    3439 0000c070     0001          .WORD   1                               ;FRACTIONS OK
    3440 0000c080     0005          .WORD   5,0,10,0                        ;COIN VALUE
    3441 0000c0c0 0000dc90"         .LONG   NULL_ST,SHILL_TRAIL        ;CHARACTER STRINGS.
    3442 0000c100 00000001          .LONG   CSM_LIST
    3443 0000c120 0000ec20"         .LONG   ASTA_1                   ;TITLE OF COIN MODE
    3444 0000c140 000100c0"         .LONG   ASTA_15                 ;1 COIN PER CREDIT (SERIES OF ST
    3445 0000c160     0002          .WORD   SHOW_1
    3446 0000c170 00013e10"         .LONG   SHILL510
    3447                    
    3448                    
    3449 0000c190     0001          .WORD   1,0,2,0,2,4,0,2,2                  ;WILLY PRICING
    3450 0000c220     0001          .WORD   1                               ;DOLLARS
    3451 0000c230     0001          .WORD   1                               ;FRACTIONS OK
    3452 0000c240     0005          .WORD   5,0,10,0                        ;COIN VALUE
    3453 0000c280 0000dc90"         .LONG   NULL_ST,SHILL_TRAIL        ;CHARACTER STRINGS.
    3454 0000c2c0 00000001          .LONG   CSM_LIST
    3455 0000c2e0 0000ec70"         .LONG   ASTA_2                   ;TITLE OF COIN MODE
    3456 0000c300 00010060"         .LONG   ASTA_10                 ;1 COIN PER CREDIT (SERIES OF ST
    3457 0000c320     0003          .WORD   SHOW_2
    3458 0000c330 00013e10"         .LONG   SHILL510
    3459                    
    3460                    
    3461 0000c350     0001          .WORD   1,0,1,0,1,0,0,2,2                  ;WILLY PRICING
    3462 0000c3e0     0001          .WORD   1                               ;DOLLARS
    3463 0000c3f0     0001          .WORD   1                               ;FRACTIONS OK
    3464 0000c400     0014          .WORD   20,0,20,0                        ;COIN VALUE
    3465 0000c440 0000dc90"         .LONG   NULL_ST,FRANC_TRAIL        ;CHARACTER STRINGS.
    3466 0000c480 00000001          .LONG   CSM_LIST
    3467 0000c4a0 0000ecc0"         .LONG   BEL_1                    ;TITLE OF COIN MODE
    3468 0000c4c0 00010120"         .LONG   BEL_120                 ;1 COIN PER CREDIT (SERIES OF ST
    3469 0000c4e0     0002          .WORD   SHOW_1
    3470 0000c4f0 00013ef0"         .LONG   FRANC20
    3471                    
    3472                    
    3473 0000c510     0003          .WORD   3,0,3,0,1,0,0,2,2                  ;WILLY PRICING
    3474 0000c5a0     0001          .WORD   1                               ;DOLLARS
    3475 0000c5b0     0001          .WORD   1                               ;FRACTIONS OK
    3476 0000c5c0     0014          .WORD   20,0,20,0                        ;COIN VALUE
    3477 0000c600 0000dc90"         .LONG   NULL_ST,FRANC_TRAIL        ;CHARACTER STRINGS.
    3478 0000c640 00000001          .LONG   CSM_LIST
    3479 0000c660 0000ed10"         .LONG   BEL_2                    ;TITLE OF COIN MODE
TMS340 COFF Macro Assembler Version 6.10     Tue Dec 19 01:45:20 2023
 Copyright (c) 1985-1991  Texas Instruments Incorporated 

test menus                                                           PAGE   75

    3480 0000c680 000101a0"         .LONG   BEL_320                 ;1 COIN PER CREDIT (SERIES OF ST
    3481 0000c6a0     0002          .WORD   SHOW_1
    3482 0000c6b0 00013ef0"         .LONG   FRANC20
    3483                    
    3484                    
    3485 0000c6d0     0002          .WORD   2,0,2,0,1,0,0,2,2                  ;WILLY PRICING
    3486 0000c760     0001          .WORD   1                               ;DOLLARS
    3487 0000c770     0001          .WORD   1                               ;FRACTIONS OK
    3488 0000c780     0014          .WORD   20,0,20,0                        ;COIN VALUE
    3489 0000c7c0 0000dc90"         .LONG   NULL_ST,FRANC_TRAIL        ;CHARACTER STRINGS.
    3490 0000c800 00000001          .LONG   CSM_LIST
    3491 0000c820 0000ed60"         .LONG   BEL_3                    ;TITLE OF COIN MODE
    3492 0000c840 00010160"         .LONG   BEL_220                 ;1 COIN PER CREDIT (SERIES OF ST
    3493 0000c860     0002          .WORD   SHOW_1
    3494 0000c870 00013ef0"         .LONG   FRANC20
    3495                    
    3496 0000c890     000a          .WORD   10,1,4,0,4,0,0,2,2              ; L,C,R,4,U/C,U/B,MINUNITS
    3497 0000c920     0001          .WORD   1                       ; COINS/DOLLAR
    3498 0000c930     0001          .WORD   1                       ; DISPLAY FRACTIONS
    3499 0000c940     0032          .WORD   50,5,20,0               ; L,C,R,4
    3500 0000c980 0000dc90"         .LONG   NULL_ST,FRANC_TRAIL              ;CHARACTER STRINGS.
    3501 0000c9c0 00014c20"         .LONG   BELGIUM_ELECTRONIC              ; SPECIAL MESSAGE
    3502 0000c9e0 0000edb0"         .LONG   BELGIUM_ELECTITLE               ; TITLE OF COIN MODE
    3503 0000ca00 000101e0"         .LONG   BEL_ELEC                        ; SETTINGS DESCRIPTION
    3504 0000ca20     0003          .WORD   SHOW_2                  ; LINES TO SHOW ON
    3505 0000ca30 000134b0"         .LONG   BELGIUM_ESLOT           ; QUARTER
    3506                    
    3507                    
    3508 0000ca50     0002          .WORD   2,0,10,0,5,0,0,2,2               ;WILLY PRICING
    3509 0000cae0     0001          .WORD   1                               ;DOLLARS
    3510 0000caf0     0000          .WORD   0                               ;DON'T SHOW FRACTIONS
    3511 0000cb00     0001          .WORD   1,0,5,0                  ;COIN VALUE
    3512 0000cb40 0000dc90"         .LONG   NULL_ST,KRONA_TRAIL        ;CHARACTER STRINGS.
    3513 0000cb80 00000001          .LONG   CSM_LIST
    3514 0000cba0 0000ee10"         .LONG   SWED_1                  ;TITLE OF COIN MODE
    3515 0000cbc0 00010220"         .LONG   SWED_2X5                         ;1 COIN PER CREDIT (SERIES
    3516 0000cbe0     0002          .WORD   SHOW_1
    3517 0000cbf0 00013f70"         .LONG   KRONA5
    3518                    
    3519                    
    3520 0000cc10     0001          .WORD   1,0,1,0,3,0,0,1,1                  ;WILLY PRICING
    3521 0000cca0     0005          .WORD   5                               ;FIVE PER
    3522 0000ccb0     0001          .WORD   1                               ;SHOW FRACTIONS
    3523 0000ccc0     0001          .WORD   1,0,1,0                  ;COIN VALUE
    3524 0000cd00 0000dc20"         .LONG   DOLLAR_LEAD,NULL_ST       ;CHARACTER STRINGS.
    3525 0000cd40 00000001          .LONG   CSM_LIST
    3526 0000cd60 0000ee50"         .LONG   NZ_1                      ;TITLE OF COIN MODE
    3527 0000cd80 000102c0"         .LONG   NZ_13                    ;1 COIN PER CREDIT (SERIES OF S
    3528 0000cda0     0002          .WORD   SHOW_1
    3529 0000cdb0 00014020"         .LONG   NZ20
    3530                    
    3531                    
    3532                    
    3533 0000cdd0     0001          .WORD   1,0,1,0,2,0,0,1,1                  ;WILLY PRICING
    3534 0000ce60     0005          .WORD   5                               ;FIVE PER
TMS340 COFF Macro Assembler Version 6.10     Tue Dec 19 01:45:20 2023
 Copyright (c) 1985-1991  Texas Instruments Incorporated 

test menus                                                           PAGE   76

    3535 0000ce70     0001          .WORD   1                               ;SHOW FRACTIONS
    3536 0000ce80     0001          .WORD   1,0,1,0                  ;COIN VALUE
    3537 0000cec0 0000dc20"         .LONG   DOLLAR_LEAD,NULL_ST       ;CHARACTER STRINGS.
    3538 0000cf00 00000001          .LONG   CSM_LIST
    3539 0000cf20 0000eec0"         .LONG   NZ_2                      ;TITLE OF COIN MODE
    3540 0000cf40 00010280"         .LONG   NZ_12                    ;1 COIN PER CREDIT (SERIES OF S
    3541 0000cf60     0002          .WORD   SHOW_1
    3542 0000cf70 00014020"         .LONG   NZ20
    3543                    
    3544                    
    3545 0000cf90     0001          .WORD   1,0,3,0,1,0,0,2,2                  ;WILLY PRICING
    3546 0000d020     0001          .WORD   1                               ;FIVE PER
    3547 0000d030     0000          .WORD   0                               ;DON'T SHOW FRACTIONS
    3548 0000d040     0001          .WORD   1,0,2,0                  ;COIN VALUE
    3549 0000d080 0000dc90"         .LONG   NULL_ST,HFL_TRAIL               ;CHARACTER STRINGS.
    3550 0000d0c0 00000001          .LONG   CSM_LIST
    3551 0000d0e0 0000ef30"         .LONG   NETH                      ;TITLE OF COIN MODE
    3552 0000d100 00010300"         .LONG   NETH_HF                 ;1 COIN PER CREDIT (SERIES OF ST
    3553 0000d120     0003          .WORD   SHOW_2
    3554 0000d130 000140d0"         .LONG   HFSLOT
    3555                    
    3556                    
    3557                    
    3558 0000d150     0001          .WORD   1,0,1,0,1,0,0,2,2                  ;WILLY PRICING
    3559 0000d1e0     0001          .WORD   1                               ;FIVE PER
    3560 0000d1f0     0000          .WORD   0                               ;DON'T SHOW FRACTIONS
    3561 0000d200     0001          .WORD   1,0,1,0                  ;COIN VALUE
    3562 0000d240 0000dc90"         .LONG   NULL_ST,MARKKA_TRAIL      ;CHARACTER STRINGS.
    3563 0000d280 00000001          .LONG   CSM_LIST
    3564 0000d2a0 0000ef90"         .LONG   FINLAND                 ;TITLE OF COIN MODE
    3565 0000d2c0 00010360"         .LONG   FINMKA                  ;1 COIN PER CREDIT (SERIES OF ST
    3566 0000d2e0     0002          .WORD   SHOW_1
    3567 0000d2f0 00014160"         .LONG   MKSLOT
    3568                    
    3569                    
    3570 0000d310     0003          .WORD   3,0,3,0,5,0,0,2,2                  ;WILLY PRICING
    3571 0000d3a0     0001          .WORD   1                               ;FIVE PER
    3572 0000d3b0     0000          .WORD   0                               ;DON'T SHOW FRACTIONS
    3573 0000d3c0     0001          .WORD   1,0,1,0                  ;COIN VALUE
    3574 0000d400 0000dc90"         .LONG   NULL_ST,KRONE_TRAIL       ;CHARACTER STRINGS.
    3575 0000d440 00000001          .LONG   CSM_LIST
    3576 0000d460 0000efd0"         .LONG   NORWAY                  ;TITLE OF COIN MODE
    3577 0000d480 000103a0"         .LONG   KR_LIST                  ;1 COIN PER CREDIT (SERIES OF STRI
    3578 0000d4a0     0003          .WORD   SHOW_2
    3579 0000d4b0 00014220"         .LONG   NKRSLOT
    3580                    
    3581                    
    3582 0000d4d0     0003          .WORD   3,0,15,0,5,30,0,2,2              ;WILLY PRICING
    3583 0000d560     0001          .WORD   1                               ;FIVE PER
    3584 0000d570     0000          .WORD   0                               ;DON'T SHOW FRACTIONS
    3585 0000d580     0001          .WORD   1,0,5,0                  ;COIN VALUE
    3586 0000d5c0 0000dc90"         .LONG   NULL_ST,KRONE_TRAIL       ;CHARACTER STRINGS.
    3587 0000d600 00000001          .LONG   CSM_LIST
    3588 0000d620 0000f010"         .LONG   DENMARK                 ;TITLE OF COIN MODE
    3589 0000d640 00010400"         .LONG   DKR_LIST                         ;1 COIN PER CREDIT (SERIES
TMS340 COFF Macro Assembler Version 6.10     Tue Dec 19 01:45:20 2023
 Copyright (c) 1985-1991  Texas Instruments Incorporated 

test menus                                                           PAGE   77

    3590 0000d660     0004          .WORD   SHOW_3
    3591 0000d670 000142d0"         .LONG   DKRSLOT
    3592                    
    3593                    
    3594                    
    3595 0000d690     0001          .WORD   1,0,4,0,1,0,0,2,2                  ;WILLY PRICING
    3596 0000d720     0004          .WORD   4                               ;FIVE PER
    3597 0000d730     0000          .WORD   0                               ;DON'T SHOW FRACTIONS
    3598 0000d740     0001          .WORD   1,0,4,0                  ;COIN VALUE
    3599 0000d780 0000dc90"         .LONG   NULL_ST,GUILDER_TRAIL     ;CHARACTER STRINGS.
    3600 0000d7c0 00000001          .LONG   CSM_LIST
    3601 0000d7e0 0000f050"         .LONG   ANTILLES                         ;TITLE OF COIN MODE
    3602 0000d800 00010480"         .LONG   ANT_LIST                         ;1 COIN PER CREDIT (SERIES
    3603 0000d820     0002          .WORD   SHOW_1
    3604 0000d830 00014380"         .LONG   ANTSLOT
    3605                    
    3606                    
    3607 0000d850     0001          .WORD   1,0,2,0,2,4,0,2,2               ;WILLY PRICING
    3608 0000d8e0     0001          .WORD   1                               ;1 TO 1
    3609 0000d8f0     0000          .WORD   0                               ;DON'T SHOW FRACTIONS
    3610 0000d900     000a          .WORD   10,0,20,0                       ;COIN VALUE
    3611 0000d940 0000dc90"         .LONG   NULL_ST,FORINT_TRAIL            ;CHARACTER STRINGS.
    3612 0000d980 00000001          .LONG   CSM_LIST
    3613 0000d9a0 0000f0a0"         .LONG   HUNGARY                         ;TITLE OF COIN MODE
    3614 0000d9c0 000104e0"         .LONG   HUNG_LIST                        ;1 COIN PER CREDIT (SERIES
    3615 0000d9e0     0002          .WORD   SHOW_1
    3616 0000d9f0 00014440"         .LONG   HUNGSLOT
    3617                    
    3618                            .ENDIF
    3619                    
    3620              003a  CS_ENTS EQU     ($-CSELCT)/CS_SIZE          ;NUMBER OF ENTRIES IN TABLE
    3621                    
    3622                    
    3623                    
    3624              0001  USABASE EQU     1
    3625              000a  GERBASE EQU     G1SEL
    3626              0010  FRABASE EQU     F1SEL
    3627                    
    3628                            .IF     FULLPRICE
    3629                    
    3630 0000da10     0001  USADIP  .WORD   USABASE+0, USABASE+1, USABASE+2, USABASE+3, USABASE+8
    3631 0000da60     0009          .WORD   USABASE+8, USABASE+8
    3632                    
    3633 0000da80     000a  GERDIP  .WORD   GERBASE+0, GERBASE+1, GERBASE+2, GERBASE+3, GERBASE+4
    3634 0000dad0     000e          .WORD   GERBASE+4, GERBASE+4
    3635                    
    3636 0000daf0     0010  FRADIP  .WORD   FRABASE+0, FRABASE+1, FRABASE+2, FRABASE+3, FRABASE+12
    3637 0000db40     001c          .WORD   FRABASE+12, FRABASE+12
    3638                    
    3639                            .ELSE
    3640                    
    3641                    USADIP  .WORD   USABASE+0, USABASE+1, USABASE+2, USABASE+3, USABASE+4
    3642                            .WORD   USABASE+4, USABASE+4
    3643                    
    3644                    GERDIP  .WORD   GERBASE+0, GERBASE+1, GERBASE+2, GERBASE+3, GERBASE+4
TMS340 COFF Macro Assembler Version 6.10     Tue Dec 19 01:45:20 2023
 Copyright (c) 1985-1991  Texas Instruments Incorporated 

test menus                                                           PAGE   78

    3645                            .WORD   GERBASE+4, GERBASE+4
    3646                    
    3647                    FRADIP  .WORD   FRABASE+0, FRABASE+1, FRABASE+2, FRABASE+3, FRABASE+4
    3648                            .WORD   FRABASE+4, FRABASE+4
    3649                    
    3650                            .ENDIF
    3651                    
    3652                    
    3653 0000db60 0000da10" DIPCOINTAB      .LONG   USADIP, GERDIP, FRADIP, USADIP
    3654                    
    3655                    
    3656 0000dbe0       30  ME_ZERO  .STRING "0"
    3657 0000dbe8       00          .BYTE   0
    3658 0000dbf0                   .EVEN
    3659                    
    3660 0000dbf0       2d  ME_DASH         .string "-",0
    3661 0000dc00                   .even
    3662                    
    3663 0000dc00       2e  ME_DECIMAL      .STRING "."
    3664 0000dc08       00          .BYTE   0
    3665 0000dc10                   .EVEN
    3666                    
    3667 0000dc10       3a  ME_COLON .STRING ":"
    3668 0000dc18       00          .BYTE   0
    3669 0000dc20                   .EVEN
    3670                    
    3671 0000dc20       24  DOLLAR_LEAD     .STRING "$  "
    3672 0000dc38       00          .BYTE   0
    3673 0000dc40                   .EVEN
    3674                    
    3675 0000dc40           POUND_LEAD
    3676 0000dc40       82          .STRING FONT_EPOUND,"  ",0
    3677 0000dc60                   .EVEN
    3678 0000dc60           POUND_TRAIL
    3679 0000dc60       20          .STRING "  PND",0
    3680 0000dc90                   .EVEN
    3681                    
    3682 0000dc90           NULL_ST 
    3683 0000dc90       00          .BYTE   0
    3684 0000dca0                   .EVEN
    3685                    
    3686 0000dca0       20  DM_TRAIL        .STRING "  DM"
    3687 0000dcc0       00          .BYTE   0
    3688 0000dcd0                   .EVEN
    3689                    
    3690 0000dcd0       20  FRANC_TRAIL     .STRING "  FRANC"
    3691 0000dd08       00          .BYTE   0
    3692 0000dd10                   .EVEN
    3693                            
    3694                            .IF     FULLPRICE
    3695 0000dd10       20  LIRE_TRAIL      .STRING "  LIRE"
    3696 0000dd40       00          .BYTE   0
    3697 0000dd50                   .EVEN
    3698                    
    3699 0000dd50       20  PESETA_TRAIL    .STRING "  PESETA"
TMS340 COFF Macro Assembler Version 6.10     Tue Dec 19 01:45:20 2023
 Copyright (c) 1985-1991  Texas Instruments Incorporated 

test menus                                                           PAGE   79

    3700 0000dd90       00          .BYTE   0
    3701 0000dda0                   .EVEN
    3702                            .ENDIF
    3703                    
    3704 0000dda0           YEN_TRAIL
    3705 0000dda0       20          .STRING "  YEN"
    3706 0000ddc8       00          .BYTE   0
    3707 0000ddd0                   .EVEN
    3708                    
    3709                            .IF     FULLPRICE
    3710 0000ddd0           SHILL_TRAIL
    3711 0000ddd0       20          .STRING "  SCHILLINGS"
    3712 0000de30       00          .BYTE   0
    3713 0000de40                   .EVEN
    3714                    
    3715 0000de40           KRONA_TRAIL
    3716 0000de40       20          .STRING "  KRONA"
    3717 0000de78       00          .BYTE   0
    3718 0000de80                   .EVEN
    3719                            .ENDIF
    3720                    
    3721 0000de80           COINS_TRAIL
    3722 0000de80       20          .STRING "  COINS"
    3723 0000deb8       00          .BYTE   0
    3724 0000dec0                   .EVEN
    3725                    
    3726                            .IF     FULLPRICE
    3727 0000dec0           HFL_TRAIL
    3728 0000dec0       20          .STRING "  HFI."
    3729 0000def0       00          .BYTE   0
    3730 0000df00                   .EVEN
    3731                    
    3732 0000df00           MARKKA_TRAIL
    3733 0000df00       20          .STRING "  MARKKA"
    3734 0000df40       00          .BYTE   0
    3735 0000df50                   .EVEN
    3736                    
    3737 0000df50           KRONE_TRAIL
    3738 0000df50       20          .STRING "  KRONE"
    3739 0000df88       00          .BYTE 0
    3740 0000df90                   .EVEN
    3741                    
    3742 0000df90           GUILDER_TRAIL
    3743 0000df90       20          .STRING "  GUILDER"
    3744 0000dfd8       00          .BYTE 0
    3745 0000dfe0                   .EVEN
    3746                    
    3747 0000dfe0           FORINT_TRAIL
    3748 0000dfe0       20          .STRING "  FT",0
    3749                            .ENDIF
    3750                    
    3751 0000e008       55  USA_1   .STRING "USA 1",0
    3752 0000e040                   .EVEN
    3753 0000e040       55  USA_2   .STRING "USA 2",0
    3754 0000e070                   .EVEN
TMS340 COFF Macro Assembler Version 6.10     Tue Dec 19 01:45:20 2023
 Copyright (c) 1985-1991  Texas Instruments Incorporated 

test menus                                                           PAGE   80

    3755 0000e070       55  USA_3   .STRING "USA 3",0
    3756 0000e0a0                   .EVEN
    3757 0000e0a0       55  USA_4   .STRING "USA 4",0
    3758 0000e0d0                   .EVEN
    3759                    
    3760                            .IF     FULLPRICE
    3761 0000e0d0       55  USA_5   .STRING "USA 5",0
    3762 0000e100                   .EVEN
    3763 0000e100       55  USA_6   .STRING "USA 6",0
    3764 0000e130                   .EVEN
    3765 0000e130       55  USA_7   .STRING "USA 7",0
    3766 0000e160                   .EVEN
    3767 0000e160       55  USA_8   .STRING "USA 8",0
    3768 0000e190                   .EVEN
    3769                            .ENDIF
    3770                    
    3771 0000e190           USA_ELECTITLE
    3772 0000e190       55          .STRING "USA ECA",0
    3773 0000e1d0                   .EVEN
    3774                    
    3775 0000e1d0           FRENCH_ELECTITLE
    3776 0000e1d0       46          .STRING "FRANCE ECA",0
    3777 0000e230                   .EVEN
    3778                    
    3779 0000e230           GERMAN_ELECTITLE
    3780 0000e230       47          .STRING "GERMAN ECA",0
    3781 0000e290                   .EVEN
    3782                    
    3783                    
    3784 0000e290       47  GERMAN_1 .STRING "GERMAN 1",0
    3785 0000e2e0                   .EVEN
    3786 0000e2e0       47  GERMAN_2 .STRING "GERMAN 2",0
    3787 0000e330                   .EVEN
    3788 0000e330       47  GERMAN_3 .STRING "GERMAN 3",0
    3789 0000e380                   .EVEN
    3790 0000e380       47  GERMAN_4 .STRING "GERMAN 4",0
    3791 0000e3d0                   .EVEN
    3792 0000e3d0       47  GERMAN_5 .STRING "GERMAN 5",0
    3793 0000e420                   .EVEN
    3794                    
    3795 0000e420       46  FRENCH_1 .STRING "FRANCE 1",0
    3796 0000e470                   .EVEN
    3797 0000e470       46  FRENCH_2 .STRING "FRANCE 2",0
    3798 0000e4c0                   .EVEN
    3799 0000e4c0       46  FRENCH_3 .STRING "FRANCE 3",0
    3800 0000e510                   .EVEN
    3801 0000e510       46  FRENCH_4 .STRING "FRANCE 4",0
    3802 0000e560                   .EVEN
    3803                    
    3804                            .IF     FULLPRICE
    3805 0000e560       46  FRENCH_5 .STRING "FRANCE 5",0
    3806 0000e5b0                   .EVEN
    3807 0000e5b0       46  FRENCH_6 .STRING "FRANCE 6",0
    3808 0000e600                   .EVEN
    3809 0000e600       46  FRENCH_7 .STRING "FRANCE 7",0
TMS340 COFF Macro Assembler Version 6.10     Tue Dec 19 01:45:20 2023
 Copyright (c) 1985-1991  Texas Instruments Incorporated 

test menus                                                           PAGE   81

    3810 0000e650                   .EVEN
    3811 0000e650       46  FRENCH_8 .STRING "FRANCE 8",0
    3812 0000e6a0                   .EVEN
    3813 0000e6a0       46  FRENCH_9 .STRING "FRANCE 9",0
    3814 0000e6f0                   .EVEN
    3815 0000e6f0       46  FRENCH_10 .STRING "FRANCE 10",0
    3816 0000e740                   .EVEN
    3817 0000e740       46  FRENCH_11 .STRING "FRANCE 11",0
    3818 0000e790                   .EVEN
    3819 0000e790       46  FRENCH_12 .STRING "FRANCE 12",0
    3820 0000e7e0                   .EVEN
    3821                    
    3822 0000e7e0           CANADA
    3823 0000e7e0       43          .STRING "CANADA",0
    3824 0000e820                   .EVEN
    3825                    
    3826 0000e820       53  SWISS_1 .STRING "SWISS 1"
    3827 0000e858       00          .BYTE   0
    3828 0000e860                   .EVEN
    3829 0000e860       53  SWISS_2 .STRING "SWISS 2"
    3830 0000e898       00          .BYTE   0
    3831 0000e8a0                   .EVEN
    3832 0000e8a0       53  SWISS_3 .STRING "SWISS 3"
    3833 0000e8d8       00          .BYTE   0
    3834 0000e8e0                   .EVEN
    3835 0000e8e0       49  ITALY_1 .STRING "ITALY"
    3836 0000e908       00          .BYTE   0
    3837 0000e910                   .EVEN
    3838 0000e910       55  UK_1    .STRING "U.K. 1"
    3839 0000e940       00          .BYTE   0
    3840 0000e950                   .EVEN
    3841 0000e950       55  UK_2    .STRING "U.K. 2"
    3842 0000e980       00          .BYTE   0
    3843 0000e990                   .EVEN
    3844 0000e990       55  UK_3    .STRING "U.K. ECA"
    3845 0000e9d0       00          .BYTE   0
    3846 0000e9e0                   .EVEN
    3847 0000e9e0       55  UK_4    .STRING "U.K. ELEC W/CCU"
    3848 0000ea58       00          .BYTE   0
    3849 0000ea60                   .EVEN
    3850 0000ea60       53  SP_1    .STRING "SPAIN 1"
    3851 0000ea98       00          .BYTE   0
    3852 0000eaa0                   .EVEN
    3853 0000eaa0       53  SP_2    .STRING "SPAIN 2"
    3854 0000ead8       00          .BYTE   0
    3855 0000eae0                   .EVEN
    3856 0000eae0       41  AUS_1   .STRING "AUSTRALIA 1"
    3857 0000eb38       00          .BYTE   0
    3858 0000eb40                   .EVEN
    3859 0000eb40       41  AUS_2   .STRING "AUSTRALIA 2"
    3860 0000eb98       00          .BYTE   0
    3861 0000eba0                   .EVEN
    3862                            .ENDIF
    3863                    
    3864 0000eba0       4a  JAP_1   .STRING "JAPAN 1"
TMS340 COFF Macro Assembler Version 6.10     Tue Dec 19 01:45:20 2023
 Copyright (c) 1985-1991  Texas Instruments Incorporated 

test menus                                                           PAGE   82

    3865 0000ebd8       00          .BYTE   0
    3866 0000ebe0                   .EVEN
    3867                    
    3868                            .IF     FULLPRICE
    3869 0000ebe0       4a  JAP_2   .STRING "JAPAN 2"
    3870 0000ec18       00          .BYTE   0
    3871 0000ec20                   .EVEN
    3872 0000ec20       41  ASTA_1  .STRING "AUSTRIA 1"
    3873 0000ec68       00          .BYTE   0
    3874 0000ec70                   .EVEN
    3875 0000ec70       41  ASTA_2  .STRING "AUSTRIA 2"
    3876 0000ecb8       00          .BYTE   0
    3877 0000ecc0                   .EVEN
    3878 0000ecc0       42  BEL_1   .STRING "BELGIUM 1"
    3879 0000ed08       00          .BYTE   0
    3880 0000ed10                   .EVEN
    3881 0000ed10       42  BEL_2   .STRING "BELGIUM 2"
    3882 0000ed58       00          .BYTE   0
    3883 0000ed60                   .EVEN
    3884 0000ed60       42  BEL_3   .STRING "BELGIUM 3"
    3885 0000eda8       00          .BYTE   0
    3886 0000edb0                   .EVEN
    3887 0000edb0           BELGIUM_ELECTITLE
    3888 0000edb0       42          .STRING "BELGIUM ECA",0
    3889 0000ee10                   .EVEN
    3890 0000ee10       53  SWED_1  .STRING "SWEDEN"
    3891 0000ee40       00          .BYTE   0
    3892 0000ee50                   .EVEN
    3893 0000ee50       4e  NZ_1    .STRING "NEW ZEALAND 1"
    3894 0000eeb8       00          .BYTE   0
    3895 0000eec0                   .EVEN
    3896 0000eec0       4e  NZ_2    .STRING "NEW ZEALAND 2"
    3897 0000ef28       00          .BYTE   0
    3898 0000ef30                   .EVEN
    3899 0000ef30       4e  NETH    .STRING "NETHERLANDS"
    3900 0000ef88       00          .BYTE   0
    3901 0000ef90                   .EVEN
    3902                    
    3903 0000ef90       46  FINLAND .STRING "FINLAND"
    3904 0000efc8       00          .BYTE 0
    3905 0000efd0                   .EVEN
    3906                    
    3907 0000efd0       4e  NORWAY  .STRING "NORWAY"
    3908 0000f000       00          .BYTE 0
    3909 0000f010                   .EVEN
    3910                    
    3911 0000f010       44  DENMARK .STRING "DENMARK"
    3912 0000f048       00          .BYTE 0
    3913 0000f050                   .EVEN
    3914                    
    3915 0000f050       41  ANTILLES .STRING "ANTILLES"
    3916 0000f090       00          .BYTE 0
    3917 0000f0a0                   .EVEN
    3918                    
    3919 0000f0a0           HUNGARY
TMS340 COFF Macro Assembler Version 6.10     Tue Dec 19 01:45:20 2023
 Copyright (c) 1985-1991  Texas Instruments Incorporated 

test menus                                                           PAGE   83

    3920 0000f0a0       48          .STRING "HUNGARY",0
    3921 0000f0e0                   .EVEN
    3922                    
    3923                            .ENDIF
    3924 0000f0e0           USA_EL
    3925 0000f0e0 00010540"         .LONG   EC1
    3926 0000f100 00010a30"         .LONG   DOLL4
    3927 0000f120 00000000          .LONG   0
    3928 0000f140           Q_Q
    3929 0000f140 000105e0"         .LONG   C11              ;THIS POINTS AT MESSAGE
    3930 0000f160 00000000          .LONG   0                  ;THIS ENDS LIST
    3931 0000f180           F_F_1S1C
    3932 0000f180 00010670"         .LONG   C21
    3933 0000f1a0 00000000          .LONG   0
    3934                    
    3935                    
    3936                    
    3937 0000f1c0 00010670" DOLLAR_3 .LONG  C21
    3938 0000f1e0 00010710"         .LONG   C43
    3939 0000f200 00000000          .LONG   0
    3940 0000f220 00010670" DOLLAR_4 .LONG  C21
    3941 0000f240 000107b0"         .LONG   C44
    3942 0000f260 00000000          .LONG   0
    3943                    
    3944                    
    3945                    
    3946                    
    3947                            .IF     FULLPRICE
    3948                    
    3949 0000f280 000105e0" U1Q4D   .LONG   C11              ;THIS POINTS AT MESSAGE
    3950 0000f2a0 00010a30"         .LONG   DOLL4           ;4 FOR A DOLLAR
    3951 0000f2c0 00000000          .LONG   0
    3952                    
    3953                    
    3954 0000f2e0 00010670" UFS3D   .LONG   C21              ;THIS POINTS AT MESSAGE
    3955 0000f300 000109a0"         .LONG   DOLL3           ;3 FOR A DOLLAR
    3956 0000f320 00000000          .LONG   0
    3957                    
    3958 0000f340 00010670" UFS4D   .LONG   C21              ;THIS POINTS AT MESSAGE
    3959 0000f360 00010a30"         .LONG   DOLL4           ;4 FOR A DOLLAR
    3960 0000f380 00000000          .LONG   0
    3961                    
    3962                            .ENDIF
    3963                    
    3964 0000f3a0 00010ac0" DM_5    .LONG   DM11
    3965 0000f3c0 00010bd0"         .LONG   DM55
    3966 0000f3e0 00000000          .LONG   0
    3967                    
    3968 0000f400 00010ac0" DM_6    .LONG   DM11
    3969 0000f420 00010c60"         .LONG   DM65
    3970 0000f440 00000000          .LONG   0
    3971                    
    3972 0000f460 00010ac0" DM_7    .LONG   DM11
    3973 0000f480 00010cf0"         .LONG   DM75
    3974 0000f4a0 00000000          .LONG   0
TMS340 COFF Macro Assembler Version 6.10     Tue Dec 19 01:45:20 2023
 Copyright (c) 1985-1991  Texas Instruments Incorporated 

test menus                                                           PAGE   84

    3975                    
    3976 0000f4c0 00010ac0" DM_8    .LONG   DM11
    3977 0000f4e0 00010d80"         .LONG   DM85
    3978 0000f500 00000000          .LONG   0
    3979                    
    3980 0000f520           DM112265
    3981 0000f520 00010ac0"         .LONG   DM11
    3982 0000f540 00010b40"         .LONG   DM22
    3983 0000f560 00010c60"         .LONG   DM65
    3984 0000f580 00000000          .LONG   0
    3985                    
    3986 0000f5a0 00011670" SFRANC_6     .LONG   SFRANC11
    3987 0000f5c0 000116e0"         .LONG   SFRANC65
    3988 0000f5e0 00000000          .LONG   0
    3989                    
    3990 0000f600           CAN_1503D
    3991 0000f600 00010850"         .LONG   C15             ;THIS POINTS AT MESSAGE
    3992 0000f620 000109a0"         .LONG   DOLL3           ;3 FOR A DOLLAR
    3993 0000f640 00000000          .LONG   0
    3994                    
    3995 0000f660 00011670" SFRANC_7     .LONG   SFRANC11
    3996 0000f680 00011760"         .LONG   SFRANC75
    3997 0000f6a0 00000000          .LONG   0
    3998                    
    3999 0000f6c0 00011670" SFRANC_8     .LONG   SFRANC11
    4000 0000f6e0 000117e0"         .LONG   SFRANC85
    4001 0000f700 00000000          .LONG   0
    4002 0000f720 00010e90" FIVE_10 .LONG   F25
    4003 0000f740 00010f80"         .LONG   F510
    4004 0000f760 00000000          .LONG   0
    4005                    
    4006 0000f780           FIVE_10_11
    4007 0000f780 00010e90"         .LONG   F25
    4008 0000f7a0 00010f80"         .LONG   F510
    4009 0000f7c0 00011000"         .LONG   F1120
    4010 0000f7e0 00000000          .LONG   0
    4011                    
    4012 0000f800 00010e90" FOUR_10 .LONG   F25
    4013 0000f820 00011290"         .LONG   F410
    4014 0000f840 00000000          .LONG   0
    4015                    
    4016 0000f860           FOUR_10_9
    4017 0000f860 00010e90"         .LONG   F25
    4018 0000f880 00011290"         .LONG   F410
    4019 0000f8a0 000110b0"         .LONG   F4109
    4020 0000f8c0 00000000          .LONG   0
    4021                    
    4022 0000f8e0 00010f10" THREE_10 .LONG  F15
    4023 0000f900 00011310"         .LONG   F310
    4024 0000f920 00000000          .LONG   0
    4025                    
    4026 0000f940           THREE_10_7
    4027 0000f940 00010f10"         .LONG   F15
    4028 0000f960 00011310"         .LONG   F310
    4029 0000f980 00011150"         .LONG   F4107
TMS340 COFF Macro Assembler Version 6.10     Tue Dec 19 01:45:20 2023
 Copyright (c) 1985-1991  Texas Instruments Incorporated 

test menus                                                           PAGE   85

    4030 0000f9a0 00000000          .LONG   0
    4031                    
    4032 0000f9c0 00010f10" TWO_10  .LONG   F15
    4033 0000f9e0 00011390"         .LONG   F210
    4034 0000fa00 00000000          .LONG   0
    4035                    
    4036 0000fa20 00010f10" TWO_10_5 .LONG  F15
    4037 0000fa40 00011390"         .LONG   F210
    4038 0000fa60 000111f0"         .LONG   F4105
    4039 0000fa80 00000000          .LONG   0
    4040                    
    4041 0000faa0 00011410" F1325   .LONG   F3X1F
    4042 0000fac0 00010e90"         .LONG   F2F5
    4043 0000fae0 00000000          .LONG   0
    4044                    
    4045 0000fb00 00011410" F13255  .LONG   F3X1F
    4046 0000fb20 00010e90"         .LONG   F2F5
    4047 0000fb40 00011530"         .LONG   F52X5
    4048 0000fb60 00000000          .LONG   0
    4049                    
    4050 0000fb80 000114a0" F1235   .LONG   F2X1F
    4051 0000fba0 00010e10"         .LONG   F3F5
    4052 0000fbc0 00000000          .LONG   0
    4053                    
    4054 0000fbe0 000114a0" F12355  .LONG   F2X1F
    4055 0000fc00 00010e10"         .LONG   F3F5
    4056 0000fc20 000115d0"         .LONG   F72X5
    4057 0000fc40 00000000          .LONG   0
    4058                    
    4059                            .IF     FULLPRICE
    4060                    
    4061                    
    4062 0000fc60 00011860" P1500L  .LONG   P1500L_P
    4063 0000fc80 00000000          .LONG   0
    4064                    
    4065                    
    4066 0000fca0 00011900" UK_120  .LONG   UK_1201
    4067 0000fcc0 00011980"         .LONG   UK_1202
    4068 0000fce0 00000000          .LONG   0
    4069                    
    4070 0000fd00 00011a10" UK_220  .LONG   UK_2201
    4071 0000fd20 00011aa0"         .LONG   UK_2202
    4072 0000fd40 00000000          .LONG   0
    4073                    
    4074 0000fd60 00011b30" UK_320  .LONG   UK_3201
    4075 0000fd80 00011bb0"         .LONG   UK_3202
    4076 0000fda0 00011c40"         .LONG   UK_3203
    4077 0000fdc0 00000000          .LONG   0
    4078                    
    4079 0000fde0 00011cd0" UK_420  .LONG   UK_4201
    4080 0000fe00 00011d50"         .LONG   UK_4202
    4081 0000fe20 00011de0"         .LONG   UK_4203
    4082 0000fe40 00000000          .LONG   0
    4083                    
    4084 0000fe60 00011e70" SP_4100 .LONG   SP_11
TMS340 COFF Macro Assembler Version 6.10     Tue Dec 19 01:45:20 2023
 Copyright (c) 1985-1991  Texas Instruments Incorporated 

test menus                                                           PAGE   86

    4085 0000fe80 00011f20"         .LONG   SP_44
    4086 0000fea0 00000000          .LONG   0
    4087                    
    4088 0000fec0 00011e70" SP_5100 .LONG   SP_11
    4089 0000fee0 00011fe0"         .LONG   SP_54
    4090 0000ff00 00000000          .LONG   0
    4091                    
    4092 0000ff20 000120a0" AU_60   .LONG   AU_36
    4093 0000ff40 00012160"         .LONG   AU_2D
    4094 0000ff60 00000000          .LONG   0
    4095                    
    4096 0000ff80 00012200" AU_100  .LONG   AU_520
    4097 0000ffa0 000122c0"         .LONG   AU_1D
    4098 0000ffc0 00000000          .LONG   0
    4099                    
    4100                            .ENDIF
    4101                    
    4102 0000ffe0 00012350" JAP_100 .LONG   JAP_101
    4103 00010000 00000000          .LONG   0
    4104                    
    4105                            .IF     FULLPRICE
    4106                    
    4107 00010020 000123f0" JAP_200 .LONG   JAP_201
    4108 00010040 00000000          .LONG   0
    4109                    
    4110 00010060 00012490" ASTA_10 .LONG   ASTA101
    4111 00010080 00012570"         .LONG   ASTA102
    4112 000100a0 00000000          .LONG   0
    4113                    
    4114 000100c0 00012660" ASTA_15 .LONG   ASTA151
    4115 000100e0 00012720"         .LONG   ASTA152
    4116 00010100 00000000          .LONG   0
    4117                    
    4118 00010120 000127f0" BEL_120 .LONG   BEL_1201
    4119 00010140 00000000          .LONG   0
    4120 00010160 00012870" BEL_220 .LONG   BEL_2201
    4121 00010180 00000000          .LONG   0
    4122 000101a0 000128f0" BEL_320 .LONG   BEL_3201
    4123 000101c0 00000000          .LONG   0
    4124 000101e0           BEL_ELEC
    4125 000101e0 000127f0"         .LONG   BEL_1201
    4126 00010200 00000000          .LONG   0
    4127                    
    4128 00010220 00012970" SWED_2X5 .LONG  SWED_S51
    4129 00010240 00012a30"         .LONG   SWED_S52
    4130 00010260 00000000          .LONG   0
    4131                    
    4132 00010280 00012ad0" NZ_12   .LONG   NZ_121
    4133 000102a0 00000000          .LONG   0
    4134                    
    4135 000102c0 000120a0" NZ_13   .LONG   NZ_131
    4136 000102e0 00000000          .LONG   0
    4137                    
    4138 00010300 00012b90" NETH_HF .LONG   HF_11
    4139 00010320 00012c20"         .LONG   HF_32
TMS340 COFF Macro Assembler Version 6.10     Tue Dec 19 01:45:20 2023
 Copyright (c) 1985-1991  Texas Instruments Incorporated 

test menus                                                           PAGE   87

    4140 00010340 00000000          .LONG   0
    4141                    
    4142 00010360 00012cc0" FINMKA  .LONG   FIN_1
    4143 00010380 00000000          .LONG   0
    4144                    
    4145 000103a0 00012d60" KR_LIST .LONG   NOR_12
    4146 000103c0 00012e20"         .LONG   NOR_35
    4147 000103e0 00000000          .LONG   0
    4148                    
    4149 00010400 00012d60" DKR_LIST .LONG  DEN_12
    4150 00010420 00012ee0"         .LONG   DEN_35
    4151 00010440 00012f80"         .LONG   DEN_710
    4152 00010460 00000000          .LONG   0
    4153                    
    4154 00010480 00013040" ANT_LIST .LONG  ANT1P25
    4155 000104a0 000130e0"         .LONG   ANT4DOL
    4156 000104c0 00000000          .LONG   0
    4157                    
    4158 000104e0           HUNG_LIST
    4159 000104e0 00013190"         .LONG   HUNG2X10
    4160 00010500 00013260"         .LONG   HUNG2X20
    4161 00010520 00000000          .LONG   0
    4162                    
    4163                            .ENDIF
    4164                    
    4165 00010540       31  EC1     .STRING "1 CREDIT / 25 CENTS",0
    4166 000105e0                   .EVEN
    4167 000105e0       31  C11     .STRING  "1 CREDIT / 1 COIN"
    4168 00010668       00          .BYTE 0
    4169 00010670                   .EVEN
    4170 00010670       31  C21     .STRING  "1 CREDIT / 2 COINS"
    4171 00010700       00          .BYTE 0
    4172 00010710                   .EVEN
    4173 00010710       33  C43     .STRING  "3 CREDIT / 4 COINS"
    4174 000107a0       00          .BYTE 0
    4175 000107b0                   .EVEN
    4176 000107b0       34  C44     .STRING  "4 CREDITS / 4 COINS"
    4177 00010848       00          .BYTE 0
    4178 00010850                   .EVEN
    4179 00010850           C15
    4180 00010850       31          .STRING "1 CREDIT / 2 X 25 CENTS",0
    4181 00010910                   .EVEN
    4182                    
    4183 00010910       32  DOLL2   .STRING  "2 CREDITS / $1.00"
    4184 00010998       00          .BYTE 0
    4185 000109a0                   .EVEN
    4186                    
    4187 000109a0       33  DOLL3   .STRING  "3 CREDITS / $1.00"
    4188 00010a28       00          .BYTE 0
    4189 00010a30                   .EVEN
    4190                    
    4191 00010a30       34  DOLL4   .STRING  "4 CREDITS / $1.00"
    4192 00010ab8       00          .BYTE 0
    4193 00010ac0                   .EVEN
    4194                    
TMS340 COFF Macro Assembler Version 6.10     Tue Dec 19 01:45:20 2023
 Copyright (c) 1985-1991  Texas Instruments Incorporated 

test menus                                                           PAGE   88

    4195 00010ac0       31  DM11    .STRING  "1 CREDIT / 1 DM",0
    4196 00010b40                   .EVEN
    4197 00010b40       32  DM22    .STRING  "2 CREDITS / 2 DM",0
    4198 00010bd0                   .EVEN
    4199 00010bd0       35  DM55    .STRING  "5 CREDITS / 5 DM",0
    4200 00010c60                   .EVEN
    4201 00010c60       36  DM65    .STRING  "6 CREDITS / 5 DM",0
    4202 00010cf0                   .EVEN
    4203 00010cf0       37  DM75    .STRING  "7 CREDITS / 5 DM",0
    4204 00010d80                   .EVEN
    4205 00010d80       38  DM85    .STRING  "8 CREDITS / 5 DM",0
    4206 00010e10                   .EVEN
    4207                    
    4208 00010e10       33  F3F5    .STRING  "3 CREDITS / 5F"
    4209 00010e80       00          .BYTE 0
    4210 00010e90                   .EVEN
    4211 00010e90           F2F5
    4212 00010e90       32  F25     .STRING  "2 CREDITS / 5F"
    4213 00010f00       00          .BYTE 0
    4214 00010f10                   .EVEN
    4215 00010f10       31  F15     .STRING  "1 CREDIT / 5F"
    4216 00010f78       00          .BYTE 0
    4217 00010f80                   .EVEN
    4218 00010f80       35  F510    .STRING  "5 CREDITS / 10F"
    4219 00010ff8       00          .BYTE 0
    4220 00011000                   .EVEN
    4221 00011000       31  F1120   .STRING  "11 CREDITS / 2 X 10F"
    4222 000110a0       00          .BYTE 0
    4223 000110b0                   .EVEN
    4224 000110b0       39  F4109   .STRING  "9 CREDITS / 2 X 10F"
    4225 00011148       00          .BYTE 0
    4226 00011150                   .EVEN
    4227 00011150       37  F4107   .STRING  "7 CREDITS / 2 X 10F"
    4228 000111e8       00          .BYTE 0
    4229 000111f0                   .EVEN
    4230 000111f0       35  F4105   .STRING  "5 CREDITS / 2 X 10F"
    4231 00011288       00          .BYTE 0
    4232 00011290                   .EVEN
    4233 00011290       34  F410    .STRING  "4 CREDITS / 10F"
    4234 00011308       00          .BYTE 0
    4235 00011310                   .EVEN
    4236 00011310       33  F310    .STRING  "3 CREDITS / 10F"
    4237 00011388       00          .BYTE 0
    4238 00011390                   .EVEN
    4239 00011390       32  F210    .STRING  "2 CREDITS / 10F"
    4240 00011408       00          .BYTE 0
    4241 00011410                   .EVEN
    4242                    
    4243 00011410       31  F3X1F   .STRING  "1 CREDIT / 3 X 1F"
    4244 00011498       00          .BYTE   0
    4245 000114a0                   .EVEN
    4246                    
    4247 000114a0       31  F2X1F   .STRING  "1 CREDIT / 2 X 1F"
    4248 00011528       00          .BYTE   0
    4249 00011530                   .EVEN
TMS340 COFF Macro Assembler Version 6.10     Tue Dec 19 01:45:20 2023
 Copyright (c) 1985-1991  Texas Instruments Incorporated 

test menus                                                           PAGE   89

    4250                    
    4251 00011530       35  F52X5   .STRING  "5 CREDITS / 2 X 5F"
    4252 000115c0       00          .BYTE   0
    4253 000115d0                   .EVEN
    4254                    
    4255 000115d0       37  F72X5   .STRING  "7 CREDITS / 2 X 5F"
    4256 00011660       00          .BYTE   0
    4257 00011670                   .EVEN
    4258                    
    4259 00011670       31  SFRANC11     .STRING  "1 CREDIT / 1F"
    4260 000116d8       00          .BYTE 0
    4261 000116e0                   .EVEN
    4262 000116e0       36  SFRANC65     .STRING  "6 CREDITS / 5F"
    4263 00011750       00          .BYTE 0
    4264 00011760                   .EVEN
    4265 00011760       37  SFRANC75     .STRING  "7 CREDITS / 5F"
    4266 000117d0       00          .BYTE 0
    4267 000117e0                   .EVEN
    4268 000117e0       38  SFRANC85     .STRING  "8 CREDITS / 5F"
    4269 00011850       00          .BYTE 0
    4270 00011860                   .EVEN
    4271                    
    4272                            .IF     FULLPRICE
    4273 00011860       31  P1500L_P .STRING      "1 CREDIT / 500 LIRE"
    4274 000118f8       00          .BYTE 0
    4275 00011900                   .EVEN
    4276                    
    4277 00011900       31  UK_1201 .STRING "1 CREDIT / 20 P"
    4278 00011978       00          .BYTE 0
    4279 00011980                   .EVEN
    4280 00011980       33  UK_1202 .STRING "3 CREDITS / 50 P"
    4281 00011a00       00          .BYTE 0
    4282 00011a10                   .EVEN
    4283                    
    4284 00011a10       32  UK_2201 .STRING "2 CREDITS / 20 P"
    4285 00011a90       00          .BYTE 0
    4286 00011aa0                   .EVEN
    4287 00011aa0       35  UK_2202 .STRING "5 CREDITS / 50 P"
    4288 00011b20       00          .BYTE 0
    4289 00011b30                   .EVEN
    4290                    
    4291 00011b30       31  UK_3201 .STRING "1 CREDIT / 30 P"
    4292 00011ba8       00          .BYTE 0
    4293 00011bb0                   .EVEN
    4294 00011bb0       32  UK_3202 .STRING "2 CREDITS / 50 P"
    4295 00011c30       00          .BYTE 0
    4296 00011c40                   .EVEN
    4297 00011c40       34  UK_3203 .STRING "4 CREDITS / L1.00"
    4298 00011cc8       00          .BYTE 0
    4299 00011cd0                   .EVEN
    4300                    
    4301 00011cd0       31  UK_4201 .STRING "1 CREDIT / 20 P"
    4302 00011d48       00          .BYTE 0
    4303 00011d50                   .EVEN
    4304 00011d50       33  UK_4202 .STRING "3 CREDITS / 50 P"
TMS340 COFF Macro Assembler Version 6.10     Tue Dec 19 01:45:20 2023
 Copyright (c) 1985-1991  Texas Instruments Incorporated 

test menus                                                           PAGE   90

    4305 00011dd0       00          .BYTE 0
    4306 00011de0                   .EVEN
    4307 00011de0       37  UK_4203 .STRING "7 CREDITS / L1.00"
    4308 00011e68       00          .BYTE 0
    4309 00011e70                   .EVEN
    4310                    
    4311 00011e70       31  SP_11   .STRING "1 CREDIT / 100 PESETA"
    4312 00011f18       00          .BYTE   0
    4313 00011f20                   .EVEN
    4314                    
    4315 00011f20       35  SP_44   .STRING "5 CREDITS / 500 PESETA"
    4316 00011fd0       00          .BYTE   0
    4317 00011fe0                   .EVEN
    4318                    
    4319 00011fe0       36  SP_54   .STRING "6 CREDITS / 500 PESETA"
    4320 00012090       00          .BYTE   0
    4321 000120a0                   .EVEN
    4322 000120a0           NZ_131
    4323 000120a0       31  AU_36   .STRING "1 CREDIT / 3 X 20 CENTS"
    4324 00012158       00          .BYTE   0
    4325 00012160                   .EVEN
    4326 00012160       32  AU_2D   .STRING "2 CREDITS / $ 1.00"
    4327 000121f0       00          .BYTE   0
    4328 00012200                   .EVEN
    4329 00012200       31  AU_520  .STRING "1 CREDIT / 5 X 20 CENTS"
    4330 000122b8       00          .BYTE   0
    4331 000122c0                   .EVEN
    4332 000122c0       31  AU_1D   .STRING "1 CREDIT / $ 1.00"
    4333 00012348       00          .BYTE   0
    4334 00012350                   .EVEN
    4335                            .ENDIF
    4336                    
    4337 00012350       31  JAP_101 .STRING "1 CREDIT / 100 YEN"
    4338 000123e0       00          .BYTE   0
    4339 000123f0                   .EVEN
    4340                    
    4341                            .IF FULLPRICE
    4342                    
    4343 000123f0       32  JAP_201 .STRING "2 CREDITS / 100 YEN"
    4344 00012488       00          .BYTE   0
    4345 00012490                   .EVEN
    4346 00012490       31  ASTA101 .STRING "1 CREDIT / 2 X 5 SCHILLING"
    4347 00012560       00          .BYTE   0
    4348 00012570                   .EVEN
    4349 00012570       33  ASTA102 .STRING "3 CREDITS / 2 X 10 SCHILLING"
    4350 00012650       00          .BYTE   0
    4351 00012660                   .EVEN
    4352 00012660       31  ASTA151 .STRING "1 CREDIT / 5 SCHILLING"
    4353 00012710       00          .BYTE   0
    4354 00012720                   .EVEN
    4355 00012720       32  ASTA152 .STRING "2 CREDITS / 10 SCHILLING"
    4356 000127e0       00          .BYTE   0
    4357 000127f0                   .EVEN
    4358                    
    4359 000127f0       31  BEL_1201 .STRING        "1 CREDIT / 2OF"
TMS340 COFF Macro Assembler Version 6.10     Tue Dec 19 01:45:20 2023
 Copyright (c) 1985-1991  Texas Instruments Incorporated 

test menus                                                           PAGE   91

    4360 00012860       00          .BYTE   0
    4361 00012870                   .EVEN
    4362 00012870       32  BEL_2201 .STRING        "2 CREDITS / 2OF"
    4363 000128e8       00          .BYTE   0
    4364 000128f0                   .EVEN
    4365 000128f0       33  BEL_3201 .STRING        "3 CREDITS / 2OF"
    4366 00012968       00          .BYTE   0
    4367 00012970                   .EVEN
    4368                    
    4369 00012970       31  SWED_S51 .STRING        "1 CREDIT / 3 X 1 KRONA"
    4370 00012a20       00          .BYTE   0
    4371 00012a30                   .EVEN
    4372 00012a30       32  SWED_S52 .STRING        "2 CREDITS / 5 KRONA"
    4373 00012ac8       00          .BYTE   0
    4374 00012ad0                   .EVEN
    4375                    
    4376 00012ad0       31  NZ_121  .STRING "1 CREDIT / 2 X 20 CENTS"
    4377 00012b88       00          .BYTE   0
    4378 00012b90                   .EVEN
    4379                    
    4380 00012b90       31  HF_11   .STRING "1 CREDIT / 1 HFI"
    4381 00012c10       00          .BYTE   0
    4382 00012c20                   .EVEN
    4383                    
    4384 00012c20       33  HF_32   .STRING "3 CREDITS / 2.5 HFI"
    4385 00012cb8       00          .BYTE   0
    4386 00012cc0                   .EVEN
    4387                    
    4388 00012cc0       31  FIN_1   .STRING "1 CREDIT / 1 MARKKA"
    4389 00012d58       00          .BYTE   0
    4390 00012d60                   .EVEN
    4391                    
    4392 00012d60           DEN_12
    4393 00012d60       31  NOR_12  .STRING "1 CREDIT / 2 X 1 KRONE"
    4394 00012e10       00          .BYTE 0
    4395 00012e20                   .EVEN
    4396                    
    4397 00012e20       33  NOR_35  .STRING "3 CREDITS / 5 X 1 KRONE"
    4398 00012ed8       00          .BYTE 0
    4399 00012ee0                   .EVEN
    4400                    
    4401 00012ee0       33  DEN_35  .STRING "3 CREDITS / 5 KRONE"
    4402 00012f78       00          .BYTE 0
    4403 00012f80                   .EVEN
    4404                    
    4405 00012f80       37  DEN_710 .STRING "7 CREDITS / 2 X 5 KRONE"
    4406 00013038       00          .BYTE 0
    4407 00013040                   .EVEN
    4408                    
    4409 00013040       31  ANT1P25 .STRING "1 CREDIT / 25 CENTS"
    4410 000130d8       00          .BYTE 0
    4411 000130e0                   .EVEN
    4412                    
    4413 000130e0       34  ANT4DOL .STRING "4 CREDITS / 1 GUILDER"
    4414 00013188       00          .BYTE 0
TMS340 COFF Macro Assembler Version 6.10     Tue Dec 19 01:45:20 2023
 Copyright (c) 1985-1991  Texas Instruments Incorporated 

test menus                                                           PAGE   92

    4415 00013190                   .EVEN
    4416                    
    4417 00013190           HUNG2X10
    4418 00013190       31          .STRING "1 CREDIT / 2 X 10 FORINT",0
    4419 00013260                   .EVEN
    4420                    
    4421 00013260           HUNG2X20
    4422 00013260       33          .STRING "3 CREDITS / 2 X 20 FORINT",0
    4423 00013330                   .EVEN
    4424                    
    4425                            .ENDIF
    4426                    
    4427                    
    4428 00013330           USA_ESLOT       
    4429 00013330       31          .STRING "1 DOLLAR  10/25/5 CENT",0
    4430 000133f0                   .EVEN
    4431                    
    4432 000133f0           FRANCE_ESLOT
    4433 000133f0       31          .STRING "1/10/5 FRANCS",0
    4434 00013460                   .EVEN
    4435                    
    4436 00013460           GERMAN_ESLOT
    4437 00013460       35          .STRING "5/1/2 DM",0
    4438 000134b0                   .EVEN
    4439                    
    4440 000134b0           BELGIUM_ESLOT
    4441 000134b0       35          .STRING "50/5/20 FR",0
    4442 00013510                   .EVEN
    4443                    
    4444 00013510       32  USA_QQ      .STRING   "25 CENT       25 CENT"
    4445 000135b8       00              .BYTE 0
    4446 000135c0                       .EVEN
    4447                    
    4448                            .IF     FULLPRICE
    4449 000135c0           USA_QDQ
    4450 000135c0       32          .STRING   "25 CENT     $1.00     25 CENT",0
    4451 000136b0                   .EVEN
    4452                            .ENDIF
    4453                    
    4454 000136b0       31  GERMAN_15    .STRING   "1 DM      5 DM"
    4455 00013720       00              .BYTE 0
    4456 00013730                       .EVEN
    4457 00013730       35  FRENCH510    .STRING   "5 F       10 F"
    4458 000137a0       00              .BYTE 0
    4459 000137b0                       .EVEN
    4460 000137b0           FRENCH1F5F
    4461 000137b0       31          .STRING   "1 F       5 F",0
    4462 00013820                   .EVEN
    4463                    
    4464 00013820           CAN_QD
    4465 00013820       32          .STRING "25 CENT       $ 1.00",0
    4466 000138d0                   .EVEN
    4467                    
    4468                            .IF     FULLPRICE
    4469 000138d0       31  SWISS15     .STRING   "1 F       5 F"
TMS340 COFF Macro Assembler Version 6.10     Tue Dec 19 01:45:20 2023
 Copyright (c) 1985-1991  Texas Instruments Incorporated 

test menus                                                           PAGE   93

    4470 00013938       00              .BYTE 0
    4471 00013940                       .EVEN
    4472 00013940       35  ITALYLIRE    .STRING   "500 LIRE      500 LIRE"
    4473 000139f0       00              .BYTE 0
    4474 00013a00                       .EVEN
    4475 00013a00       32  UK2050      .STRING   "20 P      50 P"
    4476 00013a70       00              .BYTE 0
    4477 00013a80                       .EVEN
    4478 00013a80       4c  UK_ELEC     .STRING   "L1.00  20P  50P  10P"
    4479 00013b20       00              .BYTE 0
    4480 00013b30                       .EVEN
    4481 00013b30       43  UK_CCU      .STRING   "CCU ON LEFT SLOT    "
    4482 00013bd0       00              .BYTE 0
    4483 00013be0                       .EVEN
    4484 00013be0           PESETA100
    4485 00013be0       31          .STRING   "100 PESETA     500 PESETA",0
    4486 00013cb0                   .EVEN
    4487 00013cb0           AUST20C
    4488 00013cb0       32          .STRING   "20 CENT       $ 1.00",0
    4489 00013d60                   .EVEN
    4490                    
    4491                            .ENDIF
    4492                    
    4493 00013d60       31  YEN100      .STRING   "100 YEN       100 YEN"
    4494 00013e08       00              .BYTE 0
    4495 00013e10                       .EVEN
    4496                    
    4497                            .IF     FULLPRICE
    4498 00013e10       35  SHILL510     .STRING   "5 SCHILLING   10 SCHILLING"
    4499 00013ee0       00              .BYTE 0
    4500 00013ef0                       .EVEN
    4501 00013ef0       32  FRANC20     .STRING   "20 F      20 F"
    4502 00013f60       00              .BYTE 0
    4503 00013f70                       .EVEN
    4504 00013f70       31  KRONA5      .STRING   "1 KRONA       5 KRONA"
    4505 00014018       00              .BYTE 0
    4506 00014020                       .EVEN
    4507 00014020       32  NZ20    .STRING   "20 CENT       20 CENT"
    4508 000140c8       00              .BYTE 0
    4509 000140d0                       .EVEN
    4510 000140d0       31  HFSLOT      .STRING   "1 HFI     2.5 HFI"
    4511 00014158       00              .BYTE 0
    4512 00014160                       .EVEN
    4513                    
    4514 00014160       31  MKSLOT      .STRING   "1 MARKKA      1 MARKKA"
    4515 00014210       00              .BYTE 0
    4516 00014220                       .EVEN
    4517                    
    4518 00014220       31  NKRSLOT     .STRING   "1 KRONE       1 KRONE"
    4519 000142c8       00              .BYTE 0
    4520 000142d0                       .EVEN
    4521                    
    4522 000142d0       31  DKRSLOT     .STRING   "1 KRONE       5 KRONE"
    4523 00014378       00              .BYTE 0
    4524 00014380                       .EVEN
TMS340 COFF Macro Assembler Version 6.10     Tue Dec 19 01:45:20 2023
 Copyright (c) 1985-1991  Texas Instruments Incorporated 

test menus                                                           PAGE   94

    4525                    
    4526 00014380       32  ANTSLOT     .STRING   "25 CENTS      1 GUILDER"
    4527 00014438       00              .BYTE 0
    4528 00014440                       .EVEN
    4529                    
    4530 00014440           HUNGSLOT
    4531 00014440       31          .STRING "10 FORINT     20 FORINT",0
    4532 00014500                   .EVEN
    4533                    
    4534                            .ENDIF
    4535                    
    4536                    
    4537                    
    4538                    
    4539                    
    4540                    
    4541                    
    4542 00014500           OCOP    MESS_MAC  RD7FONT,SPACING07,CP_CX,CP_11,ROBO_YELLOW,STRCNRM,0
    4543 000145a0       31          .STRING   "1 COIN / 1 PLAY"
    4544 00014618       00          .BYTE     0,0
    4545 00014630                   .EVEN
    4546                    
    4547 00014630           USA_ELECTRONIC:
    4548 00014630                   MESS_MAC  RD7FONT,SPACING07,CP_CX,CP_13,ROBO_YELLOW,STRCNRM,0
    4549 000146d0       31          .STRING "1 CREDIT  /  25 CENTS" 
    4550 00014778       5c          .STRING "\n4 CREDITS /  1 DOLLAR",0,1
    4551 00014840                   .EVEN
    4552                    
    4553 00014840           FRANCE_ELECTRONIC:
    4554 00014840                   MESS_MAC  RD7FONT,SPACING07,CP_CX,CP_13,ROBO_YELLOW,STRCNRM,0
    4555 000148e0       31          .STRING "1 CREDIT  /  25 CENTS" 
    4556 00014988       5c          .STRING "\n4 CREDITS /  1 DOLLAR",0,1
    4557 00014a50                   .EVEN
    4558                    
    4559 00014a50           GERMAN_ELECTRONIC:
    4560 00014a50                   MESS_MAC  RD7FONT,SPACING07,CP_CX,CP_13,ROBO_YELLOW,STRCNRM,0
    4561 00014af0       31          .STRING "1 CREDIT  /  1 DM"     
    4562 00014b78       5c          .STRING "\n6 CREDITS /  5 DM",0,1
    4563 00014c20                   .EVEN
    4564                    
    4565                            .IF     FULLPRICE
    4566 00014c20           BELGIUM_ELECTRONIC:
    4567 00014c20                   MESS_MAC  RD7FONT,SPACING07,CP_CX,CP_13,ROBO_YELLOW,STRCNRM,0
    4568 00014cc0       31          .STRING "1 CREDIT  /  20 FR"    
    4569 00014d50                   .EVEN
    4570                    
    4571 00014d50           UK_ELECTRONIC
    4572 00014d50                   MESS_MAC  RD7FONT,SPACING07,CP_CX,CP_13,ROBO_YELLOW,STRCNRM,0
    4573 00014df0       31          .STRING   "1 CREDIT / 30 P"
    4574 00014e68       00          .BYTE     0,1
    4575 00014e80                   .EVEN
    4576 00014e80                   MESS_MAC  RD7FONT,SPACING07,CP_CX,CP_23,ROBO_YELLOW,STRCNRM,0
    4577 00014f20       32          .STRING   "2 CREDITS / 50 P"
    4578 00014fa0       00          .BYTE     0,1
    4579 00014fb0                   .EVEN
TMS340 COFF Macro Assembler Version 6.10     Tue Dec 19 01:45:20 2023
 Copyright (c) 1985-1991  Texas Instruments Incorporated 

test menus                                                           PAGE   95

    4580 00014fb0                   MESS_MAC  RD7FONT,SPACING07,CP_CX,CP_33,ROBO_YELLOW,STRCNRM,0
    4581 00015050       34          .STRING "4 CREDITS / "
    4582 000150b0       82          .BYTE     FONT_EPOUND
    4583 000150b8       31          .STRING "1.00"
    4584 000150d8       00          .BYTE     0,0
    4585 000150f0                   .EVEN
    4586                            .ENDIF
    4587                    
    4588                    
    4589 000150f0           TWO_TO_START
    4590 000150f0                   MESS_MAC RD15FONT,SPACING20,CP_CX,CP_12,ROBO_LASER,STRCNRM,0
    4591 00015190       32          .byte   "2 CREDITS TO START",0,1
    4592 00015230                   .even
    4593 00015230                   MESS_MAC RD15FONT,SPACING20,CP_CX,CP_22,ROBO_LASER,STRCNRM,0
    4594 000152d0       31          .byte   "1 CREDIT TO CONTINUE",0,0
    4595 00015380                   .even
    4596                    
    4597 00015380           TWO_TO_START_2C
    4598 00015380                   MESS_MAC RD15FONT,SPACING20,CP_CX,CP_12,ROBO_LASER,STRCNRM,0
    4599 00015420       32          .byte   "2 CREDITS TO START",0,1
    4600 000154c0                   .even
    4601 000154c0                   MESS_MAC RD15FONT,SPACING20,CP_CX,CP_22,ROBO_LASER,STRCNRM,0
    4602 00015560       32          .byte   "2 CREDITS TO CONTINUE",0,0
    4603 00015620                   .even
    4604                    
    4605 00015620           TWO_TS  MESS_MAC RD15FONT,SPACING20,CP_CX,CP_23,ROBO_LASER,STRCNRM,0
    4606 000156c0       32          .byte   "2 CREDITS TO START",0,1
    4607 00015760                   .even
    4608 00015760                   MESS_MAC RD15FONT,SPACING20,CP_CX,CP_33,ROBO_LASER,STRCNRM,0
    4609 00015800       31          .byte   "1 CREDIT TO CONTINUE",0,0
    4610 000158b0                   .even
    4611                    
    4612 000158b0           TWO_TP  MESS_MAC RD15FONT,SPACING20,CP_CX,CP_22,ROBO_LASER,STRCNRM,0
    4613 00015950       32          .byte   "2 CREDITS PER PLAYER",0,0
    4614 00015a00                   .even
    4615                    
    4616 00015a00           TWO_CRED_PER_PLAYER
    4617 00015a00                   MESS_MAC RD15FONT,SPACING20,CP_CX,CP_11,ROBO_LASER,STRCNRM,0
    4618 00015aa0       32          .byte   "2 CREDITS PER PLAYER",0,0
    4619 00015b50                   .even
    4620                    
    4621 00015b50           MAX_C_M MESS_MAC RD15FONT,SPACING20,CP_CX,CP_11,ROBO_LF,STRCNRM,0
    4622 00015bf0       4d          .byte   "MAXIMUM CREDITS!",0,0
    4623 00015c80                   .even
    4624                    
    4625                            .end

 No Errors,  No Warnings
