TMS340 COFF Macro Assembler Version 6.10     Tue Dec 19 01:45:09 2023
 Copyright (c) 1985-1991  Texas Instruments Incorporated 

                                                                     PAGE    1

       1                            .file   "plyr3.asm"
       3                            .width  132
       4                            .option b,d,l,t
       5                            .mnolist
       6                    
       7                    
       8                            .include        "mproc.equ"             ;Mproc equates
       9                            .include        "disp.equ"              ;Display proc equates
      10                            .include        "gsp.equ"               ;Gsp asm equates
      11                            .include        "sys.equ"
      12                            .include        "audit.equ"
      13                            .include        "mac2.asm"
      14                            .include        "imgtbl.glo"
      15                            .include        "imgtbl2.glo"
      16                            .include        "bgndtbl.glo"
      17                            .include        "game.equ"
      18                            .include        "shawn.hdr"             ;Macros
      19                            .asg            0,SEQT
      20                            .include        "plyr.equ"
      21                            .include        "plyrhd2.tbl"
      22                            .include        "imgtblm.glo"
      23                            .include        "imgtbl3.glo"
      24                            .include        "plyrhd3.tbl"
      25                            .include        "dipequ.asm"
      26                    
      27                    
      28 00000000     f3ff  tunehalf_snd    .word   0f3ffH,08H,08004H,0     ;Half time tune
      29 00000040     f981  report_snd      .word   0f981H,1*60,08171H,1    ;Halftime report
      30 00000080     f981  altitude_snd    .word   0f981H,30,081ccH,0      ;Altitude
      31 000000c0     fd84  cheer1_snd      .word   0fd84H,100,08111H,0     ;Long cheer
      32 00000100     f894  cheer2_snd      .word   0f894H,100,08144H,0     ;Long cheer
      33                    
      34                    
      35                            .ref    BAKMODS,BGND_UD1
      36                            .ref    snd_play1ovr
      37                            .ref    IRQSKYE
      38                            .ref    dpageflip
      39                            .ref    GAMSTATE
      40                            .ref    COLCYC
      41                            .ref    system_savegame,system_restoregame
      42                            .ref    tvpanelon
      43                            .ref    RNDRNG0
      44                            .ref    READ_DIP
      45                    
      46                            .ref    scale63_t
      47                    
      48                            .ref    pal_getf
      49                    
      50                    
      51                    
      52                    
      53                    
      54                    
      55                    
      56 00000140                   .text
TMS340 COFF Macro Assembler Version 6.10     Tue Dec 19 01:45:09 2023
 Copyright (c) 1985-1991  Texas Instruments Incorporated 

basketball player code                                               PAGE    2

      57                    
      58                    
      59                    
      60              0000  CLIPTEST        .equ    0
      61                    
      62 00000140            SUBR   halftime_showclips
      63                    
      64                    
      65 00000140     09ca          movi    4*60,a10
         00000150     00f0  
      66                    
      67 00000160           cpbgstop        SLEEPK  1
      68 000001a0     142a          subk    1,a10
      69 000001b0     c604          jrle    cpbgtvout
      70 000001c0     07a0          move    @tvpanelon,a0,L
         000001d0 00000000! 
      71 000001f0     cbf6          jrnz    cpbgstop
      72 00000200           cpbgtvout
      73                    
      74 00000200                   RETP
      75                    
      76                            .if     0
      77                    
      78                            jruc    cpbgx                   ;Skip clips for ROMKIT
      79                    
      80                            calla   READ_DIP
      81                            btst    DPNOVIDCLIPS_B,a0
      82                            jrnz    cpbgx                   ;Clips off?
      83                    
      84                    
      85                            calla   system_savegame
      86                    
      87                            movi    012345678H,a0
      88                            move    a0,@clipsrunning,L
      89                    
      90                    
      91                            movk    INPLYRINFO,a0
      92                            move    a0,@GAMSTATE
      93                    
      94                            clr     a0
      95                            move    a0,@dtype               ;2D
      96                    
      97                            move    a0,@WORLDTLX,L
      98                            move    a0,@WORLDTLY,L
      99                    
     100                            JSRP    scrn_scaleininit
     101                    
     102                            movi    half_mod,a0
     103                            move    a0,@BAKMODS,L
     104                            calla   BGND_UD1
     105                            SLEEPK  2
     106                    
     107                            JSRP    scrn_scalein
     108                    
     109                            movi    4<<10+4<<5+4,a0
TMS340 COFF Macro Assembler Version 6.10     Tue Dec 19 01:45:09 2023
 Copyright (c) 1985-1991  Texas Instruments Incorporated 

basketball player code                                               PAGE    3

     110                            move    a0,@IRQSKYE             ;background color
     111                    
     112                    
     113                            CREATE0 plyr_jscrowdsnda
     114                    
     115                            SLEEPK  10
     116                    
     117                            SOUND1  report_snd
     118                    
     119                            movi    -1,a0
     120                            move    a0,@dpageflip           ;No erasure
     121                    
     122                    cpbgtest
     123                            movk    2,a5                    ;# clips to show
     124                            clr     a6
     125                    cpbglp
     126                            move    a6,a0
     127                            addk    1,a6
     128                            sll     5,a0
     129                            addi    cpbgxy_t,a0
     130                            move    *a0+,a10,L              ;XY
     131                    
     132                            move    @clipbits,a2,L
     133                            cmpi    03ffffH,a2              ;18 bits
     134                            jrlo    cpbgok
     135                            clr     a2
     136                    cpbgok
     137                    cpbgcrlp        movk    18-1,a0                 ;Total # clips
     138                            calla   RNDRNG0
     139                            btst    a0,a2
     140                            jrnz    cpbgcrlp                        ;Have already shown?
     141                    
     142                            movk    1,a14                   ;Set bit
     143                            sll     a0,a14
     144                            or      a14,a2
     145                            move    a2,@clipbits,L
     146                    
     147                            .if     CLIPTEST
     148                            clr     a0
     149                            .endif
     150                    
     151                            sll     5,a0
     152                            addi    cpbgmv_t,a0
     153                            move    *a0,a8,L
     154                    
     155                            clr     a9
     156                            PUSHP   a5,a6
     157                            PUSHP   a8
     158                    
     159                            move    a10,a0
     160                            sll     32-12,a0
     161                            srl     7,a0                    ;X
     162                            move    a10,a1
     163                            srl     12,a1
     164                            sll     16,a1                   ;Y
TMS340 COFF Macro Assembler Version 6.10     Tue Dec 19 01:45:09 2023
 Copyright (c) 1985-1991  Texas Instruments Incorporated 

basketball player code                                               PAGE    4

     165                            movi    scobars,a2
     166                            movi    500,a3                  ;Z
     167                            movi    DMAWNZ|M_NOCOLL|M_SCRNREL,a4
     168                            movi    CLSDEAD,a5
     169                            clr     a6
     170                            clr     a7
     171                            calla   BEGINOBJ2
     172                            SLEEPK  30
     173                            calla   DELOBJA8
     174                    
     175                            PULLP   a8
     176                            PUSHP   a10
     177                    
     178                            .ref    movie_run
     179                    
     180                            JSRP    movie_run
     181                            PULLP   a10
     182                    
     183                            PULLP   a5,a6
     184                    
     185                            dsj     a5,cpbglp
     186                    
     187                            .if     CLIPTEST
     188                            jruc    cpbgtest                        ;Infinite loop
     189                            .endif
     190                    
     191                            movi    TSEC*1+30,a10
     192                    cpbgbutlp
     193                            SLEEPK  1
     194                            .ref    get_all_buttons_cur
     195                            calla   get_all_buttons_cur
     196                            move    a0,a0
     197                            jrnz    cpbgexit1
     198                            dsj     a10,cpbgbutlp
     199                    cpbgexit1
     200                    
     201                            calla   display_blank
     202                    
     203                            clr     a0
     204                            move    a0,@clipsrunning,L
     205                    
     206                            calla   system_restoregame
     207                    
     208                    cpbgx   RETP
     209                    
     210                    
     211                    plyr_jscrowdsnda
     212                            CREATE0 scrms
     213                            SLEEP   40
     214                            movi    cheer1_snd,a0
     215                            calla   snd_play1
     216                            movi    cheer2_snd,a0
     217                            calla   snd_play1
     218                            SLEEP   35
     219                            movi    cheer1_snd,a0
TMS340 COFF Macro Assembler Version 6.10     Tue Dec 19 01:45:09 2023
 Copyright (c) 1985-1991  Texas Instruments Incorporated 

basketball player code                                               PAGE    5

     220                            calla   snd_play1ovr
     221                            movi    cheer2_snd,a0
     222                            calla   snd_play1ovr
     223                            SLEEP   24
     224                            movi    cheer1_snd,a0
     225                            calla   snd_play1ovr
     226                            movi    cheer2_snd,a0
     227                            calla   snd_play1ovr
     228                            DIE
     229                    
     230                    scrms   movi    scrm1_snd,a0
     231                            calla   snd_play1ovr
     232                            SLEEP   15
     233                            movi    scrm2_snd,a0
     234                            calla   snd_play1ovr
     235                            SLEEP   15
     236                            movi    scrm3_snd,a0
     237                            calla   snd_play1ovr
     238                            SLEEP   15
     239                            movi    scrm4_snd,a0
     240                            calla   snd_play1ovr
     241                            SLEEP   15
     242                            DIE
     243                    
     244                            .ref    scrm1_snd,scrm2_snd,scrm3_snd,scrm4_snd
     245                    
     246                    
     247                    half_mod
     248                            .long   htclipsBMOD
     249                            .word   0,0
     250                            .long   0
     251                    
     252                    cpbgxy_t        .long   (88+52*512)*8
     253                            .long   (212+140*512)*8
     254                    cpbgmv_t
     255                            .long   V4C_F
     256                            .long   V5C_F
     257                            .long   V6C_F
     258                            .long   V8C_F
     259                            .long   V10C_F
     260                            .long   V11C_F
     261                            .long   V13C_F
     262                            .long   V14C_F
     263                            .long   V15C_F
     264                            .long   V17C_F
     265                            .long   V18C_F
     266                            .long   V19C_F
     267                            .long   V20C_F
     268                            .long   V22C_F
     269                            .long   V23C_F
     270                            .long   VNEW2_F
     271                            .long   V1C_F
     272                            .long   V3C_F
     273                    
     274                    
TMS340 COFF Macro Assembler Version 6.10     Tue Dec 19 01:45:09 2023
 Copyright (c) 1985-1991  Texas Instruments Incorporated 

basketball player code                                               PAGE    6

     275                    
     276                            .endif
     277                    
     278                    
     279                    
     280 00000230            SUBR   plyr_smoketrail
     281                    
     282 00000230     19eb          movk    15,a11
     283 00000240           wiymlp  CREATE0 plyr_smokepuff
     284 000002b0                   SLEEPK  4
     285 000002f0     3d8b          dsj     a11,wiymlp
     286                    
     287 00000300                   DIE
     288                    
     289                    
     290 00000330            SUBR   plyr_smoketrail2
     291                    
     292 00000330     1a8b          movk    20,a11
     293 00000340           gsoelp  CREATE0 plyr_smokepuff
     294 000003b0                   SLEEPK  1
     295 000003f0     3d8b          dsj     a11,gsoelp
     296                    
     297 00000400                   DIE
     298                    
     299                    
     300                    
     301 00000430            SUBRP  plyr_smokepuff
     302                    
     303 00000430     b54a          move    *a10(plyr_dir),a10
         00000440     03d0  
     304 00000450     2fca          srl     2,a10
     305                    
     306 00000460     b503          move    *a8(OZPOS),a3
         00000470     00d0  
     307 00000480     1860          movk    3,a0
     308 00000490     0d3f          callr   rnd
         000004a0     035e  
     309 000004b0     1440          subk    2,a0
     310 000004c0     4003          add     a0,a3                   ;-2 to 1
     311                    
     312 000004d0     1860          movk    3,a0
     313 000004e0     0d3f          callr   rnd
         000004f0     0359  
     314 00000500     24a0          sll     5,a0                    ;*32
     315 00000510     0b20          addi    smoke_t,a0
         00000520 000014c0' 
     316 00000540     8609          move    *a0,a9,L
     317                    
     318 00000550     b706          move    *a8(OXVEL),a6,L
         00000560     0020  
     319 00000570     b707          move    *a8(OYVEL),a7,L
         00000580     0040  
     320 00000590     2bc6          sra     2,a6                    ;/4
     321 000005a0     2bc7          sra     2,a7
     322                    
TMS340 COFF Macro Assembler Version 6.10     Tue Dec 19 01:45:09 2023
 Copyright (c) 1985-1991  Texas Instruments Incorporated 

basketball player code                                               PAGE    7

     323 000005b0     b500          move    *a8(OXPOS),a0
         000005c0     0090  
     324 000005d0     b502          move    *a8(OSIZEX),a2
         000005e0     0130  
     325 000005f0     2fe2          srl     1,a2                    ;/2
     326 00000600     4040          add     a2,a0
     327 00000610     b501          move    *a8(OYPOS),a1
         00000620     00b0  
     328 00000630     b502          move    *a8(OSIZEY),a2
         00000640     0140  
     329 00000650     2fe2          srl     1,a2                    ;/2
     330 00000660     4041          add     a2,a1
     331 00000670     248a          sll     4,a10                   ;*16
     332 00000680     0b2a          addi    mslstxy_t,a10
         00000690 00000890' 
     333 000006b0     b542          move    *a10(8*16),a2
         000006c0     0080  
     334 000006d0     4040          add     a2,a0                   ;+X offset
     335 000006e0     8542          move    *a10,a2
     336 000006f0     4041          add     a2,a1                   ;+YO
     337 00000700     2600          sll     16,a0                   ;X
     338 00000710     2601          sll     16,a1                   ;Y
     339 00000720     09e2          movi    CLDB1ORNG,a2
         00000730 00000000! 
     340 00000750     09e4          movi    DMAWNZ|M_3D|M_NOCOLL,a4 ;No collisions
         00000760 00008902  
     341 00000780     09c5          movi    CLSDEAD,a5
         00000790     2000  
     342 000007a0     0d5f          calla   BEGINOBJ2
         000007b0 00000000! 
     343 000007d0     09e0          movi    scale50_t,a0
         000007e0 00002840' 
     344 00000800     b208          move    a0,*a8(ODATA_p),L
         00000810     01c0  
     345 00000820                   SLEEPK  3
     346 00000860     c080          jauc    FRQDELDIE
         00000870 00000000! 
     347                    
     348 00000890           mslstxy_t
     349 00000890     000c          .word   12,12,11,10,8,6,3,1             ;Y
     350 00000910     0000          .word   0,-1,-3,-6,-8,-10,-11,-12       ;X
     351 00000990     fff4          .word   -12,-12,-11,-10,-8,-6,-3,-1
     352 00000a10     0000          .word   0,1,3,6,8,10,11,12
     353 00000a90     000c          .word   12,12,11,10,8,6,3,1
     354                    
     355                    
     356                    
     357                    
     358                    
     359                    
     360 00000b10            SUBR   do_ball_spark
     361                    
     362 00000b10     09cb          movi    45,a11
         00000b20     002d  
     363 00000b30           rejulp  CREATE0 ball_spark
TMS340 COFF Macro Assembler Version 6.10     Tue Dec 19 01:45:09 2023
 Copyright (c) 1985-1991  Texas Instruments Incorporated 

basketball player code                                               PAGE    8

     364 00000ba0                   SLEEPK  4
     365 00000be0     3d8b          dsj     a11,rejulp
     366 00000bf0                   DIE
     367                    
     368                    
     369                    
     370 00000c20            SUBR   ball_smokepuff
     371                    
     372 00000c20     4d0b          move    a8,a11
     373                    
     374 00000c30     b503          move    *a8(OZPOS),a3
         00000c40     00d0  
     375 00000c50     1860          movk    3,a0
     376 00000c60     0d3f          callr   rnd
         00000c70     02e1  
     377 00000c80     1440          subk    2,a0
     378 00000c90     4003          add     a0,a3                   ;-2 to 1
     379                    
     380 00000ca0     1860          movk    3,a0
     381 00000cb0     0d3f          callr   rnd
         00000cc0     02dc  
     382 00000cd0     24a0          sll     5,a0                    ;*32
     383 00000ce0     0b20          addi    smoke_t,a0
         00000cf0 000014c0' 
     384 00000d10     8609          move    *a0,a9,L
     385                    
     386 00000d20     b706          move    *a8(OXVEL),a6,L
         00000d30     0020  
     387 00000d40     b707          move    *a8(OYVEL),a7,L
         00000d50     0040  
     388 00000d60     2bc6          sra     2,a6                    ;/4
     389 00000d70     2bc7          sra     2,a7
     390                    
     391 00000d80     b500          move    *a8(OXPOS),a0
         00000d90     0090  
     392 00000da0     b502          move    *a8(OSIZEX),a2
         00000db0     0130  
     393 00000dc0     2fe2          srl     1,a2                    ;/2
     394 00000dd0     4040          add     a2,a0
     395 00000de0     b502          move    *a8(OXANI+16),a2
         00000df0     01f0  
     396 00000e00     4040          add     a2,a0
     397 00000e10     b501          move    *a8(OYPOS),a1
         00000e20     00b0  
     398 00000e30     b502          move    *a8(OSIZEY),a2
         00000e40     0140  
     399 00000e50     2fe2          srl     1,a2                    ;/2
     400 00000e60     4041          add     a2,a1
     401 00000e70     11e1          addk    15,a1
     402 00000e80     2600          sll     16,a0                   ;X
     403 00000e90     2601          sll     16,a1                   ;Y
     404 00000ea0     09e2          movi    CLDB1YELL,a2
         00000eb0 00000000! 
     405 00000ed0     09e4          movi    DMAWNZ|M_3D|M_NOCOLL,a4 ;No collisions
         00000ee0 00008902  
TMS340 COFF Macro Assembler Version 6.10     Tue Dec 19 01:45:09 2023
 Copyright (c) 1985-1991  Texas Instruments Incorporated 

basketball player code                                               PAGE    9

     406 00000f00     09c5          movi    CLSDEAD,a5
         00000f10     2000  
     407 00000f20     0d5f          calla   BEGINOBJ2
         00000f30 00000000! 
     408                    
     409 00000f50     09e0          movi    scale50_t,a0
         00000f60 00002840' 
     410 00000f80     b208          move    a0,*a8(ODATA_p),L
         00000f90     01c0  
     411 00000fa0     b760          move    *a11(OZVEL),a0,L
         00000fb0     0060  
     412 00000fc0     2bc0          sra     2,a0                    ;/4
     413 00000fd0     b208          move    a0,*a8(OZVEL),L
         00000fe0     0060  
     414                    
     415                    
     416 00000ff0     b50e          move    *a8(OZPOS),a14          ;894 to 1379 (Z range 486)
         00001000     00d0  
     417 00001010     0bee          subi    GZBASE,a14              ;-Base
         00001020     fc81  
     418 00001030     c501          jrge    hnxzzok
     419 00001040     57ce          clr     a14
     420 00001050     2f8e  hnxzzok srl     4,a14                   ;/16
     421 00001060     24ce          sll     6,a14                   ;*64
     422 00001070     b700          move    *a8(ODATA_p),a0,L
         00001080     01c0  
     423 00001090     1000          addk    32,a0
     424 000010a0     41c0          add     a14,a0
     425                    
     426 000010b0     940e          move    *a0+,a14
     427 000010c0     248e          sll     4,a14                   ;*16
     428 000010d0     b702          move    *a8(OIMG),a2,L
         000010e0     0170  
     429                    
     430 000010f0     b441          move    *a2(IANIOFFX),a1
         00001100     0020  
     431 00001110     5dc1          mpys    a14,a1
     432 00001120     b228          move    a1,*a8(OXANI),L
         00001130     01e0  
     433 00001140     840e          move    *a0,a14
     434 00001150     248e          sll     4,a14                   ;*16
     435 00001160     4c20          move    a1,a0
     436                    
     437 00001170     b441          move    *a2(IANIOFFY),a1
         00001180     0030  
     438 00001190     5dc1          mpys    a14,a1
     439                    
     440 000011a0     2a00          sra     16,a0
     441 000011b0     2a01          sra     16,a1
     442 000011c0     03a0          neg     a0
     443 000011d0     03a1          neg     a1
     444                    
     445 000011e0     b56e          move    *a11(OXPOS),a14
         000011f0     0090  
     446 00001200     41c0          add     a14,a0
TMS340 COFF Macro Assembler Version 6.10     Tue Dec 19 01:45:09 2023
 Copyright (c) 1985-1991  Texas Instruments Incorporated 

basketball player code                                               PAGE   10

     447 00001210     b562          move    *a11(OSIZEX),a2
         00001220     0130  
     448 00001230     2fe2          srl     1,a2                    ;/2
     449 00001240     4040          add     a2,a0
     450 00001250     b56e          move    *a11(OYPOS),a14
         00001260     00b0  
     451 00001270     41c1          add     a14,a1
     452 00001280     b562          move    *a11(OSIZEY),a2
         00001290     0140  
     453 000012a0     2fe2          srl     1,a2                    ;/2
     454 000012b0     4041          add     a2,a1
     455 000012c0     b008          move    a0,*a8(OXPOS)
         000012d0     0090  
     456 000012e0     b028          move    a1,*a8(OYPOS)
         000012f0     00b0  
     457                    
     458                    
     459                    
     460                    
     461                    
     462 00001300     9720          move    *a9+,a0,L
     463 00001310     b501  hnxzalp move    *a8(OCTRL),a1
         00001320     00f0  
     464 00001330     0d5f          calla   obj_aniq_scld
         00001340 00000000! 
     465 00001360     9520          move    *a9+,a0
     466 00001370     0b40          cmpi    0100H,a0
         00001380     feff  
     467 00001390     c80a          jrlo    hnxzslp                 ;No flags?
     468 000013a0     4c02          move    a0,a2
     469 000013b0     9720          move    *a9+,a0,L
     470 000013c0     0d5f          calla   pal_getf
         000013d0 00000000! 
     471 000013f0     b008          move    a0,*a8(OPAL)
         00001400     0150  
     472 00001410     4c40          move    a2,a0
     473 00001420     2700          sll     32-8,a0
     474 00001430     2d00          srl     32-8,a0
     475 00001440           hnxzslp
     476 00001440     0d5f          calla   PRCSLP
         00001450 00000000! 
     477 00001470     9720          move    *a9+,a0,L
     478 00001480     cbe8          jrnz    hnxzalp
     479 00001490     c080          jauc    DELOBJDIE
         000014a0 00000000! 
     480                    
     481                    
     482 000014c0           smoke_t
     483 000014c0 00001540'         .long   cldbw_l,cldblg_l,cldbgry_l,cldblg2_l
     484                    
     485 00001540           cldbw_l
     486 00001540                   LW      CLDB2,3
     487 00001570                   LWL     CLDB3,NEWPALET|3,ORNGPAL
     488 000015c0                   LW      CLDB4,2
     489 000015f0                   LWL     CLD5,NEWPALET|2,WHTPAL
TMS340 COFF Macro Assembler Version 6.10     Tue Dec 19 01:45:09 2023
 Copyright (c) 1985-1991  Texas Instruments Incorporated 

basketball player code                                               PAGE   11

     490 00001640                   LW      CLD6,2
     491 00001670                   LW      CLD7,2
     492 000016a0                   LW      CLD8,2
     493 000016d0                   LW      CLD9,2
     494 00001700                   LW      CLD10,2
     495 00001730                   LWL0    CLD11,2
     496 00001780           cldblg_l
     497 00001780                   LW      CLDB2,2
     498 000017b0                   LWL     CLDB3,NEWPALET|3,ORNGPAL
     499 00001800                   LW      CLDB4,2
     500 00001830                   LWL     CLD5,NEWPALET|2,LGRYPAL
     501 00001880                   LW      CLD6,2
     502 000018b0                   LW      CLD7,2
     503 000018e0                   LW      CLD8,2
     504 00001910                   LW      CLD9,2
     505 00001940                   LW      CLD10,2
     506 00001970                   LWL0    CLD11,1
     507 000019c0           cldbgry_l
     508 000019c0                   LW      CLDB2,3
     509 000019f0                   LWL     CLDB3,NEWPALET|2,ORNGPAL
     510 00001a40                   LW      CLDB4,2
     511 00001a70                   LWL     CLD5,NEWPALET|2,GREYPAL
     512 00001ac0                   LW      CLD6,2
     513 00001af0                   LW      CLD7,2
     514 00001b20                   LW      CLD8,2
     515 00001b50                   LW      CLD9,1
     516 00001b80                   LW      CLD10,1
     517 00001bb0                   LWL0    CLD11,1
     518 00001c00           cldblg2_l
     519 00001c00                   LW      CLDB2,2
     520 00001c30                   LWL     CLDB3,NEWPALET|2,ORNGPAL
     521 00001c80                   LWL     CLDB4,NEWPALET|2,LGRYPAL
     522 00001cd0                   LW      CLD5,2
     523 00001d00                   LW      CLD6,2
     524 00001d30                   LW      CLD7,2
     525 00001d60                   LW      CLD8,2
     526 00001d90                   LW      CLD9,2
     527 00001dc0                   LW      CLD10,2
     528 00001df0                   LWL0    CLD11,2
     529                    
     530                    
     531                    
     532                    SCLT    .macro  sx,sy,sxa,sya
     533                            .eval   :sx:*1048,X     ;Convert (has slight error)
     534                            .eval   :sy:*1048,Y
     535                            .eval   :sxa:*1048,XA
     536                            .eval   :sya:*1048,YA
     537                            .loop   10
     538                            .word   010000000H/X,010000000H/Y
     539                            .word   0100000H/(010000000H/X),0100000H/(010000000H/Y)
     540                            .eval   X+XA*1/4,X
     541                            .eval   Y+YA*1/4,Y
     542                            .endloop
     543                            .loop   10
     544                            .word   010000000H/X,010000000H/Y
TMS340 COFF Macro Assembler Version 6.10     Tue Dec 19 01:45:09 2023
 Copyright (c) 1985-1991  Texas Instruments Incorporated 

basketball player code                                               PAGE   12

     545                            .word   0100000H/(010000000H/X),0100000H/(010000000H/Y)
     546                            .eval   X+XA*2/4,X
     547                            .eval   Y+YA*2/4,Y
     548                            .endloop
     549                            .loop   10
     550                            .word   010000000H/X,010000000H/Y
     551                            .word   0100000H/(010000000H/X),0100000H/(010000000H/Y)
     552                            .eval   X+XA*3/4,X
     553                            .eval   Y+YA*3/4,Y
     554                            .endloop
     555                            .loop   10
     556                            .word   010000000H/X,010000000H/Y
     557                            .word   0100000H/(010000000H/X),0100000H/(010000000H/Y)
     558                            .eval   X+XA,X
     559                            .eval   Y+YA,Y
     560                            .endloop
     561                            .endm
     562                    
     563                                                    ;>Generate scale tables
     564 00001e40           scale30_t
     565 00001e40                   SCLT    300,300,19,19
     566 00002840           scale50_t
     567 00002840                   SCLT    500,500,31,31
     568                    
     569                    
     570                    
     571 00003240            SUBR   ball_spark
     572                    
     573 00003240     09e9          movi    spark_l,a9
         00003250 00003890' 
     574                    
     575 00003270     b766          move    *a11(OXVEL),a6,L
         00003280     0020  
     576 00003290     2bc6          sra     2,a6
     577 000032a0     1940          movk    0aH,a0
     578 000032b0     0d3f          callr   rnd
         000032c0     007c  
     579 000032d0     14a0          subk    5,a0
     580 000032e0     25c0          sll     14,a0                   ;XVel
     581 000032f0     4006          add     a0,a6
     582                    
     583 00003300           hnxzxnorm
     584                    
     585 00003300     b767          move    *a11(OYVEL),a7,L
         00003310     0040  
     586 00003320     1860          movk    03H,a0
     587 00003330     0d3f          callr   rnd
         00003340     0074  
     588 00003350     2600          sll     16,a0                   ;YVel
     589 00003360     03a0          neg     a0
     590 00003370     4007          add     a0,a7
     591                    
     592                    
     593                    
     594                    
TMS340 COFF Macro Assembler Version 6.10     Tue Dec 19 01:45:09 2023
 Copyright (c) 1985-1991  Texas Instruments Incorporated 

basketball player code                                               PAGE   13

     595                    
     596                    
     597 00003380           hnxzynorm
     598 00003380     b503          move    *a8(OZPOS),a3
         00003390     00d0  
     599 000033a0     1860          movk    3,a0
     600 000033b0     0d3f          callr   rnd
         000033c0     006c  
     601 000033d0     1440          subk    2,a0
     602 000033e0     4003          add     a0,a3                   ;-2 to 1
     603                    
     604 000033f0     b500          move    *a8(OXPOS),a0
         00003400     0090  
     605 00003410     b502          move    *a8(OXANI+16),a2
         00003420     01f0  
     606 00003430     4040          add     a2,a0
     607 00003440     b501          move    *a8(OYPOS),a1
         00003450     00b0  
     608 00003460     b502          move    *a8(OSIZEY),a2
         00003470     0140  
     609 00003480     2fe2          srl     1,a2                    ;/2
     610 00003490     4041          add     a2,a1
     611                    
     612 000034a0     2600          sll     16,a0
     613 000034b0     2601          sll     16,a1
     614 000034c0     09e2          movi    spark1,a2
         000034d0 00000000! 
     615 000034f0     09e4          movi    DMAWNZ|M_3D|M_NOSCALE,a4
         00003500 00009102  
     616 00003520     09c5          movi    CLSDEAD,a5
         00003530     2000  
     617 00003540     0d5f          calla   BEGINOBJ2
         00003550 00000000! 
     618                    
     619 00003570     b762          move    *a11(OZVEL),a2,L
         00003580     0060  
     620 00003590     2bc2          sra     2,a2                    ;/4
     621 000035a0     19e0          movk    0fH,a0
     622 000035b0     0d3f          callr   rnd
         000035c0     004c  
     623 000035d0     14e0          subk    7,a0
     624 000035e0     25c0          sll     14,a0
     625 000035f0     4002          add     a0,a2
     626 00003600     b248          move    a2,*a8(OZVEL),L
         00003610     0060  
     627                    
     628                    
     629 00003620     186b          movk    3,a11
     630 00003630     c001          jruc    hnxzstrt
     631                    
     632 00003640     392a  hnxzlp  dsj     a10,hnxznoani
     633 00003650           hnxzstrt
     634 00003650     4d6a          move    a11,a10
     635 00003660     8720          move    *a9,a0,L
     636 00003670     ca17          jrz     hnxzdie                 ;noani
TMS340 COFF Macro Assembler Version 6.10     Tue Dec 19 01:45:09 2023
 Copyright (c) 1985-1991  Texas Instruments Incorporated 

basketball player code                                               PAGE   14

     637 00003680     1009          addk    32,a9
     638                    
     639 00003690     b501          move    *a8(OCTRL),a1
         000036a0     00f0  
     640 000036b0     0d5f          calla   obj_aniq
         000036c0 00000000! 
     641 000036e0           hnxznoani
     642 000036e0                   SLEEPK  3
     643 00003720     b702          move    *a8(OYVEL),a2,L
         00003730     0040  
     644 00003740     0b02          addi    GRAV*2,a2
         00003750     4c00  
     645 00003760     b248          move    a2,*a8(OYVEL),L
         00003770     0040  
     646 00003780     ceeb          jrn     hnxzlp                  ;Going up?
     647 00003790     b701          move    *a8(OYVAL),a1,L
         000037a0     00a0  
     648 000037b0     c4e8          jrlt    hnxzlp                  ;Above gnd?
     649 000037c0     5621          clr     a1
     650 000037d0     b228          move    a1,*a8(OYVAL),L
         000037e0     00a0  
     651                    
     652                    
     653 000037f0           hnxzdie
     654 000037f0     5600          clr     a0
     655 00003800     b208          move    a0,*a8(OXVEL),L
         00003810     0020  
     656 00003820     b208          move    a0,*a8(OYVEL),L
         00003830     0040  
     657 00003840     b208          move    a0,*a8(OZVEL),L
         00003850     0060  
     658                    
     659 00003860     c080          jauc    DELOBJDIE
         00003870 00000000! 
     660                    
     661                    
     662 00003890           spark_l
     663 00003890 00000000!         .long   spark1
     664 000038b0 00000000!         .long   spark2
     665 000038d0 00000000!         .long   spark3
     666 000038f0 00000000!         .long   spark4
     667 00003910 00000000!         .long   spark5
     668 00003930 00000000!         .long   spark1
     669 00003950 00000000!         .long   spark2
     670 00003970 00000000!         .long   spark3
     671 00003990 00000000!         .long   spark4
     672 000039b0 00000000!         .long   spark5
     673 000039d0 00000000!         .long   spark1
     674 000039f0 00000000!         .long   spark2
     675 00003a10 00000000!         .long   spark3
     676 00003a30 00000000!         .long   spark4
     677 00003a50 00000000!         .long   spark5,0
     678                    
     679                    
     680                    
TMS340 COFF Macro Assembler Version 6.10     Tue Dec 19 01:45:09 2023
 Copyright (c) 1985-1991  Texas Instruments Incorporated 

basketball player code                                               PAGE   15

     681                    
     682                    
     683 00003a90            SUBRP  rnd
     684                    
     685 00003a90     07a1          move    @RAND,a1,L
         00003aa0 00000000! 
     686 00003ac0     6821          rl      a1,a1
     687 00003ad0     05ae          move    @HCOUNT,a14
         00003ae0 c00001c0  
     688 00003b00     69c1          rl      a14,a1
     689 00003b10     41e1          add     sp,a1
     690 00003b20     0781          move    a1,@RAND,L
         00003b30 00000000! 
     691                    
     692 00003b50     5020          and     a1,a0
     693 00003b60     0960          rets
     694                    
     695                    
     696 00003b70            SUBR   getdunkseq
     697                    
     698                    
     699 00003b70     b5a0          move    *a13(plyr_num),a0       ;If on fire, don't use turbo on run
         00003b80     0100  
     700                            .ref    plyrnumonfire
     701 00003b90     05a1          move    @plyrnumonfire,a1
         00003ba0 00000000! 
     702 00003bc0     4801          cmp     a0,a1
     703 00003bd0     ca20          jrz     set5
     704                    
     705 00003be0     b7a0          move    *a13(plyr_attrib_p),a0,L
         00003bf0     0150  
     706 00003c00     b400          move    *a0(PAT_DUNKSKILL),a0
         00003c10     0040  
     707                    
     708                    
     709                    
     710 00003c20     24a0          sll     5,a0
     711 00003c30     0b20          addi    jmp_t,a0
         00003c40 00003c80' 
     712 00003c60     8600          move    *a0,a0,L
     713 00003c70     0160          jump    a0
     714                    
     715                    
     716 00003c80 000043a0' jmp_t   .long   set1,set1,set1,set2
     717 00003d00 00004230'         .long   set2,set3,set4,set4,set5,set5,set5
     718                    
     719 00003de0           set5
     720 00003de0     0b23          addi    d5u_t,a3
         00003df0 00004540' 
     721                    
     722 00003e10     0b44          cmpi    60,a4
         00003e20     ffc3  
     723 00003e30     c66c          jrle    yubashortd                      ;Under hoop?
     724 00003e40     0b23          addi    d5s_t-d5u_t,a3
         00003e50 00000120  
TMS340 COFF Macro Assembler Version 6.10     Tue Dec 19 01:45:09 2023
 Copyright (c) 1985-1991  Texas Instruments Incorporated 

basketball player code                                               PAGE   16

     725                    
     726 00003e70     0b44          cmpi    80,a4                   ;Short range
         00003e80     ffaf  
     727 00003e90     c666          jrle    yubashortd
     728                    
     729 00003ea0     b5ae          move    *a13(plyr_turbon),a14
         00003eb0     0250  
     730 00003ec0     ca65          jrz     yubasj
     731                    
     732 00003ed0     0b03          addi    d5m_t-d5s_t,a3,W
         00003ee0     0120  
     733                    
     734 00003ef0     0b44          cmpi    120,a4                  ;Med range
         00003f00     ff87  
     735 00003f10     c65e          jrle    yubashortd
     736 00003f20     0b03          addi    d5l_t-d5m_t,a3,W
         00003f30     0120  
     737 00003f40     c05b          jruc    yubashortd
     738                    
     739 00003f50           set4
     740 00003f50     0b23          addi    d4u_t,a3
         00003f60 00005e50' 
     741                    
     742 00003f80     0b44          cmpi    60,a4
         00003f90     ffc3  
     743 00003fa0     c655          jrle    yubashortd                      ;Under hoop?
     744 00003fb0     0b23          addi    d4s_t-d4u_t,a3
         00003fc0 00000120  
     745                    
     746 00003fe0     0b44          cmpi    80,a4                   ;Short range
         00003ff0     ffaf  
     747 00004000     c64f          jrle    yubashortd
     748                    
     749 00004010     b5ae          move    *a13(plyr_turbon),a14
         00004020     0250  
     750 00004030     ca4e          jrz     yubasj
     751                    
     752 00004040     0b03          addi    d4m_t-d4s_t,a3,W
         00004050     0120  
     753                    
     754 00004060     0b44          cmpi    120,a4                  ;Med range
         00004070     ff87  
     755 00004080     c647          jrle    yubashortd
     756 00004090     0b03          addi    d4l_t-d4m_t,a3,W
         000040a0     0120  
     757 000040b0     c044          jruc    yubashortd
     758                    
     759 000040c0           set3
     760 000040c0     0b23          addi    d3u_t,a3
         000040d0 000076e0' 
     761                    
     762 000040f0     0b44          cmpi    60,a4
         00004100     ffc3  
     763 00004110     c63e          jrle    yubashortd                      ;Under hoop?
     764 00004120     0b23          addi    d3s_t-d3u_t,a3
TMS340 COFF Macro Assembler Version 6.10     Tue Dec 19 01:45:09 2023
 Copyright (c) 1985-1991  Texas Instruments Incorporated 

basketball player code                                               PAGE   17

         00004130 00000120  
     765                    
     766 00004150     0b44          cmpi    80,a4                   ;Short range
         00004160     ffaf  
     767 00004170     c638          jrle    yubashortd
     768                    
     769 00004180     b5ae          move    *a13(plyr_turbon),a14
         00004190     0250  
     770 000041a0     ca37          jrz     yubasj
     771                    
     772 000041b0     0b03          addi    d3m_t-d3s_t,a3,W
         000041c0     0120  
     773                    
     774 000041d0     0b44          cmpi    120,a4                  ;Med range
         000041e0     ff87  
     775 000041f0     c630          jrle    yubashortd
     776 00004200     0b03          addi    d3l_t-d3m_t,a3,W
         00004210     0120  
     777 00004220     c02d          jruc    yubashortd
     778                    
     779 00004230           set2
     780 00004230     0b23          addi    d3u_t,a3
         00004240 000076e0' 
     781                    
     782 00004260     0b44          cmpi    60,a4
         00004270     ffc3  
     783 00004280     c627          jrle    yubashortd                      ;Under hoop?
     784 00004290     0b23          addi    d2s_t-d2u_t,a3
         000042a0 00000120  
     785                    
     786 000042c0     0b44          cmpi    80,a4                   ;Short range
         000042d0     ffaf  
     787 000042e0     c621          jrle    yubashortd
     788                    
     789 000042f0     b5ae          move    *a13(plyr_turbon),a14
         00004300     0250  
     790 00004310     ca20          jrz     yubasj
     791                    
     792 00004320     0b03          addi    d2m_t-d2s_t,a3,W
         00004330     0120  
     793                    
     794 00004340     0b44          cmpi    120,a4                  ;Med range
         00004350     ff87  
     795 00004360     c619          jrle    yubashortd
     796 00004370     0b03          addi    d2l_t-d2m_t,a3,W
         00004380     0120  
     797 00004390     c016          jruc    yubashortd
     798                    
     799 000043a0           set1
     800 000043a0     0b23          addi    d1u_t,a3
         000043b0 00009d50' 
     801                    
     802 000043d0     0b44          cmpi    60,a4
         000043e0     ffc3  
     803 000043f0     c610          jrle    yubashortd                      ;Under hoop?
TMS340 COFF Macro Assembler Version 6.10     Tue Dec 19 01:45:09 2023
 Copyright (c) 1985-1991  Texas Instruments Incorporated 

basketball player code                                               PAGE   18

     804 00004400     0b23          addi    d1s_t-d1u_t,a3
         00004410 00000120  
     805                    
     806 00004430     0b44          cmpi    80,a4                   ;Short range
         00004440     ffaf  
     807 00004450     c60a          jrle    yubashortd
     808                    
     809 00004460     b5ae          move    *a13(plyr_turbon),a14
         00004470     0250  
     810 00004480     ca09          jrz     yubasj
     811                    
     812 00004490     0b03          addi    d1m_t-d1s_t,a3,W
         000044a0     0120  
     813                    
     814 000044b0     0b44          cmpi    110,a4                  ;Med range
         000044c0     ff91  
     815 000044d0     c602          jrle    yubashortd
     816                    
     817 000044e0     0b03          addi    d1l_t-d1m_t,a3,W
         000044f0     0120  
     818                    
     819                    
     820 00004500     5600  yubashortd      clr     a0
     821 00004510     0960          rets
     822 00004520     1820  yubasj  movk    1,a0
     823 00004530     0960          rets
     824                    
     825                    
     826                    
     827                    
     828 00004540 000049c0' d5u_t   .long   zfeld1u_t,zfeld2u_t,zfeld3u_t,zfeld4u_t
     829 000045c0 00004ac0'         .long   zfeld5u_t,zfeld4u_t,zfeld3u_t,zfeld2u_t, zfeld1u_t
     830                    
     831 00004660 00004ae0' d5s_t   .long   zfeld1s_t,zfeld2s_t,zfeld3s_t,zfeld4s_t
     832 000046e0 00004e60'         .long   zfeld5s_t,zfeld4s_t,zfeld3s_t,zfeld2s_t, zfeld1s_t
     833                    
     834 00004780 00004eb0' d5m_t   .long   zfeld1m_t,zfeld2m_t,zfeld3m_t,zfeld4m_t
     835 00004800 000057d0'         .long   zfeld5m_t,zfeld4m_t,zfeld3m_t,zfeld2m_t, zfeld1m_t
     836                    
     837 000048a0 00005820' d5l_t   .long   zfeld1l_t,zfeld2l_t,zfeld3l_t,zfeld4l_t
     838 00004920 00005e30'         .long   zfeld5l_t,zfeld4l_t,zfeld3l_t,zfeld2l_t, zfeld1l_t
     839                    
     840 000049c0     0002  zfeld1u_t       .word   3-1,DUNKB2_SEQ,DUNKZ5_SEQ,DUNKB3_SEQ
     841 00004a00     0002  zfeld2u_t       .word   3-1,DUNKB2_SEQ,DUNKZ5_SEQ,DUNKB3_SEQ
     842 00004a40     0003  zfeld3u_t       .word   4-1,DUNKB2_SEQ,DUNKZ7_SEQ,DUNKZ5_SEQ,DUNKB3_SEQ
     843 00004a90     0001  zfeld4u_t       .word   2-1,DUNKG2_SEQ,DUNKZ7_SEQ
     844 00004ac0     0000  zfeld5u_t       .word   1-1,DUNKN2_SEQ
     845                    
     846 00004ae0     000c  zfeld1s_t       .word   13-1,DUNKB_SEQ,DUNKJ_SEQ,DUNKJ2_SEQ,DUNKJ_SEQ
     847 00004b30     004a          .word   DUNKJ_SEQ
     848 00004b40     005b          .word   DUNKQ_SEQ
     849 00004b50     005d          .word   DUNKQ3_SEQ
     850 00004b60     0063          .word   DUNKT_SEQ
     851 00004b70     0068          .word   DUNKV_SEQ
     852 00004b80     0069          .word   DUNKV2_SEQ
TMS340 COFF Macro Assembler Version 6.10     Tue Dec 19 01:45:09 2023
 Copyright (c) 1985-1991  Texas Instruments Incorporated 

basketball player code                                               PAGE   19

     853 00004b90     0040          .word   DUNKB2_SEQ
     854 00004ba0     0085          .word   DUNKLAY6_SEQ
     855 00004bb0     0075          .word   DUNKLAY7_SEQ
     856                    
     857 00004bc0     0012  zfeld2s_t       .word   19-1,DUNKB_SEQ,DUNKF_SEQ,DUNKT_SEQ,DUNKO_SEQ
     858 00004c10     004b          .word   DUNKJ2_SEQ,DUNKJ_SEQ
     859 00004c30     005b          .word   DUNKQ_SEQ
     860 00004c40     005d          .word   DUNKQ3_SEQ
     861 00004c50     0061          .word   DUNKS_SEQ
     862 00004c60     0062          .word   DUNKS2_SEQ
     863 00004c70     0083          .word   DUNKLAY4_SEQ
     864 00004c80     0040          .word   DUNKB2_SEQ
     865 00004c90     0064          .word   DUNKT2_SEQ
     866 00004ca0     0065          .word   DUNKT3_SEQ
     867 00004cb0     006c          .word   DUNKW3_SEQ
     868 00004cc0     006b          .word   DUNKW2_SEQ
     869 00004cd0     006a          .word   DUNKW_SEQ
     870 00004ce0     0085          .word   DUNKLAY6_SEQ
     871 00004cf0     0075          .word   DUNKLAY7_SEQ
     872                    
     873 00004d00     000b  zfeld3s_t       .word   12-1,DUNKP_SEQ,DUNKB_SEQ,DUNKE_SEQ,DUNKE2_SEQ,DUNKT_SEQ
     874 00004d60     0089          .word   DUNKZ10_SEQ
     875 00004d70     0040          .word   DUNKB2_SEQ
     876 00004d80     0059          .word   DUNKP2_SEQ
     877 00004d90     0064          .word   DUNKT2_SEQ
     878 00004da0     0065          .word   DUNKT3_SEQ
     879 00004db0     0077          .word   DUNKU_SEQ
     880 00004dc0     0075          .word   DUNKLAY7_SEQ
     881                    
     882 00004dd0     0007  zfeld4s_t       .word   8-1,DUNKP_SEQ,DUNKE_SEQ,DUNKE2_SEQ,DUNKG_SEQ,DUNKT_SEQ
     883 00004e30     0059          .word   DUNKP2_SEQ
     884 00004e40     0064          .word   DUNKT2_SEQ
     885 00004e50     0065          .word   DUNKT3_SEQ
     886                    
     887 00004e60     0003  zfeld5s_t       .word   4-1,DUNKN_SEQ,DUNKN_SEQ
     888 00004e90     0080          .word   DUNKLAY_SEQ
     889 00004ea0     0080          .word   DUNKLAY_SEQ
     890                    
     891 00004eb0     000d  zfeld1m_t       .word   14-1,DUNKA_SEQ,DUNKB_SEQ,DUNKJ_SEQ,DUNKJ2_SEQ
     892 00004f00     0086          .word   DUNKZ4_SEQ
     893 00004f10     003e          .word   DUNKA2_SEQ
     894 00004f20     004a          .word   DUNKJ_SEQ
     895 00004f30     004a          .word   DUNKJ_SEQ
     896 00004f40     005b          .word   DUNKQ_SEQ
     897 00004f50     005d          .word   DUNKQ3_SEQ
     898 00004f60     0068          .word   DUNKV_SEQ
     899 00004f70     0069          .word   DUNKV2_SEQ
     900 00004f80     0085          .word   DUNKLAY6_SEQ
     901 00004f90     0075          .word   DUNKLAY7_SEQ
     902                    
     903 00004fa0     002b  zfeld2m_t       .word   44-1,DUNKB_SEQ,DUNKF_SEQ,DUNKJ_SEQ,DUNKO_SEQ
     904 00004ff0     0086          .word   DUNKZ4_SEQ
     905 00005000     004e          .word   DUNKK_SEQ,DUNKK2_SEQ,DUNKJ2_SEQ
     906 00005030     004a          .word   DUNKJ_SEQ
     907 00005040     005b          .word   DUNKQ_SEQ
TMS340 COFF Macro Assembler Version 6.10     Tue Dec 19 01:45:09 2023
 Copyright (c) 1985-1991  Texas Instruments Incorporated 

basketball player code                                               PAGE   20

     908 00005050     005d          .word   DUNKQ3_SEQ
     909 00005060     005f          .word   DUNKR_SEQ
     910 00005070     0060          .word   DUNKR2_SEQ
     911 00005080     0064          .word   DUNKT2_SEQ
     912 00005090     0065          .word   DUNKT3_SEQ
     913 000050a0     0066          .word   DUNKT4_SEQ
     914 000050b0     0067          .word   DUNKT5_SEQ
     915 000050c0     003e          .word   DUNKA2_SEQ
     916 000050d0     003d          .word   DUNKA_SEQ,DUNKB_SEQ,DUNKF_SEQ,DUNKJ_SEQ
     917 00005110     004b          .word   DUNKJ2_SEQ,DUNKO2_SEQ,DUNKK_SEQ,DUNKK2_SEQ
     918 00005150     004a          .word   DUNKJ_SEQ
     919 00005160     004a          .word   DUNKJ_SEQ
     920 00005170     005b          .word   DUNKQ_SEQ
     921 00005180     005d          .word   DUNKQ3_SEQ
     922 00005190     005f          .word   DUNKR_SEQ
     923 000051a0     0060          .word   DUNKR2_SEQ
     924 000051b0     006c          .word   DUNKW3_SEQ
     925 000051c0     006b          .word   DUNKW2_SEQ
     926 000051d0     006a          .word   DUNKW_SEQ
     927 000051e0     006d          .word   DUNKY_SEQ
     928 000051f0     006e          .word   DUNKY2_SEQ
     929 00005200     006f          .word   DUNKZ_SEQ
     930 00005210     0070          .word   DUNKZ2_SEQ
     931 00005220     0083          .word   DUNKLAY4_SEQ
     932 00005230     0071          .word   DUNKZ3_SEQ
     933 00005240     0085          .word   DUNKLAY6_SEQ
     934 00005250     0075          .word   DUNKLAY7_SEQ
     935 00005260     0075          .word   DUNKLAY7_SEQ
     936                    
     937 00005270     003b  zfeld3m_t       .word   60-1,DUNKB_SEQ,DUNKC_SEQ,DUNKE_SEQ,DUNKE2_SEQ
     938 000052c0     0087          .word   DUNKZ8_SEQ
     939 000052d0     0087          .word   DUNKZ8_SEQ
     940 000052e0     0089          .word   DUNKZ10_SEQ
     941 000052f0     0089          .word   DUNKZ10_SEQ
     942 00005300     0073          .word   DUNKZ6_SEQ
     943 00005310     0086          .word   DUNKZ4_SEQ
     944 00005320     0086          .word   DUNKZ4_SEQ
     945 00005330     0050          .word   DUNKL_SEQ,DUNKL4_SEQ
     946 00005350     0059          .word   DUNKP2_SEQ
     947 00005360     004e          .word   DUNKK_SEQ
     948 00005370     004f          .word   DUNKK2_SEQ
     949 00005380     005f          .word   DUNKR_SEQ
     950 00005390     0060          .word   DUNKR2_SEQ
     951 000053a0     0064          .word   DUNKT2_SEQ
     952 000053b0     0065          .word   DUNKT3_SEQ
     953 000053c0     0066          .word   DUNKT4_SEQ
     954 000053d0     0067          .word   DUNKT5_SEQ
     955 000053e0     003e          .word   DUNKA2_SEQ
     956 000053f0     0058          .word   DUNKP_SEQ,DUNKA_SEQ,DUNKB_SEQ,DUNKC_SEQ,DUNKD_SEQ
     957 00005440     0045          .word   DUNKE_SEQ,DUNKT_SEQ,DUNKE2_SEQ,DUNKD2_SEQ
     958 00005480     0050          .word   DUNKL_SEQ,DUNKL2_SEQ,DUNKL3_SEQ,DUNKL4_SEQ
     959 000054c0     0059          .word   DUNKP2_SEQ
     960 000054d0     005a          .word   DUNKP3_SEQ
     961 000054e0     004e          .word   DUNKK_SEQ
     962 000054f0     004f          .word   DUNKK2_SEQ
TMS340 COFF Macro Assembler Version 6.10     Tue Dec 19 01:45:09 2023
 Copyright (c) 1985-1991  Texas Instruments Incorporated 

basketball player code                                               PAGE   21

     963 00005500     005f          .word   DUNKR_SEQ
     964 00005510     0060          .word   DUNKR2_SEQ
     965 00005520     0077          .word   DUNKU_SEQ
     966 00005530     0078          .word   DUNKU2_SEQ
     967 00005540     0079          .word   DUNKU3_SEQ
     968 00005550     007a          .word   DUNKU4_SEQ
     969 00005560     007b          .word   DUNKU5_SEQ
     970 00005570     007c          .word   DUNKU6_SEQ
     971 00005580     007d          .word   DUNKX_SEQ
     972 00005590     007e          .word   DUNKX2_SEQ
     973 000055a0     007f          .word   DUNKX3_SEQ
     974 000055b0     006d          .word   DUNKY_SEQ
     975 000055c0     006e          .word   DUNKY2_SEQ
     976 000055d0     006f          .word   DUNKZ_SEQ
     977 000055e0     0070          .word   DUNKZ2_SEQ
     978 000055f0     0071          .word   DUNKZ3_SEQ
     979 00005600     0082          .word   DUNKLAY3_SEQ
     980 00005610     0076          .word   DUNKLAY3A_SEQ
     981 00005620     0075          .word   DUNKLAY7_SEQ
     982 00005630     0075          .word   DUNKLAY7_SEQ
     983                    
     984 00005640     0017  zfeld4m_t       .word   24-1,DUNKE_SEQ,DUNKE2_SEQ,DUNKG_SEQ
     985 00005680     0087          .word   DUNKZ8_SEQ
     986 00005690     0073          .word   DUNKZ6_SEQ
     987 000056a0     0059          .word   DUNKP2_SEQ,DUNKP_SEQ
     988 000056c0     005f          .word   DUNKR_SEQ
     989 000056d0     0060          .word   DUNKR2_SEQ
     990 000056e0     0064          .word   DUNKT2_SEQ
     991 000056f0     0065          .word   DUNKT3_SEQ
     992 00005700     0066          .word   DUNKT4_SEQ
     993 00005710     0067          .word   DUNKT5_SEQ
     994 00005720     0043          .word   DUNKD_SEQ,DUNKE_SEQ,DUNKE2_SEQ,DUNKG_SEQ
     995 00005760     0044          .word   DUNKD2_SEQ
     996 00005770     0058          .word   DUNKP_SEQ
     997 00005780     0059          .word   DUNKP2_SEQ
     998 00005790     005f          .word   DUNKR_SEQ
     999 000057a0     0060          .word   DUNKR2_SEQ
    1000 000057b0     006d          .word   DUNKY_SEQ
    1001 000057c0     006e          .word   DUNKY2_SEQ
    1002                    
    1003 000057d0     0003  zfeld5m_t       .word   4-1,DUNKN_SEQ,DUNKN_SEQ
    1004 00005800     0080          .word   DUNKLAY_SEQ
    1005 00005810     0080          .word   DUNKLAY_SEQ
    1006                    
    1007 00005820     0002  zfeld1l_t       .word   3-1
    1008 00005830     0085          .word   DUNKLAY6_SEQ
    1009 00005840     0075          .word   DUNKLAY7_SEQ
    1010 00005850     0086          .word   DUNKZ4_SEQ
    1011                    
    1012 00005860           zfeld2l_t
    1013 00005860     001c          .word   29-1
    1014 00005870     0088          .word   DUNKZ9_SEQ
    1015 00005880     0086          .word   DUNKZ4_SEQ
    1016 00005890     003e          .word   DUNKA2_SEQ
    1017 000058a0     003d          .word   DUNKA_SEQ,DUNKB_SEQ,DUNKF_SEQ,DUNKJ_SEQ
TMS340 COFF Macro Assembler Version 6.10     Tue Dec 19 01:45:09 2023
 Copyright (c) 1985-1991  Texas Instruments Incorporated 

basketball player code                                               PAGE   22

    1018 000058e0     004b          .word   DUNKJ2_SEQ,DUNKO2_SEQ,DUNKK_SEQ,DUNKK2_SEQ
    1019 00005920     004a          .word   DUNKJ_SEQ
    1020 00005930     004a          .word   DUNKJ_SEQ
    1021 00005940     005b          .word   DUNKQ_SEQ
    1022 00005950     005d          .word   DUNKQ3_SEQ
    1023 00005960     005f          .word   DUNKR_SEQ
    1024 00005970     0060          .word   DUNKR2_SEQ
    1025 00005980     0067          .word   DUNKT5_SEQ
    1026 00005990     006c          .word   DUNKW3_SEQ
    1027 000059a0     006b          .word   DUNKW2_SEQ
    1028 000059b0     006a          .word   DUNKW_SEQ
    1029 000059c0     006d          .word   DUNKY_SEQ
    1030 000059d0     006e          .word   DUNKY2_SEQ
    1031 000059e0     006f          .word   DUNKZ_SEQ
    1032 000059f0     0070          .word   DUNKZ2_SEQ
    1033 00005a00     0071          .word   DUNKZ3_SEQ
    1034 00005a10     0083          .word   DUNKLAY4_SEQ
    1035 00005a20     0085          .word   DUNKLAY6_SEQ
    1036 00005a30     0075          .word   DUNKLAY7_SEQ
    1037                    
    1038 00005a40     002d  zfeld3l_t       .word   46-1
    1039 00005a50     0087          .word   DUNKZ8_SEQ
    1040 00005a60     0088          .word   DUNKZ9_SEQ
    1041 00005a70     0088          .word   DUNKZ9_SEQ
    1042 00005a80     0089          .word   DUNKZ10_SEQ
    1043 00005a90     0089          .word   DUNKZ10_SEQ
    1044 00005aa0     008a          .word   DUNKZ11_SEQ
    1045 00005ab0     008a          .word   DUNKZ11_SEQ
    1046 00005ac0     0073          .word   DUNKZ6_SEQ
    1047 00005ad0     0086          .word   DUNKZ4_SEQ
    1048 00005ae0     0076          .word   DUNKLAY3A_SEQ
    1049 00005af0     0082          .word   DUNKLAY3_SEQ
    1050 00005b00     003e          .word   DUNKA2_SEQ
    1051 00005b10     0058          .word   DUNKP_SEQ,DUNKA_SEQ,DUNKB_SEQ,DUNKC_SEQ,DUNKD_SEQ
    1052 00005b60     0045          .word   DUNKE_SEQ,DUNKE2_SEQ,DUNKD2_SEQ
    1053 00005b90     0050          .word   DUNKL_SEQ,DUNKL2_SEQ,DUNKL3_SEQ,DUNKL4_SEQ
    1054 00005bd0     0059          .word   DUNKP2_SEQ
    1055 00005be0     005a          .word   DUNKP3_SEQ
    1056 00005bf0     004e          .word   DUNKK_SEQ
    1057 00005c00     004f          .word   DUNKK2_SEQ
    1058 00005c10     005f          .word   DUNKR_SEQ
    1059 00005c20     0060          .word   DUNKR2_SEQ
    1060 00005c30     0067          .word   DUNKT5_SEQ
    1061 00005c40     0078          .word   DUNKU2_SEQ
    1062 00005c50     0079          .word   DUNKU3_SEQ
    1063 00005c60     007a          .word   DUNKU4_SEQ
    1064 00005c70     007b          .word   DUNKU5_SEQ
    1065 00005c80     007c          .word   DUNKU6_SEQ
    1066 00005c90     007d          .word   DUNKX_SEQ
    1067 00005ca0     007e          .word   DUNKX2_SEQ
    1068 00005cb0     007f          .word   DUNKX3_SEQ
    1069 00005cc0     006d          .word   DUNKY_SEQ
    1070 00005cd0     006e          .word   DUNKY2_SEQ
    1071 00005ce0     006f          .word   DUNKZ_SEQ
    1072 00005cf0     0070          .word   DUNKZ2_SEQ
TMS340 COFF Macro Assembler Version 6.10     Tue Dec 19 01:45:09 2023
 Copyright (c) 1985-1991  Texas Instruments Incorporated 

basketball player code                                               PAGE   23

    1073 00005d00     0071          .word   DUNKZ3_SEQ
    1074 00005d10     0075          .word   DUNKLAY7_SEQ
    1075 00005d20     0075          .word   DUNKLAY7_SEQ
    1076                    
    1077 00005d30     000e  zfeld4l_t       .word   15-1
    1078 00005d40     0087          .word   DUNKZ8_SEQ
    1079 00005d50     0088          .word   DUNKZ9_SEQ
    1080 00005d60     0073          .word   DUNKZ6_SEQ
    1081 00005d70     0043          .word   DUNKD_SEQ,DUNKE_SEQ,DUNKE2_SEQ,DUNKG_SEQ
    1082 00005db0     0044          .word   DUNKD2_SEQ
    1083 00005dc0     0058          .word   DUNKP_SEQ
    1084 00005dd0     0059          .word   DUNKP2_SEQ
    1085 00005de0     005f          .word   DUNKR_SEQ
    1086 00005df0     0060          .word   DUNKR2_SEQ
    1087 00005e00     0067          .word   DUNKT5_SEQ
    1088 00005e10     006d          .word   DUNKY_SEQ
    1089 00005e20     006e          .word   DUNKY2_SEQ
    1090                    
    1091 00005e30     0000  zfeld5l_t       .word   1-1
    1092 00005e40     0080          .word   DUNKLAY_SEQ
    1093                    
    1094                    
    1095                    
    1096 00005e50 000062d0' d4u_t   .long   vrgwd1u_t,vrgwd2u_t,vrgwd3u_t,vrgwd4u_t
    1097 00005ed0 000063d0'         .long   vrgwd5u_t,vrgwd4u_t,vrgwd3u_t,vrgwd2u_t, vrgwd1u_t
    1098                    
    1099 00005f70 000063f0' d4s_t   .long   vrgwd1s_t,vrgwd2s_t,vrgwd3s_t,vrgwd4s_t
    1100 00005ff0 000067e0'         .long   vrgwd5s_t,vrgwd4s_t,vrgwd3s_t,vrgwd2s_t, vrgwd1s_t
    1101                    
    1102 00006090 00006820' d4m_t   .long   vrgwd1m_t,vrgwd2m_t,vrgwd3m_t,vrgwd4m_t
    1103 00006110 00007090'         .long   vrgwd5m_t,vrgwd4m_t,vrgwd3m_t,vrgwd2m_t, vrgwd1m_t
    1104                    
    1105 000061b0 000070d0' d4l_t   .long   vrgwd1l_t,vrgwd2l_t,vrgwd3l_t,vrgwd4l_t
    1106 00006230 000076c0'         .long   vrgwd5l_t,vrgwd4l_t,vrgwd3l_t,vrgwd2l_t, vrgwd1l_t
    1107                    
    1108 000062d0     0002  vrgwd1u_t       .word   3-1,DUNKB2_SEQ,DUNKZ5_SEQ,DUNKB3_SEQ
    1109 00006310     0002  vrgwd2u_t       .word   3-1,DUNKB2_SEQ,DUNKZ5_SEQ,DUNKB3_SEQ
    1110 00006350     0003  vrgwd3u_t       .word   4-1,DUNKB2_SEQ,DUNKZ5_SEQ,DUNKZ7_SEQ,DUNKB3_SEQ
    1111 000063a0     0001  vrgwd4u_t       .word   2-1,DUNKG2_SEQ,DUNKZ7_SEQ
    1112 000063d0     0000  vrgwd5u_t       .word   1-1,DUNKN2_SEQ
    1113                    
    1114 000063f0     000c  vrgwd1s_t       .word   13-1,DUNKB_SEQ,DUNKJ_SEQ,DUNKJ2_SEQ,DUNKJ_SEQ
    1115 00006440     004a          .word   DUNKJ_SEQ
    1116 00006450     005b          .word   DUNKQ_SEQ
    1117 00006460     005d          .word   DUNKQ3_SEQ
    1118 00006470     0063          .word   DUNKT_SEQ
    1119 00006480     0068          .word   DUNKV_SEQ
    1120 00006490     0069          .word   DUNKV2_SEQ
    1121 000064a0     0040          .word   DUNKB2_SEQ
    1122 000064b0     0085          .word   DUNKLAY6_SEQ
    1123 000064c0     0075          .word   DUNKLAY7_SEQ
    1124                    
    1125 000064d0     0013  vrgwd2s_t       .word   20-1,DUNKB_SEQ,DUNKF_SEQ,DUNKT_SEQ,DUNKO_SEQ
    1126 00006520     0083          .word   DUNKLAY4_SEQ
    1127 00006530     004b          .word   DUNKJ2_SEQ,DUNKJ_SEQ
TMS340 COFF Macro Assembler Version 6.10     Tue Dec 19 01:45:09 2023
 Copyright (c) 1985-1991  Texas Instruments Incorporated 

basketball player code                                               PAGE   24

    1128 00006550     005b          .word   DUNKQ_SEQ
    1129 00006560     005d          .word   DUNKQ3_SEQ
    1130 00006570     0061          .word   DUNKS_SEQ
    1131 00006580     0062          .word   DUNKS2_SEQ
    1132 00006590     0040          .word   DUNKB2_SEQ
    1133 000065a0     0064          .word   DUNKT2_SEQ
    1134 000065b0     0065          .word   DUNKT3_SEQ
    1135 000065c0     006c          .word   DUNKW3_SEQ
    1136 000065d0     006b          .word   DUNKW2_SEQ
    1137 000065e0     006a          .word   DUNKW_SEQ
    1138 000065f0     0080          .word   DUNKLAY_SEQ
    1139 00006600     0085          .word   DUNKLAY6_SEQ
    1140 00006610     0075          .word   DUNKLAY7_SEQ
    1141                    
    1142 00006620     0010  vrgwd3s_t       .word   17-1,DUNKP_SEQ,DUNKB_SEQ,DUNKE_SEQ,DUNKE2_SEQ,DUNKT_SEQ
    1143 00006680     0089          .word   DUNKZ10_SEQ
    1144 00006690     0040          .word   DUNKB2_SEQ
    1145 000066a0     0059          .word   DUNKP2_SEQ
    1146 000066b0     0064          .word   DUNKT2_SEQ
    1147 000066c0     0065          .word   DUNKT3_SEQ
    1148 000066d0     0077          .word   DUNKU_SEQ
    1149 000066e0     0080          .word   DUNKLAY_SEQ
    1150 000066f0     0076          .word   DUNKLAY3A_SEQ
    1151 00006700     0082          .word   DUNKLAY3_SEQ
    1152 00006710     0082          .word   DUNKLAY3_SEQ
    1153 00006720     0084          .word   DUNKLAY5_SEQ
    1154 00006730     0075          .word   DUNKLAY7_SEQ
    1155                    
    1156 00006740     0008  vrgwd4s_t       .word   9-1,DUNKP_SEQ,DUNKE_SEQ,DUNKE2_SEQ,DUNKG_SEQ,DUNKT_SEQ
    1157 000067a0     0059          .word   DUNKP2_SEQ
    1158 000067b0     0064          .word   DUNKT2_SEQ
    1159 000067c0     0065          .word   DUNKT3_SEQ
    1160 000067d0     0080          .word   DUNKLAY_SEQ
    1161                    
    1162 000067e0     0002  vrgwd5s_t       .word   3-1,DUNKN_SEQ,DUNKN_SEQ
    1163 00006810     0080          .word   DUNKLAY_SEQ
    1164                    
    1165 00006820     000f  vrgwd1m_t       .word   16-1,DUNKA_SEQ,DUNKB_SEQ,DUNKJ_SEQ,DUNKJ2_SEQ
    1166 00006870     0086          .word   DUNKZ4_SEQ
    1167 00006880     003e          .word   DUNKA2_SEQ
    1168 00006890     004a          .word   DUNKJ_SEQ
    1169 000068a0     004a          .word   DUNKJ_SEQ
    1170 000068b0     005b          .word   DUNKQ_SEQ
    1171 000068c0     005d          .word   DUNKQ3_SEQ
    1172 000068d0     0068          .word   DUNKV_SEQ
    1173 000068e0     0069          .word   DUNKV2_SEQ
    1174 000068f0     0080          .word   DUNKLAY_SEQ
    1175 00006900     0081          .word   DUNKLAY2_SEQ
    1176 00006910     0085          .word   DUNKLAY6_SEQ
    1177 00006920     0075          .word   DUNKLAY7_SEQ
    1178                    
    1179 00006930     0027  vrgwd2m_t       .word   40-1,DUNKB_SEQ,DUNKF_SEQ,DUNKJ_SEQ,DUNKO_SEQ
    1180 00006980     0086          .word   DUNKZ4_SEQ
    1181 00006990     004e          .word   DUNKK_SEQ,DUNKK2_SEQ,DUNKJ2_SEQ
    1182 000069c0     004a          .word   DUNKJ_SEQ
TMS340 COFF Macro Assembler Version 6.10     Tue Dec 19 01:45:09 2023
 Copyright (c) 1985-1991  Texas Instruments Incorporated 

basketball player code                                               PAGE   25

    1183 000069d0     005b          .word   DUNKQ_SEQ
    1184 000069e0     005d          .word   DUNKQ3_SEQ
    1185 000069f0     005f          .word   DUNKR_SEQ
    1186 00006a00     0060          .word   DUNKR2_SEQ
    1187 00006a10     0083          .word   DUNKLAY4_SEQ
    1188 00006a20     0064          .word   DUNKT2_SEQ
    1189 00006a30     0065          .word   DUNKT3_SEQ
    1190 00006a40     003e          .word   DUNKA2_SEQ
    1191 00006a50     003d          .word   DUNKA_SEQ,DUNKB_SEQ,DUNKF_SEQ,DUNKJ_SEQ
    1192 00006a90     004b          .word   DUNKJ2_SEQ,DUNKO2_SEQ,DUNKK_SEQ,DUNKK2_SEQ
    1193 00006ad0     004a          .word   DUNKJ_SEQ
    1194 00006ae0     004a          .word   DUNKJ_SEQ
    1195 00006af0     005b          .word   DUNKQ_SEQ
    1196 00006b00     005d          .word   DUNKQ3_SEQ
    1197 00006b10     005f          .word   DUNKR_SEQ
    1198 00006b20     0060          .word   DUNKR2_SEQ
    1199 00006b30     006c          .word   DUNKW3_SEQ
    1200 00006b40     006b          .word   DUNKW2_SEQ
    1201 00006b50     006a          .word   DUNKW_SEQ
    1202 00006b60     006e          .word   DUNKY2_SEQ
    1203 00006b70     006f          .word   DUNKZ_SEQ
    1204 00006b80     0070          .word   DUNKZ2_SEQ
    1205 00006b90     0071          .word   DUNKZ3_SEQ
    1206 00006ba0     0085          .word   DUNKLAY6_SEQ
    1207 00006bb0     0075          .word   DUNKLAY7_SEQ
    1208                    
    1209 00006bc0     0034  vrgwd3m_t       .word   53-1,DUNKB_SEQ,DUNKC_SEQ,DUNKE_SEQ,DUNKE2_SEQ
    1210 00006c10     0087          .word   DUNKZ8_SEQ
    1211 00006c20     0089          .word   DUNKZ10_SEQ
    1212 00006c30     0089          .word   DUNKZ10_SEQ
    1213 00006c40     0073          .word   DUNKZ6_SEQ
    1214 00006c50     0086          .word   DUNKZ4_SEQ
    1215 00006c60     0050          .word   DUNKL_SEQ,DUNKL4_SEQ
    1216 00006c80     0059          .word   DUNKP2_SEQ
    1217 00006c90     004e          .word   DUNKK_SEQ
    1218 00006ca0     004f          .word   DUNKK2_SEQ
    1219 00006cb0     005f          .word   DUNKR_SEQ
    1220 00006cc0     0060          .word   DUNKR2_SEQ
    1221 00006cd0     0064          .word   DUNKT2_SEQ
    1222 00006ce0     0065          .word   DUNKT3_SEQ
    1223 00006cf0     003e          .word   DUNKA2_SEQ
    1224 00006d00     0058          .word   DUNKP_SEQ,DUNKA_SEQ,DUNKB_SEQ,DUNKC_SEQ,DUNKD_SEQ
    1225 00006d50     0045          .word   DUNKE_SEQ,DUNKT_SEQ,DUNKE2_SEQ,DUNKD2_SEQ
    1226 00006d90     0050          .word   DUNKL_SEQ,DUNKL2_SEQ,DUNKL3_SEQ,DUNKL4_SEQ
    1227 00006dd0     0059          .word   DUNKP2_SEQ
    1228 00006de0     005a          .word   DUNKP3_SEQ
    1229 00006df0     004e          .word   DUNKK_SEQ
    1230 00006e00     004f          .word   DUNKK2_SEQ
    1231 00006e10     005f          .word   DUNKR_SEQ
    1232 00006e20     0060          .word   DUNKR2_SEQ
    1233 00006e30     0077          .word   DUNKU_SEQ
    1234 00006e40     0078          .word   DUNKU2_SEQ
    1235 00006e50     0079          .word   DUNKU3_SEQ
    1236 00006e60     007a          .word   DUNKU4_SEQ
    1237 00006e70     007b          .word   DUNKU5_SEQ
TMS340 COFF Macro Assembler Version 6.10     Tue Dec 19 01:45:09 2023
 Copyright (c) 1985-1991  Texas Instruments Incorporated 

basketball player code                                               PAGE   26

    1238 00006e80     007c          .word   DUNKU6_SEQ
    1239 00006e90     006e          .word   DUNKY2_SEQ
    1240 00006ea0     006f          .word   DUNKZ_SEQ
    1241 00006eb0     0070          .word   DUNKZ2_SEQ
    1242 00006ec0     0071          .word   DUNKZ3_SEQ
    1243 00006ed0     0076          .word   DUNKLAY3A_SEQ
    1244 00006ee0     0082          .word   DUNKLAY3_SEQ
    1245 00006ef0     0084          .word   DUNKLAY5_SEQ
    1246 00006f00     0082          .word   DUNKLAY3_SEQ
    1247 00006f10     0075          .word   DUNKLAY7_SEQ
    1248                    
    1249 00006f20     0015  vrgwd4m_t       .word   22-1,DUNKE_SEQ,DUNKE2_SEQ,DUNKG_SEQ
    1250 00006f60     0087          .word   DUNKZ8_SEQ
    1251 00006f70     0073          .word   DUNKZ6_SEQ
    1252 00006f80     0059          .word   DUNKP2_SEQ,DUNKP_SEQ
    1253 00006fa0     005f          .word   DUNKR_SEQ
    1254 00006fb0     0060          .word   DUNKR2_SEQ
    1255 00006fc0     0064          .word   DUNKT2_SEQ
    1256 00006fd0     0065          .word   DUNKT3_SEQ
    1257 00006fe0     0043          .word   DUNKD_SEQ,DUNKE_SEQ,DUNKE2_SEQ,DUNKG_SEQ
    1258 00007020     0044          .word   DUNKD2_SEQ
    1259 00007030     0058          .word   DUNKP_SEQ
    1260 00007040     0059          .word   DUNKP2_SEQ
    1261 00007050     005f          .word   DUNKR_SEQ
    1262 00007060     0060          .word   DUNKR2_SEQ
    1263 00007070     006e          .word   DUNKY2_SEQ
    1264 00007080     0080          .word   DUNKLAY_SEQ
    1265                    
    1266 00007090     0002  vrgwd5m_t       .word   3-1,DUNKN_SEQ,DUNKN_SEQ
    1267 000070c0     0080          .word   DUNKLAY_SEQ
    1268                    
    1269 000070d0     0004  vrgwd1l_t       .word   5-1
    1270 000070e0     0086          .word   DUNKZ4_SEQ
    1271 000070f0     0081          .word   DUNKLAY2_SEQ
    1272 00007100     0081          .word   DUNKLAY2_SEQ
    1273 00007110     0085          .word   DUNKLAY6_SEQ
    1274 00007120     0075          .word   DUNKLAY7_SEQ
    1275                    
    1276 00007130           vrgwd2l_t
    1277 00007130     001c          .word   29-1
    1278 00007140     0088          .word   DUNKZ9_SEQ
    1279 00007150     0086          .word   DUNKZ4_SEQ
    1280 00007160     003e          .word   DUNKA2_SEQ
    1281 00007170     003d          .word   DUNKA_SEQ,DUNKB_SEQ,DUNKF_SEQ,DUNKJ_SEQ
    1282 000071b0     004b          .word   DUNKJ2_SEQ,DUNKO2_SEQ,DUNKK_SEQ,DUNKK2_SEQ
    1283 000071f0     0083          .word   DUNKLAY4_SEQ
    1284 00007200     004a          .word   DUNKJ_SEQ
    1285 00007210     004a          .word   DUNKJ_SEQ
    1286 00007220     005b          .word   DUNKQ_SEQ
    1287 00007230     005d          .word   DUNKQ3_SEQ
    1288 00007240     005f          .word   DUNKR_SEQ
    1289 00007250     0060          .word   DUNKR2_SEQ
    1290 00007260     006c          .word   DUNKW3_SEQ
    1291 00007270     006b          .word   DUNKW2_SEQ
    1292 00007280     006a          .word   DUNKW_SEQ
TMS340 COFF Macro Assembler Version 6.10     Tue Dec 19 01:45:09 2023
 Copyright (c) 1985-1991  Texas Instruments Incorporated 

basketball player code                                               PAGE   27

    1293 00007290     006e          .word   DUNKY2_SEQ
    1294 000072a0     006f          .word   DUNKZ_SEQ
    1295 000072b0     0070          .word   DUNKZ2_SEQ
    1296 000072c0     0071          .word   DUNKZ3_SEQ
    1297 000072d0     0081          .word   DUNKLAY2_SEQ
    1298 000072e0     0081          .word   DUNKLAY2_SEQ
    1299 000072f0     0085          .word   DUNKLAY6_SEQ
    1300 00007300     0075          .word   DUNKLAY7_SEQ
    1301                    
    1302 00007310     002a  vrgwd3l_t       .word   43-1
    1303 00007320     0087          .word   DUNKZ8_SEQ
    1304 00007330     0088          .word   DUNKZ9_SEQ
    1305 00007340     0088          .word   DUNKZ9_SEQ
    1306 00007350     0089          .word   DUNKZ10_SEQ
    1307 00007360     0089          .word   DUNKZ10_SEQ
    1308 00007370     008a          .word   DUNKZ11_SEQ
    1309 00007380     008a          .word   DUNKZ11_SEQ
    1310 00007390     0073          .word   DUNKZ6_SEQ
    1311 000073a0     0086          .word   DUNKZ4_SEQ
    1312 000073b0     003e          .word   DUNKA2_SEQ
    1313 000073c0     0058          .word   DUNKP_SEQ,DUNKA_SEQ,DUNKB_SEQ,DUNKC_SEQ,DUNKD_SEQ
    1314 00007410     0084          .word   DUNKLAY5_SEQ
    1315 00007420     0045          .word   DUNKE_SEQ,DUNKE2_SEQ,DUNKD2_SEQ
    1316 00007450     0050          .word   DUNKL_SEQ,DUNKL2_SEQ,DUNKL3_SEQ,DUNKL4_SEQ
    1317 00007490     0059          .word   DUNKP2_SEQ
    1318 000074a0     005a          .word   DUNKP3_SEQ
    1319 000074b0     004e          .word   DUNKK_SEQ
    1320 000074c0     004f          .word   DUNKK2_SEQ
    1321 000074d0     005f          .word   DUNKR_SEQ
    1322 000074e0     0060          .word   DUNKR2_SEQ
    1323 000074f0     0078          .word   DUNKU2_SEQ
    1324 00007500     0079          .word   DUNKU3_SEQ
    1325 00007510     007a          .word   DUNKU4_SEQ
    1326 00007520     007b          .word   DUNKU5_SEQ
    1327 00007530     007c          .word   DUNKU6_SEQ
    1328 00007540     006e          .word   DUNKY2_SEQ
    1329 00007550     006f          .word   DUNKZ_SEQ
    1330 00007560     0070          .word   DUNKZ2_SEQ
    1331 00007570     0071          .word   DUNKZ3_SEQ
    1332 00007580     0080          .word   DUNKLAY_SEQ
    1333 00007590     0076          .word   DUNKLAY3A_SEQ
    1334 000075a0     0082          .word   DUNKLAY3_SEQ
    1335 000075b0     0082          .word   DUNKLAY3_SEQ
    1336 000075c0     0075          .word   DUNKLAY7_SEQ
    1337                    
    1338 000075d0     000d  vrgwd4l_t       .word   14-1
    1339 000075e0     0087          .word   DUNKZ8_SEQ
    1340 000075f0     0088          .word   DUNKZ9_SEQ
    1341 00007600     0073          .word   DUNKZ6_SEQ
    1342 00007610     0043          .word   DUNKD_SEQ,DUNKE_SEQ,DUNKE2_SEQ,DUNKG_SEQ
    1343 00007650     0044          .word   DUNKD2_SEQ
    1344 00007660     0058          .word   DUNKP_SEQ
    1345 00007670     0059          .word   DUNKP2_SEQ
    1346 00007680     005f          .word   DUNKR_SEQ
    1347 00007690     0060          .word   DUNKR2_SEQ
TMS340 COFF Macro Assembler Version 6.10     Tue Dec 19 01:45:09 2023
 Copyright (c) 1985-1991  Texas Instruments Incorporated 

basketball player code                                               PAGE   28

    1348 000076a0     006e          .word   DUNKY2_SEQ
    1349 000076b0     0080          .word   DUNKLAY_SEQ
    1350                    
    1351 000076c0     0000  vrgwd5l_t       .word   1-1
    1352 000076d0     0080          .word   DUNKLAY_SEQ
    1353                    
    1354                    
    1355                    
    1356 000076e0 00007b60' d3u_t   .long   odmgd1u_t,odmgd2u_t,odmgd3u_t,odmgd4u_t
    1357 00007760 00007c60'         .long   odmgd5u_t,odmgd4u_t,odmgd3u_t,odmgd2u_t, odmgd1u_t
    1358                    
    1359 00007800 00007c80' d3s_t   .long   odmgd1s_t,odmgd2s_t,odmgd3s_t,odmgd4s_t
    1360 00007880 00008010'         .long   odmgd5s_t,odmgd4s_t,odmgd3s_t,odmgd2s_t, odmgd1s_t
    1361                    
    1362 00007920 00008050' d3m_t   .long   odmgd1m_t,odmgd2m_t,odmgd3m_t,odmgd4m_t
    1363 000079a0 00008780'         .long   odmgd5m_t,odmgd4m_t,odmgd3m_t,odmgd2m_t, odmgd1m_t
    1364                    
    1365 00007a40 000087c0' d3l_t   .long   odmgd1l_t,odmgd2l_t,odmgd3l_t,odmgd4l_t
    1366 00007ac0 00008c60'         .long   odmgd5l_t,odmgd4l_t,odmgd3l_t,odmgd2l_t, odmgd1l_t
    1367                    
    1368                    
    1369 00007b60     0002  odmgd1u_t       .word   3-1,DUNKB2_SEQ,DUNKZ5_SEQ,DUNKB3_SEQ
    1370 00007ba0     0002  odmgd2u_t       .word   3-1,DUNKB2_SEQ,DUNKZ5_SEQ,DUNKB3_SEQ
    1371 00007be0     0003  odmgd3u_t       .word   4-1,DUNKB2_SEQ,DUNKZ5_SEQ,DUNKZ7_SEQ,DUNKB3_SEQ
    1372 00007c30     0001  odmgd4u_t       .word   2-1,DUNKG2_SEQ,DUNKZ7_SEQ
    1373 00007c60     0000  odmgd5u_t       .word   1-1,DUNKN2_SEQ
    1374                    
    1375 00007c80     000f  odmgd1s_t       .word   16-1,DUNKB_SEQ,DUNKJ_SEQ,DUNKJ2_SEQ,DUNKJ_SEQ
    1376 00007cd0     004a          .word   DUNKJ_SEQ
    1377 00007ce0     005b          .word   DUNKQ_SEQ
    1378 00007cf0     005d          .word   DUNKQ3_SEQ
    1379 00007d00     0063          .word   DUNKT_SEQ
    1380 00007d10     0068          .word   DUNKV_SEQ
    1381 00007d20     0069          .word   DUNKV2_SEQ
    1382 00007d30     0040          .word   DUNKB2_SEQ
    1383 00007d40     0080          .word   DUNKLAY_SEQ
    1384 00007d50     0081          .word   DUNKLAY2_SEQ
    1385 00007d60     0081          .word   DUNKLAY2_SEQ
    1386 00007d70     0085          .word   DUNKLAY6_SEQ
    1387 00007d80     0075          .word   DUNKLAY7_SEQ
    1388                    
    1389 00007d90     0011  odmgd2s_t       .word   18-1,DUNKB_SEQ,DUNKF_SEQ,DUNKT_SEQ
    1390 00007dd0     0075          .word   DUNKLAY7_SEQ
    1391 00007de0     0083          .word   DUNKLAY4_SEQ
    1392 00007df0     004b          .word   DUNKJ2_SEQ,DUNKJ_SEQ
    1393 00007e10     005b          .word   DUNKQ_SEQ
    1394 00007e20     005d          .word   DUNKQ3_SEQ
    1395 00007e30     0061          .word   DUNKS_SEQ
    1396 00007e40     0062          .word   DUNKS2_SEQ
    1397 00007e50     0040          .word   DUNKB2_SEQ
    1398 00007e60     0065          .word   DUNKT3_SEQ
    1399 00007e70     0081          .word   DUNKLAY2_SEQ
    1400 00007e80     006c          .word   DUNKW3_SEQ
    1401 00007e90     0081          .word   DUNKLAY2_SEQ
    1402 00007ea0     0080          .word   DUNKLAY_SEQ
TMS340 COFF Macro Assembler Version 6.10     Tue Dec 19 01:45:09 2023
 Copyright (c) 1985-1991  Texas Instruments Incorporated 

basketball player code                                               PAGE   29

    1403 00007eb0     0085          .word   DUNKLAY6_SEQ
    1404                    
    1405 00007ec0     000c  odmgd3s_t       .word   13-1,DUNKB_SEQ,DUNKE_SEQ,DUNKE2_SEQ,DUNKT_SEQ
    1406 00007f10     0089          .word   DUNKZ10_SEQ
    1407 00007f20     0075          .word   DUNKLAY7_SEQ
    1408 00007f30     0040          .word   DUNKB2_SEQ
    1409 00007f40     0065          .word   DUNKT3_SEQ
    1410 00007f50     0077          .word   DUNKU_SEQ
    1411 00007f60     0080          .word   DUNKLAY_SEQ
    1412 00007f70     0076          .word   DUNKLAY3A_SEQ
    1413 00007f80     0084          .word   DUNKLAY5_SEQ
    1414 00007f90     0082          .word   DUNKLAY3_SEQ
    1415                    
    1416 00007fa0     0005  odmgd4s_t       .word   6-1,DUNKE_SEQ,DUNKE2_SEQ,DUNKG_SEQ,DUNKT_SEQ
    1417 00007ff0     0065          .word   DUNKT3_SEQ
    1418 00008000     0080          .word   DUNKLAY_SEQ
    1419                    
    1420 00008010     0002  odmgd5s_t       .word   3-1,DUNKN_SEQ,DUNKN_SEQ
    1421 00008040     0080          .word   DUNKLAY_SEQ
    1422                    
    1423 00008050     0010  odmgd1m_t       .word   17-1,DUNKA_SEQ,DUNKB_SEQ,DUNKJ_SEQ,DUNKJ2_SEQ
    1424 000080a0     0086          .word   DUNKZ4_SEQ
    1425 000080b0     0075          .word   DUNKLAY7_SEQ
    1426 000080c0     003e          .word   DUNKA2_SEQ
    1427 000080d0     004a          .word   DUNKJ_SEQ
    1428 000080e0     004a          .word   DUNKJ_SEQ
    1429 000080f0     005b          .word   DUNKQ_SEQ
    1430 00008100     005d          .word   DUNKQ3_SEQ
    1431 00008110     0068          .word   DUNKV_SEQ
    1432 00008120     0069          .word   DUNKV2_SEQ
    1433 00008130     0080          .word   DUNKLAY_SEQ
    1434 00008140     0081          .word   DUNKLAY2_SEQ
    1435 00008150     0081          .word   DUNKLAY2_SEQ
    1436 00008160     0085          .word   DUNKLAY6_SEQ
    1437                    
    1438 00008170     0023  odmgd2m_t       .word   36-1,DUNKB_SEQ,DUNKF_SEQ,DUNKJ_SEQ
    1439 000081b0     0086          .word   DUNKZ4_SEQ
    1440 000081c0     0075          .word   DUNKLAY7_SEQ
    1441 000081d0     0083          .word   DUNKLAY4_SEQ
    1442 000081e0     004e          .word   DUNKK_SEQ,DUNKK2_SEQ,DUNKJ2_SEQ
    1443 00008210     004a          .word   DUNKJ_SEQ
    1444 00008220     005b          .word   DUNKQ_SEQ
    1445 00008230     005d          .word   DUNKQ3_SEQ
    1446 00008240     005f          .word   DUNKR_SEQ
    1447 00008250     0060          .word   DUNKR2_SEQ
    1448 00008260     0065          .word   DUNKT3_SEQ
    1449 00008270     003e          .word   DUNKA2_SEQ
    1450 00008280     003d          .word   DUNKA_SEQ,DUNKB_SEQ,DUNKF_SEQ,DUNKJ_SEQ
    1451 000082c0     004b          .word   DUNKJ2_SEQ,DUNKK_SEQ,DUNKK2_SEQ
    1452 000082f0     004a          .word   DUNKJ_SEQ
    1453 00008300     004a          .word   DUNKJ_SEQ
    1454 00008310     005b          .word   DUNKQ_SEQ
    1455 00008320     005d          .word   DUNKQ3_SEQ
    1456 00008330     005f          .word   DUNKR_SEQ
    1457 00008340     0060          .word   DUNKR2_SEQ
TMS340 COFF Macro Assembler Version 6.10     Tue Dec 19 01:45:09 2023
 Copyright (c) 1985-1991  Texas Instruments Incorporated 

basketball player code                                               PAGE   30

    1458 00008350     006c          .word   DUNKW3_SEQ
    1459 00008360     006f          .word   DUNKZ_SEQ
    1460 00008370     0070          .word   DUNKZ2_SEQ
    1461 00008380     0080          .word   DUNKLAY_SEQ
    1462 00008390     0081          .word   DUNKLAY2_SEQ
    1463 000083a0     0081          .word   DUNKLAY2_SEQ
    1464 000083b0     0085          .word   DUNKLAY6_SEQ
    1465                    
    1466 000083c0     0029  odmgd3m_t       .word   42-1,DUNKB_SEQ,DUNKC_SEQ,DUNKE_SEQ,DUNKE2_SEQ
    1467 00008410     0087          .word   DUNKZ8_SEQ
    1468 00008420     0089          .word   DUNKZ10_SEQ
    1469 00008430     0073          .word   DUNKZ6_SEQ
    1470 00008440     0086          .word   DUNKZ4_SEQ
    1471 00008450     0075          .word   DUNKLAY7_SEQ
    1472 00008460     0050          .word   DUNKL_SEQ,DUNKL4_SEQ
    1473 00008480     004e          .word   DUNKK_SEQ
    1474 00008490     004f          .word   DUNKK2_SEQ
    1475 000084a0     005f          .word   DUNKR_SEQ
    1476 000084b0     0060          .word   DUNKR2_SEQ
    1477 000084c0     0065          .word   DUNKT3_SEQ
    1478 000084d0     003e          .word   DUNKA2_SEQ
    1479 000084e0     003d          .word   DUNKA_SEQ,DUNKB_SEQ,DUNKC_SEQ,DUNKD_SEQ
    1480 00008520     0045          .word   DUNKE_SEQ,DUNKT_SEQ,DUNKE2_SEQ,DUNKD2_SEQ
    1481 00008560     0050          .word   DUNKL_SEQ,DUNKL2_SEQ,DUNKL3_SEQ,DUNKL4_SEQ
    1482 000085a0     004e          .word   DUNKK_SEQ
    1483 000085b0     004f          .word   DUNKK2_SEQ
    1484 000085c0     005f          .word   DUNKR_SEQ
    1485 000085d0     0084          .word   DUNKLAY5_SEQ
    1486 000085e0     0060          .word   DUNKR2_SEQ
    1487 000085f0     0077          .word   DUNKU_SEQ
    1488 00008600     007c          .word   DUNKU6_SEQ
    1489 00008610     006f          .word   DUNKZ_SEQ
    1490 00008620     0070          .word   DUNKZ2_SEQ
    1491 00008630     0080          .word   DUNKLAY_SEQ
    1492 00008640     0076          .word   DUNKLAY3A_SEQ
    1493 00008650     0082          .word   DUNKLAY3_SEQ
    1494 00008660     0082          .word   DUNKLAY3_SEQ
    1495                    
    1496 00008670     000f  odmgd4m_t       .word   16-1,DUNKE_SEQ,DUNKE2_SEQ,DUNKG_SEQ
    1497 000086b0     0087          .word   DUNKZ8_SEQ
    1498 000086c0     0073          .word   DUNKZ6_SEQ
    1499 000086d0     005f          .word   DUNKR_SEQ
    1500 000086e0     0060          .word   DUNKR2_SEQ
    1501 000086f0     0065          .word   DUNKT3_SEQ
    1502 00008700     0043          .word   DUNKD_SEQ,DUNKE_SEQ,DUNKE2_SEQ,DUNKG_SEQ
    1503 00008740     0044          .word   DUNKD2_SEQ
    1504 00008750     005f          .word   DUNKR_SEQ
    1505 00008760     0060          .word   DUNKR2_SEQ
    1506 00008770     0080          .word   DUNKLAY_SEQ
    1507                    
    1508 00008780     0002  odmgd5m_t       .word   3-1,DUNKN_SEQ,DUNKN_SEQ
    1509 000087b0     0080          .word   DUNKLAY_SEQ
    1510                    
    1511 000087c0     0004  odmgd1l_t       .word   5-1
    1512 000087d0     0080          .word   DUNKLAY_SEQ
TMS340 COFF Macro Assembler Version 6.10     Tue Dec 19 01:45:09 2023
 Copyright (c) 1985-1991  Texas Instruments Incorporated 

basketball player code                                               PAGE   31

    1513 000087e0     0081          .word   DUNKLAY2_SEQ
    1514 000087f0     0085          .word   DUNKLAY6_SEQ
    1515 00008800     0075          .word   DUNKLAY7_SEQ
    1516 00008810     0086          .word   DUNKZ4_SEQ
    1517                    
    1518 00008820           odmgd2l_t
    1519 00008820     0017          .word   24-1
    1520 00008830     0086          .word   DUNKZ4_SEQ
    1521 00008840     0075          .word   DUNKLAY7_SEQ
    1522 00008850     0083          .word   DUNKLAY4_SEQ
    1523 00008860     003e          .word   DUNKA2_SEQ
    1524 00008870     003d          .word   DUNKA_SEQ,DUNKB_SEQ,DUNKF_SEQ,DUNKJ_SEQ
    1525 000088b0     004b          .word   DUNKJ2_SEQ,DUNKK_SEQ,DUNKK2_SEQ
    1526 000088e0     004a          .word   DUNKJ_SEQ
    1527 000088f0     004a          .word   DUNKJ_SEQ
    1528 00008900     005b          .word   DUNKQ_SEQ
    1529 00008910     005d          .word   DUNKQ3_SEQ
    1530 00008920     005f          .word   DUNKR_SEQ
    1531 00008930     0060          .word   DUNKR2_SEQ
    1532 00008940     006c          .word   DUNKW3_SEQ
    1533 00008950     006f          .word   DUNKZ_SEQ
    1534 00008960     0070          .word   DUNKZ2_SEQ
    1535 00008970     0080          .word   DUNKLAY_SEQ
    1536 00008980     0081          .word   DUNKLAY2_SEQ
    1537 00008990     0081          .word   DUNKLAY2_SEQ
    1538 000089a0     0085          .word   DUNKLAY6_SEQ
    1539                    
    1540 000089b0     001e  odmgd3l_t       .word   31-1
    1541 000089c0     0087          .word   DUNKZ8_SEQ
    1542 000089d0     0089          .word   DUNKZ10_SEQ
    1543 000089e0     008a          .word   DUNKZ11_SEQ
    1544 000089f0     008a          .word   DUNKZ11_SEQ
    1545 00008a00     0073          .word   DUNKZ6_SEQ
    1546 00008a10     0086          .word   DUNKZ4_SEQ
    1547 00008a20     0075          .word   DUNKLAY7_SEQ
    1548 00008a30     0084          .word   DUNKLAY5_SEQ
    1549 00008a40     003e          .word   DUNKA2_SEQ
    1550 00008a50     003d          .word   DUNKA_SEQ,DUNKB_SEQ,DUNKC_SEQ,DUNKD_SEQ
    1551 00008a90     0045          .word   DUNKE_SEQ,DUNKE2_SEQ,DUNKD2_SEQ
    1552 00008ac0     0050          .word   DUNKL_SEQ,DUNKL2_SEQ,DUNKL3_SEQ,DUNKL4_SEQ
    1553 00008b00     005a          .word   DUNKP3_SEQ
    1554 00008b10     004e          .word   DUNKK_SEQ
    1555 00008b20     004f          .word   DUNKK2_SEQ
    1556 00008b30     005f          .word   DUNKR_SEQ
    1557 00008b40     0060          .word   DUNKR2_SEQ
    1558 00008b50     007c          .word   DUNKU6_SEQ
    1559 00008b60     006f          .word   DUNKZ_SEQ
    1560 00008b70     0070          .word   DUNKZ2_SEQ
    1561 00008b80     0080          .word   DUNKLAY_SEQ
    1562 00008b90     0076          .word   DUNKLAY3A_SEQ
    1563 00008ba0     0082          .word   DUNKLAY3_SEQ
    1564                    
    1565 00008bb0     0009  odmgd4l_t       .word   10-1
    1566 00008bc0     0087          .word   DUNKZ8_SEQ
    1567 00008bd0     0073          .word   DUNKZ6_SEQ
TMS340 COFF Macro Assembler Version 6.10     Tue Dec 19 01:45:09 2023
 Copyright (c) 1985-1991  Texas Instruments Incorporated 

basketball player code                                               PAGE   32

    1568 00008be0     0043          .word   DUNKD_SEQ,DUNKE_SEQ,DUNKE2_SEQ,DUNKG_SEQ
    1569 00008c20     0044          .word   DUNKD2_SEQ
    1570 00008c30     005f          .word   DUNKR_SEQ
    1571 00008c40     0060          .word   DUNKR2_SEQ
    1572 00008c50     0080          .word   DUNKLAY_SEQ
    1573                    
    1574 00008c60     0000  odmgd5l_t       .word   1-1
    1575 00008c70     0080          .word   DUNKLAY_SEQ
    1576                    
    1577                    
    1578 00008c80 00009100' d2u_t   .long   jloud1u_t,jloud2u_t,jloud3u_t,jloud4u_t
    1579 00008d00 00009200'         .long   jloud5u_t,jloud4u_t,jloud3u_t,jloud2u_t, jloud1u_t
    1580                    
    1581 00008da0 00009220' d2s_t   .long   jloud1s_t,jloud2s_t,jloud3s_t,jloud4s_t
    1582 00008e20 000094f0'         .long   jloud5s_t,jloud4s_t,jloud3s_t,jloud2s_t, jloud1s_t
    1583                    
    1584 00008ec0 00009530' d2m_t   .long   jloud1m_t,jloud2m_t,jloud3m_t,jloud4m_t
    1585 00008f40 000099f0'         .long   jloud5m_t,jloud4m_t,jloud3m_t,jloud2m_t, jloud1m_t
    1586                    
    1587 00008fe0 00009a30' d2l_t   .long   jloud1l_t,jloud2l_t,jloud3l_t,jloud4l_t
    1588 00009060 00009d30'         .long   jloud5l_t,jloud4l_t,jloud3l_t,jloud2l_t, jloud1l_t
    1589                    
    1590                    
    1591 00009100     0002  jloud1u_t       .word   3-1,DUNKB2_SEQ,DUNKZ5_SEQ,DUNKB3_SEQ
    1592 00009140     0002  jloud2u_t       .word   3-1,DUNKB2_SEQ,DUNKZ5_SEQ,DUNKB3_SEQ
    1593 00009180     0003  jloud3u_t       .word   4-1,DUNKB2_SEQ,DUNKZ5_SEQ,DUNKZ7_SEQ,DUNKB3_SEQ
    1594 000091d0     0001  jloud4u_t       .word   2-1,DUNKG2_SEQ,DUNKZ7_SEQ
    1595 00009200     0000  jloud5u_t       .word   1-1,DUNKN2_SEQ
    1596                    
    1597 00009220     000a  jloud1s_t       .word   11-1,DUNKB_SEQ
    1598 00009240     0075          .word   DUNKLAY7_SEQ
    1599 00009250     005d          .word   DUNKQ3_SEQ
    1600 00009260     0063          .word   DUNKT_SEQ
    1601 00009270     0068          .word   DUNKV_SEQ
    1602 00009280     0069          .word   DUNKV2_SEQ
    1603 00009290     0040          .word   DUNKB2_SEQ
    1604 000092a0     0080          .word   DUNKLAY_SEQ
    1605 000092b0     0081          .word   DUNKLAY2_SEQ
    1606 000092c0     0081          .word   DUNKLAY2_SEQ
    1607 000092d0     0085          .word   DUNKLAY6_SEQ
    1608                    
    1609 000092e0     000c  jloud2s_t       .word   13-1,DUNKB_SEQ,DUNKF_SEQ,DUNKT_SEQ
    1610 00009320     0075          .word   DUNKLAY7_SEQ
    1611 00009330     0083          .word   DUNKLAY4_SEQ
    1612 00009340     005d          .word   DUNKQ3_SEQ
    1613 00009350     0061          .word   DUNKS_SEQ
    1614 00009360     0040          .word   DUNKB2_SEQ
    1615 00009370     0080          .word   DUNKLAY_SEQ
    1616 00009380     0065          .word   DUNKT3_SEQ
    1617 00009390     0081          .word   DUNKLAY2_SEQ
    1618 000093a0     0081          .word   DUNKLAY2_SEQ
    1619 000093b0     0085          .word   DUNKLAY6_SEQ
    1620                    
    1621 000093c0     000a  jloud3s_t       .word   11-1,DUNKB_SEQ,DUNKE_SEQ,DUNKE2_SEQ,DUNKT_SEQ
    1622 00009410     0075          .word   DUNKLAY7_SEQ
TMS340 COFF Macro Assembler Version 6.10     Tue Dec 19 01:45:09 2023
 Copyright (c) 1985-1991  Texas Instruments Incorporated 

basketball player code                                               PAGE   33

    1623 00009420     0084          .word   DUNKLAY5_SEQ
    1624 00009430     0040          .word   DUNKB2_SEQ
    1625 00009440     0065          .word   DUNKT3_SEQ
    1626 00009450     0080          .word   DUNKLAY_SEQ
    1627 00009460     0076          .word   DUNKLAY3A_SEQ
    1628 00009470     0082          .word   DUNKLAY3_SEQ
    1629                    
    1630 00009480     0005  jloud4s_t       .word   6-1,DUNKE_SEQ,DUNKE2_SEQ,DUNKG_SEQ,DUNKT_SEQ
    1631 000094d0     0065          .word   DUNKT3_SEQ
    1632 000094e0     0080          .word   DUNKLAY_SEQ
    1633                    
    1634 000094f0     0002  jloud5s_t       .word   3-1,DUNKN_SEQ,DUNKN_SEQ
    1635 00009520     0080          .word   DUNKLAY_SEQ
    1636                    
    1637 00009530     000b  jloud1m_t       .word   12-1,DUNKA_SEQ,DUNKB_SEQ
    1638 00009560     0086          .word   DUNKZ4_SEQ
    1639 00009570     0075          .word   DUNKLAY7_SEQ
    1640 00009580     003e          .word   DUNKA2_SEQ
    1641 00009590     005d          .word   DUNKQ3_SEQ
    1642 000095a0     0068          .word   DUNKV_SEQ
    1643 000095b0     0080          .word   DUNKLAY_SEQ
    1644 000095c0     0069          .word   DUNKV2_SEQ
    1645 000095d0     0081          .word   DUNKLAY2_SEQ
    1646 000095e0     0081          .word   DUNKLAY2_SEQ
    1647 000095f0     0085          .word   DUNKLAY6_SEQ
    1648                    
    1649 00009600     0017  jloud2m_t       .word   24-1,DUNKB_SEQ,DUNKF_SEQ
    1650 00009630     0086          .word   DUNKZ4_SEQ
    1651 00009640     0075          .word   DUNKLAY7_SEQ
    1652 00009650     004e          .word   DUNKK_SEQ,DUNKK2_SEQ
    1653 00009670     005d          .word   DUNKQ3_SEQ
    1654 00009680     0065          .word   DUNKT3_SEQ
    1655 00009690     003e          .word   DUNKA2_SEQ
    1656 000096a0     003d          .word   DUNKA_SEQ,DUNKB_SEQ,DUNKF_SEQ
    1657 000096d0     004e          .word   DUNKK_SEQ,DUNKK2_SEQ
    1658 000096f0     005d          .word   DUNKQ3_SEQ
    1659 00009700     0070          .word   DUNKZ2_SEQ
    1660 00009710     0080          .word   DUNKLAY_SEQ
    1661 00009720     0080          .word   DUNKLAY_SEQ
    1662 00009730     0081          .word   DUNKLAY2_SEQ
    1663 00009740     0081          .word   DUNKLAY2_SEQ
    1664 00009750     0081          .word   DUNKLAY2_SEQ
    1665 00009760     0083          .word   DUNKLAY4_SEQ
    1666 00009770     0085          .word   DUNKLAY6_SEQ
    1667 00009780     0085          .word   DUNKLAY6_SEQ
    1668                    
    1669 00009790     0019  jloud3m_t       .word   26-1,DUNKB_SEQ,DUNKC_SEQ,DUNKE_SEQ,DUNKE2_SEQ
    1670 000097e0     0086          .word   DUNKZ4_SEQ
    1671 000097f0     0075          .word   DUNKLAY7_SEQ
    1672 00009800     004e          .word   DUNKK_SEQ
    1673 00009810     004f          .word   DUNKK2_SEQ
    1674 00009820     0084          .word   DUNKLAY5_SEQ
    1675 00009830     0065          .word   DUNKT3_SEQ
    1676 00009840     003e          .word   DUNKA2_SEQ
    1677 00009850     003d          .word   DUNKA_SEQ,DUNKB_SEQ,DUNKC_SEQ,DUNKD_SEQ
TMS340 COFF Macro Assembler Version 6.10     Tue Dec 19 01:45:09 2023
 Copyright (c) 1985-1991  Texas Instruments Incorporated 

basketball player code                                               PAGE   34

    1678 00009890     0045          .word   DUNKE_SEQ,DUNKT_SEQ,DUNKE2_SEQ,DUNKD2_SEQ
    1679 000098d0     004e          .word   DUNKK_SEQ
    1680 000098e0     004f          .word   DUNKK2_SEQ
    1681 000098f0     0070          .word   DUNKZ2_SEQ
    1682 00009900     0080          .word   DUNKLAY_SEQ
    1683 00009910     0076          .word   DUNKLAY3A_SEQ
    1684 00009920     0082          .word   DUNKLAY3_SEQ
    1685 00009930     0082          .word   DUNKLAY3_SEQ
    1686                    
    1687 00009940     0009  jloud4m_t       .word   10-1,DUNKE_SEQ,DUNKE2_SEQ,DUNKG_SEQ
    1688 00009980     0065          .word   DUNKT3_SEQ
    1689 00009990     0043          .word   DUNKD_SEQ,DUNKE_SEQ,DUNKE2_SEQ,DUNKG_SEQ
    1690 000099d0     0044          .word   DUNKD2_SEQ
    1691 000099e0     0080          .word   DUNKLAY_SEQ
    1692                    
    1693 000099f0     0002  jloud5m_t       .word   3-1,DUNKN_SEQ,DUNKN_SEQ
    1694 00009a20     0080          .word   DUNKLAY_SEQ
    1695                    
    1696 00009a30     0004  jloud1l_t       .word   5-1
    1697 00009a40     0086          .word   DUNKZ4_SEQ
    1698 00009a50     0081          .word   DUNKLAY2_SEQ
    1699 00009a60     0080          .word   DUNKLAY_SEQ
    1700 00009a70     0085          .word   DUNKLAY6_SEQ
    1701 00009a80     0075          .word   DUNKLAY7_SEQ
    1702                    
    1703 00009a90           jloud2l_t
    1704 00009a90     000d          .word   14-1
    1705 00009aa0     0086          .word   DUNKZ4_SEQ
    1706 00009ab0     0075          .word   DUNKLAY7_SEQ
    1707 00009ac0     003e          .word   DUNKA2_SEQ
    1708 00009ad0     003d          .word   DUNKA_SEQ,DUNKB_SEQ,DUNKF_SEQ
    1709 00009b00     004e          .word   DUNKK_SEQ,DUNKK2_SEQ
    1710 00009b20     005d          .word   DUNKQ3_SEQ
    1711 00009b30     0070          .word   DUNKZ2_SEQ
    1712 00009b40     0080          .word   DUNKLAY_SEQ
    1713 00009b50     0081          .word   DUNKLAY2_SEQ
    1714 00009b60     0083          .word   DUNKLAY4_SEQ
    1715 00009b70     0085          .word   DUNKLAY6_SEQ
    1716                    
    1717 00009b80     0011  jloud3l_t       .word   18-1
    1718 00009b90     0086          .word   DUNKZ4_SEQ
    1719 00009ba0     0075          .word   DUNKLAY7_SEQ
    1720 00009bb0     003e          .word   DUNKA2_SEQ
    1721 00009bc0     0084          .word   DUNKLAY5_SEQ
    1722 00009bd0     003d          .word   DUNKA_SEQ,DUNKB_SEQ,DUNKC_SEQ,DUNKD_SEQ
    1723 00009c10     0045          .word   DUNKE_SEQ,DUNKE2_SEQ,DUNKD2_SEQ
    1724 00009c40     004e          .word   DUNKK_SEQ
    1725 00009c50     004f          .word   DUNKK2_SEQ
    1726 00009c60     0070          .word   DUNKZ2_SEQ
    1727 00009c70     0080          .word   DUNKLAY_SEQ
    1728 00009c80     0080          .word   DUNKLAY_SEQ
    1729 00009c90     0076          .word   DUNKLAY3A_SEQ
    1730 00009ca0     0082          .word   DUNKLAY3_SEQ
    1731                    
    1732 00009cb0     0006  jloud4l_t       .word   7-1
TMS340 COFF Macro Assembler Version 6.10     Tue Dec 19 01:45:09 2023
 Copyright (c) 1985-1991  Texas Instruments Incorporated 

basketball player code                                               PAGE   35

    1733 00009cc0     0043          .word   DUNKD_SEQ,DUNKE_SEQ,DUNKE2_SEQ,DUNKG_SEQ
    1734 00009d00     0044          .word   DUNKD2_SEQ
    1735 00009d10     0080          .word   DUNKLAY_SEQ
    1736 00009d20     0080          .word   DUNKLAY_SEQ
    1737                    
    1738 00009d30     0000  jloud5l_t       .word   1-1
    1739 00009d40     0080          .word   DUNKLAY_SEQ
    1740                    
    1741                    
    1742                    
    1743                    
    1744 00009d50 0000a1d0' d1u_t   .long   ewukd1u_t,ewukd2u_t,ewukd3u_t,ewukd4u_t
    1745 00009dd0 0000a2d0'         .long   ewukd5u_t,ewukd4u_t,ewukd3u_t,ewukd2u_t, ewukd1u_t
    1746                    
    1747 00009e70 0000a2f0' d1s_t   .long   ewukd1s_t,ewukd2s_t,ewukd3s_t,ewukd4s_t
    1748 00009ef0 0000a4c0'         .long   ewukd5s_t,ewukd4s_t,ewukd3s_t,ewukd2s_t, ewukd1s_t
    1749                    
    1750 00009f90 0000a4f0' d1m_t   .long   ewukd1m_t,ewukd2m_t,ewukd3m_t,ewukd4m_t
    1751 0000a010 0000a6b0'         .long   ewukd5m_t,ewukd4m_t,ewukd3m_t,ewukd2m_t, ewukd1m_t
    1752                    
    1753 0000a0b0 0000a6d0' d1l_t   .long   ewukd1l_t,ewukd2l_t,ewukd3l_t,ewukd4l_t
    1754 0000a130 0000a850'         .long   ewukd5l_t,ewukd4l_t,ewukd3l_t,ewukd2l_t, ewukd1l_t
    1755                    
    1756 0000a1d0     0002  ewukd1u_t       .word   3-1,DUNKB2_SEQ,DUNKZ5_SEQ,DUNKB3_SEQ
    1757 0000a210     0002  ewukd2u_t       .word   3-1,DUNKB2_SEQ,DUNKZ5_SEQ,DUNKB3_SEQ
    1758 0000a250     0003  ewukd3u_t       .word   4-1,DUNKB2_SEQ,DUNKZ5_SEQ,DUNKZ7_SEQ,DUNKB3_SEQ
    1759 0000a2a0     0001  ewukd4u_t       .word   2-1,DUNKG2_SEQ,DUNKZ7_SEQ
    1760 0000a2d0     0000  ewukd5u_t       .word   1-1,DUNKN2_SEQ
    1761                    
    1762 0000a2f0     0005  ewukd1s_t       .word   6-1
    1763 0000a300     0075          .word   DUNKLAY7_SEQ
    1764 0000a310     0080          .word   DUNKLAY_SEQ
    1765 0000a320     0040          .word   DUNKB2_SEQ
    1766 0000a330     0081          .word   DUNKLAY2_SEQ
    1767 0000a340     0085          .word   DUNKLAY6_SEQ
    1768 0000a350     0085          .word   DUNKLAY6_SEQ
    1769                    
    1770 0000a360     0007  ewukd2s_t       .word   8-1,DUNKF_SEQ
    1771 0000a380     0075          .word   DUNKLAY7_SEQ
    1772 0000a390     0040          .word   DUNKB2_SEQ
    1773 0000a3a0     0080          .word   DUNKLAY_SEQ
    1774 0000a3b0     0081          .word   DUNKLAY2_SEQ
    1775 0000a3c0     0083          .word   DUNKLAY4_SEQ
    1776 0000a3d0     0085          .word   DUNKLAY6_SEQ
    1777 0000a3e0     0085          .word   DUNKLAY6_SEQ
    1778                    
    1779 0000a3f0     0005  ewukd3s_t       .word   6-1
    1780 0000a400     0075          .word   DUNKLAY7_SEQ
    1781 0000a410     0084          .word   DUNKLAY5_SEQ
    1782 0000a420     0040          .word   DUNKB2_SEQ
    1783 0000a430     0080          .word   DUNKLAY_SEQ
    1784 0000a440     0076          .word   DUNKLAY3A_SEQ
    1785 0000a450     0082          .word   DUNKLAY3_SEQ
    1786                    
    1787 0000a460     0004  ewukd4s_t       .word   5-1,DUNKG_SEQ
TMS340 COFF Macro Assembler Version 6.10     Tue Dec 19 01:45:09 2023
 Copyright (c) 1985-1991  Texas Instruments Incorporated 

basketball player code                                               PAGE   36

    1788 0000a480     0080          .word   DUNKLAY_SEQ
    1789 0000a490     0080          .word   DUNKLAY_SEQ
    1790 0000a4a0     0080          .word   DUNKLAY_SEQ
    1791 0000a4b0     0080          .word   DUNKLAY_SEQ
    1792                    
    1793 0000a4c0     0001  ewukd5s_t       .word   2-1
    1794 0000a4d0     0080          .word   DUNKLAY_SEQ
    1795 0000a4e0     0080          .word   DUNKLAY_SEQ
    1796                    
    1797 0000a4f0     0005  ewukd1m_t       .word   6-1
    1798 0000a500     0086          .word   DUNKZ4_SEQ
    1799 0000a510     0075          .word   DUNKLAY7_SEQ
    1800 0000a520     0080          .word   DUNKLAY_SEQ
    1801 0000a530     0085          .word   DUNKLAY6_SEQ
    1802 0000a540     0085          .word   DUNKLAY6_SEQ
    1803 0000a550     0081          .word   DUNKLAY2_SEQ
    1804                    
    1805 0000a560     0006  ewukd2m_t       .word   7-1
    1806 0000a570     0086          .word   DUNKZ4_SEQ
    1807 0000a580     0075          .word   DUNKLAY7_SEQ
    1808 0000a590     0080          .word   DUNKLAY_SEQ
    1809 0000a5a0     0081          .word   DUNKLAY2_SEQ
    1810 0000a5b0     0083          .word   DUNKLAY4_SEQ
    1811 0000a5c0     0085          .word   DUNKLAY6_SEQ
    1812 0000a5d0     0085          .word   DUNKLAY6_SEQ
    1813                    
    1814 0000a5e0     0005  ewukd3m_t       .word   6-1
    1815 0000a5f0     0086          .word   DUNKZ4_SEQ
    1816 0000a600     0075          .word   DUNKLAY7_SEQ
    1817 0000a610     0080          .word   DUNKLAY_SEQ
    1818 0000a620     0076          .word   DUNKLAY3A_SEQ
    1819 0000a630     0082          .word   DUNKLAY3_SEQ
    1820 0000a640     0084          .word   DUNKLAY5_SEQ
    1821                    
    1822 0000a650     0004  ewukd4m_t       .word   5-1,DUNKG_SEQ
    1823 0000a670     0080          .word   DUNKLAY_SEQ
    1824 0000a680     0080          .word   DUNKLAY_SEQ
    1825 0000a690     0080          .word   DUNKLAY_SEQ
    1826 0000a6a0     0080          .word   DUNKLAY_SEQ
    1827                    
    1828 0000a6b0     0000  ewukd5m_t       .word   1-1
    1829 0000a6c0     0080          .word   DUNKLAY_SEQ
    1830                    
    1831                    
    1832 0000a6d0     0003  ewukd1l_t       .word   4-1
    1833 0000a6e0     0086          .word   DUNKZ4_SEQ
    1834 0000a6f0     0075          .word   DUNKLAY7_SEQ
    1835 0000a700     0081          .word   DUNKLAY2_SEQ
    1836 0000a710     0085          .word   DUNKLAY6_SEQ
    1837                    
    1838 0000a720           ewukd2l_t
    1839 0000a720     0006          .word   7-1
    1840 0000a730     0086          .word   DUNKZ4_SEQ
    1841 0000a740     0075          .word   DUNKLAY7_SEQ
    1842 0000a750     0085          .word   DUNKLAY6_SEQ
TMS340 COFF Macro Assembler Version 6.10     Tue Dec 19 01:45:09 2023
 Copyright (c) 1985-1991  Texas Instruments Incorporated 

basketball player code                                               PAGE   37

    1843 0000a760     0080          .word   DUNKLAY_SEQ
    1844 0000a770     0080          .word   DUNKLAY_SEQ
    1845 0000a780     0081          .word   DUNKLAY2_SEQ
    1846 0000a790     0083          .word   DUNKLAY4_SEQ
    1847                    
    1848 0000a7a0     0005  ewukd3l_t       .word   6-1
    1849 0000a7b0     0086          .word   DUNKZ4_SEQ
    1850 0000a7c0     0075          .word   DUNKLAY7_SEQ
    1851 0000a7d0     0080          .word   DUNKLAY_SEQ
    1852 0000a7e0     0076          .word   DUNKLAY3A_SEQ
    1853 0000a7f0     0082          .word   DUNKLAY3_SEQ
    1854 0000a800     0084          .word   DUNKLAY5_SEQ
    1855                    
    1856 0000a810     0002  ewukd4l_t       .word   3-1
    1857 0000a820     0080          .word   DUNKLAY_SEQ
    1858 0000a830     0080          .word   DUNKLAY_SEQ
    1859 0000a840     0080          .word   DUNKLAY_SEQ
    1860                    
    1861 0000a850     0000  ewukd5l_t       .word   1-1
    1862 0000a860     0080          .word   DUNKLAY_SEQ
    1863                    
    1864                    
    1865                    
    1866                    
    1867                            .def    Lohaus_h,Gug_h,Edwrd_h
    1868                            .def    McDan_h,Brown_h,KAnderson_h
    1869                            .def    Willis_h,Gamble_h,Mourn_h,Armstrng_h,Kukoc_h,Nance_h,Jack_h
    1870                            .def    Dumars_h,Rodman_h,Hunter_h,Webber_h,Maxwell_h,Horry_h,Smits_h
    1871                            .def    Roberts_h,Peeler_h,Campbell_h,Miner_h,Baker_h,Day_h
    1872                            .def    Mason_h,Starks_h,AHard_h,NAnders_h,Weath_h,Brad_h,KJohn_h
    1873                            .def    Hurley_h,Rich_h,DEllis_h,Payton_h,Mckey_h,Benoit_h,Ellison_h
    1874                            .def    Mash_h,Rogers_h,Cheaney_h,CRobin_h,Simmons_h,Rider_h,Morris_h
    1875                            .def    Sealy_h
    1876                    
    1877 0000a870           Lohaus_h
    1878 0000a870 00000480"         .long   Lohaus1
    1879 0000a890 00000480"         .long   Lohaus1
    1880 0000a8b0 00000000"         .long   Lohaus2,Lohaus3,Lohaus4,Lohaus5,Lohaus6,Lohaus7,Lohaus8,Lohaus9
    1881 0000a9b0 00000510"         .long   Lohaus10,Lohaus11,Lohaus12,Lohaus13,Lohaus14,Lohaus15,Lohaus16
    1882 0000aa90           Gug_h
    1883 0000aa90 00001200"         .long   gug1
    1884 0000aab0 00001200"         .long   gug1,gug2,gug3,gug4,gug5,gug6,gug7,gug8
    1885 0000abb0 00001680"         .long   gug9,gug10,gug11,gug12,gug13,gug14,gug15
    1886 0000ac90 00001a70"         .long   gug16
    1887 0000acb0           Edwrd_h
    1888 0000acb0 00000900"         .long   edwrd1
    1889 0000acd0 00000900"         .long   edwrd1,edwrd2,edwrd3,edwrd4,edwrd5,edwrd6,edwrd7,edwrd8,edwrd9,edwrd10
    1890 0000ae10 00000ea0"         .long   edwrd11,edwrd12,edwrd13,edwrd14,edwrd15,edwrd16
    1891 0000aed0           McDan_h
    1892 0000aed0 00002d00"         .long   MCDAN1
    1893 0000aef0 00002d00"         .long   MCDAN1,MCDAN2,MCDAN3,MCDAN4,MCDAN5,MCDAN6,MCDAN7,MCDAN8,MCDAN9,MCDAN10
    1894 0000b030 000032a0"         .long   MCDAN11,MCDAN12,MCDAN13,MCDAN14,MCDAN15,MCDAN16
    1895 0000b0f0           Brown_h
    1896 0000b0f0 00002400"         .long   BROWN1
    1897 0000b110 00002400"         .long   BROWN1,BROWN2,BROWN3,BROWN4,BROWN5,BROWN6,BROWN7,BROWN8,BROWN9,BROWN10
TMS340 COFF Macro Assembler Version 6.10     Tue Dec 19 01:45:09 2023
 Copyright (c) 1985-1991  Texas Instruments Incorporated 

basketball player code                                               PAGE   38

    1898 0000b250 000029a0"         .long   BROWN11,BROWN12,BROWN13,BROWN14,BROWN15,BROWN16
    1899 0000b310           KAnderson_h
    1900 0000b310 00010500"         .long   K_AND1
    1901 0000b330 00010500"         .long   K_AND1,K_AND2,K_AND3,K_AND4,K_AND5,K_AND6,K_AND7,K_AND8,K_AND9,K_AND10
    1902 0000b470 00010aa0"         .long   K_AND11,K_AND12,K_AND13,K_AND14,K_AND15,K_AND16
    1903 0000b530           Willis_h
    1904 0000b530 00001b00"         .long   WILLIS1
    1905 0000b550 00001b00"         .long   WILLIS1
    1906 0000b570 00001b90"         .long   WILLIS2,WILLIS3,WILLIS4,WILLIS5,WILLIS6,WILLIS7,WILLIS8
    1907 0000b650 00001f80"         .long   WILLIS9,WILLIS10,WILLIS11,WILLIS12,WILLIS13,WILLIS14,WILLIS15,WILLIS16
    1908 0000b750           Gamble_h
    1909 0000b750 00003600"         .long   GAMBLE1
    1910 0000b770 00003600"         .long   GAMBLE1
    1911 0000b790 00003690"         .long   GAMBLE2,GAMBLE3,GAMBLE4
    1912 0000b7f0 00003840"         .long   GAMBLE5,GAMBLE6,GAMBLE7,GAMBLE8,GAMBLE9,GAMBLE10,GAMBLE11,GAMBLE12
    1913 0000b8f0 00003cc0"         .long   GAMBLE13,GAMBLE14,GAMBLE15,GAMBLE16
    1914 0000b970           Mourn_h
    1915 0000b970 00003f00"         .long   MOURN1
    1916 0000b990 00003f00"         .long   MOURN1
    1917 0000b9b0 00003f90"         .long   MOURN2,MOURN3,MOURN4,MOURN5
    1918 0000ba30 000041d0"         .long   MOURN6,MOURN7,MOURN8,MOURN9,MOURN10,MOURN11,MOURN12,MOURN13,MOURN14
    1919 0000bb50 000046e0"         .long   MOURN15,MOURN16
    1920 0000bb90           Armstrng_h
    1921 0000bb90 00004800"         .long   ARMST1
    1922 0000bbb0 00004800"         .long   ARMST1
    1923 0000bbd0 00004890"         .long   ARMST2,ARMST3,ARMST4,ARMST5,ARMST6,ARMST7
    1924 0000bc90 00004bf0"         .long   ARMST8,ARMST9,ARMST10,ARMST11,ARMST12,ARMST13,ARMST14,ARMST15,ARMST16
    1925 0000bdb0           Kukoc_h
    1926 0000bdb0 00005100"         .long   KUKOC1
    1927 0000bdd0 00005100"         .long   KUKOC1
    1928 0000bdf0 00005190"         .long   KUKOC2,KUKOC3,KUKOC4,KUKOC5,KUKOC6,KUKOC7,KUKOC8,KUKOC9,KUKOC10
    1929 0000bf10 000056a0"         .long   KUKOC11,KUKOC12,KUKOC13,KUKOC14,KUKOC15,KUKOC16
    1930 0000bfd0           Nance_h
    1931 0000bfd0 00005a00"         .long   NANCE1
    1932 0000bff0 00005a00"         .long   NANCE1
    1933 0000c010 00005a90"         .long   NANCE2,NANCE3
    1934 0000c050 00005bb0"         .long   NANCE4,NANCE5,NANCE6,NANCE7,NANCE8,NANCE9,NANCE10,NANCE11,NANCE12
    1935 0000c170 000060c0"         .long   NANCE13,NANCE14,NANCE15,NANCE16
    1936 0000c1f0           Jack_h
    1937 0000c1f0 00006300"         .long   JACK1
    1938 0000c210 00006300"         .long   JACK1
    1939 0000c230 00006390"         .long   JACK2,JACK3,JACK4,JACK5,JACK6
    1940 0000c2d0 00006660"         .long   JACK7,JACK8,JACK9,JACK10,JACK11,JACK12,JACK13,JACK14,JACK15,JACK16
    1941 0000c410           Mash_h
    1942 0000c410 00006c00"         .long   MASH1
    1943 0000c430 00006c00"         .long   MASH1
    1944 0000c450 00006c90"         .long   MASH2,MASH3,MASH4,MASH5,MASH6,MASH7,MASH8,MASH9,MASH10,MASH11
    1945 0000c590 00007230"         .long   MASH12,MASH13,MASH14,MASH15,MASH16
    1946 0000c630           Rogers_h
    1947 0000c630 00007500"         .long   ROGERS1
    1948 0000c650 00007500"         .long   ROGERS1
    1949 0000c670 00007590"         .long   ROGERS2,ROGERS3,ROGERS4
    1950 0000c6d0 00007740"         .long   ROGERS5,ROGERS6,ROGERS7,ROGERS8,ROGERS9,ROGERS10,ROGERS11,ROGERS12
    1951 0000c7d0 00007bc0"         .long   ROGERS13,ROGERS14,ROGERS15,ROGERS16
    1952 0000c850           Dumars_h
TMS340 COFF Macro Assembler Version 6.10     Tue Dec 19 01:45:09 2023
 Copyright (c) 1985-1991  Texas Instruments Incorporated 

basketball player code                                               PAGE   39

    1953 0000c850 00007e00"         .long   DUMARS1
    1954 0000c870 00007e00"         .long   DUMARS1
    1955 0000c890 00007e90"         .long   DUMARS2,DUMARS3,DUMARS4,DUMARS5,DUMARS6,DUMARS7,DUMARS8
    1956 0000c970 00008280"         .long   DUMARS9,DUMARS10,DUMARS11,DUMARS12,DUMARS13,DUMARS14,DUMARS15,DUMARS16
    1957 0000ca70           Rodman_h
    1958 0000ca70 00008700"         .long   RODMAN1
    1959 0000ca90 00008700"         .long   RODMAN1
    1960 0000cab0 00008790"         .long   RODMAN2,RODMAN3,RODMAN4,RODMAN5,RODMAN6,RODMAN7,RODMAN8
    1961 0000cb90 00008b80"         .long   RODMAN9,RODMAN10,RODMAN11,RODMAN12,RODMAN13,RODMAN14,RODMAN15,RODMAN16
    1962 0000cc90           Hunter_h
    1963 0000cc90 00009000"         .long   HUNTER1
    1964 0000ccb0 00009000"         .long   HUNTER1
    1965 0000ccd0 00009090"         .long   HUNTER2,HUNTER3,HUNTER4,HUNTER5,HUNTER6,HUNTER7,HUNTER8
    1966 0000cdb0 00009480"         .long   HUNTER9,HUNTER10,HUNTER11,HUNTER12,HUNTER13,HUNTER14,HUNTER15,HUNTER16
    1967 0000ceb0           Webber_h
    1968 0000ceb0 00009900"         .long   WEBBER1
    1969 0000ced0 00009900"         .long   WEBBER1
    1970 0000cef0 00009990"         .long   WEBBER2,WEBBER3,WEBBER4,WEBBER5,WEBBER6,WEBBER7,WEBBER8
    1971 0000cfd0 00009d80"         .long   WEBBER9,WEBBER10,WEBBER11,WEBBER12,WEBBER13,WEBBER14,WEBBER15,WEBBER16
    1972 0000d0d0           Maxwell_h
    1973 0000d0d0 0000a200"         .long   MAX1
    1974 0000d0f0 0000a200"         .long   MAX1
    1975 0000d110 0000a290"         .long   MAX2,MAX3,MAX4,MAX5,MAX6,MAX7,MAX8,MAX9,MAX10,MAX11,MAX12,MAX13
    1976 0000d290 0000a950"         .long   MAX14,MAX15,MAX16
    1977 0000d2f0           Horry_h
    1978 0000d2f0 0000ab00"         .long   HORRY1
    1979 0000d310 0000ab00"         .long   HORRY1
    1980 0000d330 0000ab90"         .long   HORRY2,HORRY3,HORRY4,HORRY5,HORRY6,HORRY7
    1981 0000d3f0 0000aef0"         .long   HORRY8,HORRY9,HORRY10,HORRY11,HORRY12,HORRY13,HORRY14,HORRY15,HORRY16
    1982 0000d510           Smits_h
    1983 0000d510 0000b400"         .long   SMITS1
    1984 0000d530 0000b400"         .long   SMITS1
    1985 0000d550 0000b490"         .long   SMITS2,SMITS3,SMITS4,SMITS5,SMITS6,SMITS7,SMITS8,SMITS9,SMITS10
    1986 0000d670 0000b9a0"         .long   SMITS11,SMITS12,SMITS13,SMITS14,SMITS15,SMITS16
    1987 0000d730           Sealy_h
    1988 0000d730 0000bd00"         .long   SELAY1
    1989 0000d750 0000bd00"         .long   SELAY1
    1990 0000d770 0000bd90"         .long   SELAY2,SELAY3
    1991 0000d7b0 0000beb0"         .long   SELAY4,SELAY5,SELAY6,SELAY7,SELAY8,SELAY9,SELAY10,SELAY11,SELAY12
    1992 0000d8d0 0000c3c0"         .long   SELAY13,SELAY14,SELAY15,SELAY16
    1993 0000d950           Roberts_h
    1994 0000d950 0000c600"         .long   ROBERTS1
    1995 0000d970 0000c600"         .long   ROBERTS1
    1996 0000d990 0000c690"         .long   ROBERTS2,ROBERTS3,ROBERTS4
    1997 0000d9f0 0000c840"         .long   ROBERTS5,ROBERTS6,ROBERTS7,ROBERTS8,ROBERTS9,ROBERTS10,ROBERTS11
    1998 0000dad0 0000cc30"         .long   ROBERTS12,ROBERTS13,ROBERTS14,ROBERTS15,ROBERTS16
    1999 0000db70           Peeler_h
    2000 0000db70 0000cf00"         .long   PEELER1
    2001 0000db90 0000cf00"         .long   PEELER1
    2002 0000dbb0 0000cf90"         .long   PEELER2,PEELER3,PEELER4,PEELER5,PEELER6,PEELER7,PEELER8
    2003 0000dc90 0000d380"         .long   PEELER9,PEELER10,PEELER11,PEELER12,PEELER13,PEELER14,PEELER15,PEELER16
    2004 0000dd90           Campbell_h
    2005 0000dd90 0000d800"         .long   CAMP1
    2006 0000ddb0 0000d800"         .long   CAMP1
    2007 0000ddd0 0000d890"         .long   CAMP2,CAMP3,CAMP4,CAMP5,CAMP6,CAMP7,CAMP8,CAMP9,CAMP10,CAMP11
TMS340 COFF Macro Assembler Version 6.10     Tue Dec 19 01:45:09 2023
 Copyright (c) 1985-1991  Texas Instruments Incorporated 

basketball player code                                               PAGE   40

    2008 0000df10 0000de30"         .long   CAMP12,CAMP13,CAMP14,CAMP15,CAMP16
    2009 0000dfb0           Miner_h
    2010 0000dfb0 0000e100"         .long   MINER1
    2011 0000dfd0 0000e100"         .long   MINER1
    2012 0000dff0 0000e190"         .long   MINER2,MINER3,MINER4,MINER5,MINER6,MINER7
    2013 0000e0b0 0000e4f0"         .long   MINER8,MINER9,MINER10,MINER11,MINER12,MINER13,MINER14,MINER15,MINER16
    2014 0000e1d0           Baker_h
    2015 0000e1d0 0000ea00"         .long   BAKER1
    2016 0000e1f0 0000ea00"         .long   BAKER1
    2017 0000e210 0000ea90"         .long   BAKER2,BAKER3,BAKER4,BAKER5,BAKER6,BAKER7,BAKER8,BAKER9,BAKER10
    2018 0000e330 0000efa0"         .long   BAKER11,BAKER12,BAKER13,BAKER14,BAKER15,BAKER16
    2019 0000e3f0           Day_h
    2020 0000e3f0 0000f300"         .long   DAY1
    2021 0000e410 0000f300"         .long   DAY1
    2022 0000e430 0000f390"         .long   DAY2,DAY3,DAY4
    2023 0000e490 0000f540"         .long   DAY5,DAY6,DAY7,DAY8,DAY9,DAY10,DAY11,DAY12,DAY13,DAY14,DAY15,DAY16
    2024 0000e610           Rider_h
    2025 0000e610 0000fc00"         .long   RIDER1
    2026 0000e630 0000fc00"         .long   RIDER1
    2027 0000e650 0000fc90"         .long   RIDER2,RIDER3,RIDER4,RIDER5,RIDER6,RIDER7,RIDER8,RIDER9,RIDER10
    2028 0000e770 000101a0"         .long   RIDER11,RIDER12,RIDER13,RIDER14,RIDER15,RIDER16
    2029 0000e830           Morris_h
    2030 0000e830 00010e00"         .long   MORRIS1
    2031 0000e850 00010e00"         .long   MORRIS1
    2032 0000e870 00010e90"         .long   MORRIS2,MORRIS3,MORRIS4
    2033 0000e8d0 00011040"         .long   MORRIS5,MORRIS6,MORRIS7,MORRIS8,MORRIS9,MORRIS10,MORRIS11,MORRIS12
    2034 0000e9d0 000114c0"         .long   MORRIS13,MORRIS14,MORRIS15,MORRIS16
    2035 0000ea50           Mason_h
    2036 0000ea50 00011700"         .long   MASON1
    2037 0000ea70 00011700"         .long   MASON1
    2038 0000ea90 00011790"         .long   MASON2,MASON3,MASON4,MASON5
    2039 0000eb10 000119d0"         .long   MASON6,MASON7,MASON8,MASON9,MASON10,MASON11,MASON12,MASON13,MASON14
    2040 0000ec30 00011ee0"         .long   MASON15,MASON16
    2041 0000ec70           Starks_h
    2042 0000ec70 00012000"         .long   STARKS1
    2043 0000ec90 00012000"         .long   STARKS1
    2044 0000ecb0 00012090"         .long   STARKS2
    2045 0000ecd0 00012120"         .long   STARKS3,STARKS4,STARKS5,STARKS6
    2046 0000ed50 00012360"         .long   STARKS7,STARKS8,STARKS9,STARKS10,STARKS11,STARKS12,STARKS13,STARKS14
    2047 0000ee50 000127e0"         .long   STARKS15,STARKS16
    2048 0000ee90           AHard_h
    2049 0000ee90 00012900"         .long   A_HARD1
    2050 0000eeb0 00012900"         .long   A_HARD1,A_HARD2,A_HARD3,A_HARD4,A_HARD5,A_HARD6,A_HARD7,A_HARD8
    2051 0000efb0 00012d80"         .long   A_HARD9,A_HARD10,A_HARD11,A_HARD12,A_HARD13,A_HARD14,A_HARD15,A_HARD16
    2052 0000f0b0           NAnders_h
    2053 0000f0b0 00013200"         .long   N_AND1
    2054 0000f0d0 00013200"         .long   N_AND1
    2055 0000f0f0 00013290"         .long   N_AND2,N_AND3,N_AND4,N_AND5,N_AND6,N_AND7,N_AND8,N_AND9,N_AND10
    2056 0000f210 000137a0"         .long   N_AND11,N_AND12,N_AND13,N_AND14,N_AND15,N_AND16
    2057 0000f2d0           Weath_h
    2058 0000f2d0 00013b00"         .long   WEATH1
    2059 0000f2f0 00013b00"         .long   WEATH1
    2060 0000f310 00013b90"         .long   WEATH2,WEATH3
    2061 0000f350 00013cb0"         .long   WEATH4,WEATH5,WEATH6,WEATH7,WEATH8,WEATH9,WEATH10,WEATH11,WEATH12
    2062 0000f470 000141c0"         .long   WEATH13,WEATH14,WEATH15,WEATH16
TMS340 COFF Macro Assembler Version 6.10     Tue Dec 19 01:45:09 2023
 Copyright (c) 1985-1991  Texas Instruments Incorporated 

basketball player code                                               PAGE   41

    2063 0000f4f0           Brad_h
    2064 0000f4f0 00014400"         .long   BRAD1
    2065 0000f510 00014400"         .long   BRAD1
    2066 0000f530 00014490"         .long   BRAD2,BRAD3,BRAD4,BRAD5,BRAD6
    2067 0000f5d0 00014760"         .long   BRAD7,BRAD8,BRAD9,BRAD10,BRAD11,BRAD12,BRAD13,BRAD14,BRAD15,BRAD16
    2068 0000f710           KJohn_h
    2069 0000f710 00014d00"         .long   K_JOHN1
    2070 0000f730 00014d00"         .long   K_JOHN1
    2071 0000f750 00014d90"         .long   K_JOHN2,K_JOHN3,K_JOHN4,K_JOHN5,K_JOHN6,K_JOHN7,K_JOHN8
    2072 0000f830 00015180"         .long   K_JOHN9,K_JOHN10,K_JOHN11,K_JOHN12,K_JOHN13,K_JOHN14,K_JOHN15,K_JOHN16
    2073 0000f930           CRobin_h
    2074 0000f930 00015600"         .long   C_ROB1
    2075 0000f950 00015600"         .long   C_ROB1
    2076 0000f970 00015690"         .long   C_ROB2,C_ROB3,C_ROB4,C_ROB5,C_ROB6,C_ROB7,C_ROB8,C_ROB9,C_ROB10
    2077 0000fa90 00015ba0"         .long   C_ROB11,C_ROB12,C_ROB13,C_ROB14,C_ROB15,C_ROB16
    2078 0000fb50           Simmons_h
    2079 0000fb50 00015f00"         .long   SIMM1
    2080 0000fb70 00015f00"         .long   SIMM1
    2081 0000fb90 00015f90"         .long   SIMM2,SIMM3
    2082 0000fbd0 000160b0"         .long   SIMM4,SIMM5,SIMM6,SIMM7,SIMM8,SIMM9,SIMM10,SIMM11,SIMM12,SIMM13,SIMM14
    2083 0000fd30 000166e0"         .long   SIMM15,SIMM16
    2084 0000fd70           Hurley_h
    2085 0000fd70 00016800"         .long   HURL1
    2086 0000fd90 00016800"         .long   HURL1
    2087 0000fdb0 00016890"         .long   HURL2,HURL3,HURL4,HURL5,HURL6,HURL7,HURL8,HURL9
    2088 0000feb0 00016d10"         .long   HURL10,HURL11,HURL12,HURL13,HURL14,HURL15,HURL16
    2089 0000ff90           Rich_h
    2090 0000ff90 00017100"         .long   RICH1
    2091 0000ffb0 00017100"         .long   RICH1
    2092 0000ffd0 00017190"         .long   RICH2,RICH3
    2093 00010010 000172b0"         .long   RICH4,RICH5,RICH6,RICH7,RICH8,RICH9,RICH10,RICH11,RICH12,RICH13,RICH14
    2094 00010170 000178e0"         .long   RICH15,RICH16
    2095 000101b0           DEllis_h
    2096 000101b0 00017a00"         .long   D_ELL1
    2097 000101d0 00017a00"         .long   D_ELL1
    2098 000101f0 00017a90"         .long   D_ELL2,D_ELL3,D_ELL4,D_ELL5,D_ELL6,D_ELL7,D_ELL8
    2099 000102d0 00017e80"         .long   D_ELL9,D_ELL10,D_ELL11,D_ELL12,D_ELL13,D_ELL14,D_ELL15,D_ELL16
    2100 000103d0           Payton_h
    2101 000103d0 00018300"         .long   PAYTON1
    2102 000103f0 00018300"         .long   PAYTON1
    2103 00010410 00018390"         .long   PAYTON2,PAYTON3,PAYTON4,PAYTON5,PAYTON6,PAYTON7,PAYTON8
    2104 000104f0 00018780"         .long   PAYTON9,PAYTON10,PAYTON11,PAYTON12,PAYTON13,PAYTON14,PAYTON15,PAYTON16
    2105 000105f0           Mckey_h
    2106 000105f0 00018c00"         .long   MCKEY1
    2107 00010610 00018c00"         .long   MCKEY1
    2108 00010630 00018c90"         .long   MCKEY2,MCKEY3,MCKEY4,MCKEY5,MCKEY6,MCKEY7,MCKEY8,MCKEY9,MCKEY10
    2109 00010750 000191a0"         .long   MCKEY11,MCKEY12,MCKEY13,MCKEY14,MCKEY15,MCKEY16
    2110 00010810           Benoit_h
    2111 00010810 00019500"         .long   BENOIT1
    2112 00010830 00019500"         .long   BENOIT1
    2113 00010850 00019590"         .long   BENOIT2
    2114 00010870 00019620"         .long   BENOIT3,BENOIT4,BENOIT5,BENOIT6,BENOIT7,BENOIT8,BENOIT9,BENOIT10
    2115 00010970 00019aa0"         .long   BENOIT11,BENOIT12,BENOIT13,BENOIT14,BENOIT15,BENOIT16
    2116 00010a30           Ellison_h
    2117 00010a30 00019e00"         .long   ELLISN1
TMS340 COFF Macro Assembler Version 6.10     Tue Dec 19 01:45:09 2023
 Copyright (c) 1985-1991  Texas Instruments Incorporated 

basketball player code                                               PAGE   42

    2118 00010a50 00019e00"         .long   ELLISN1
    2119 00010a70 00019e90"         .long   ELLISN2
    2120 00010a90 00019f20"         .long   ELLISN3,ELLISN4,ELLISN5,ELLISN6,ELLISN7,ELLISN8,ELLISN9,ELLISN10
    2121 00010b90 0001a3a0"         .long   ELLISN11,ELLISN12,ELLISN13,ELLISN14,ELLISN15,ELLISN16
    2122 00010c50           Cheaney_h
    2123 00010c50 0001a700"         .long   CHEAN1
    2124 00010c70 0001a700"         .long   CHEAN1
    2125 00010c90 0001a790"         .long   CHEAN2
    2126 00010cb0 0001a820"         .long   CHEAN3,CHEAN4,CHEAN5,CHEAN6,CHEAN7,CHEAN8,CHEAN9,CHEAN10,CHEAN11
    2127 00010dd0 0001ad30"         .long   CHEAN12,CHEAN13,CHEAN14,CHEAN15,CHEAN16
    2128                    
    2129                    
    2130                    

 No Errors,  No Warnings
