TMS340 COFF Macro Assembler Version 6.10     Tue Dec 19 01:45:15 2023
 Copyright (c) 1985-1991  Texas Instruments Incorporated 

                                                                     PAGE    1

       1                            .file   "select2.asm"
       3                            .width  132
       4                            .option b,d,l,t
       5                            .mnolist
       6                    
       7                            .include        "mproc.equ"
       8                            .include        "disp.equ"
       9                            .include        "sys.equ"
      10                            .include        "gsp.equ"
      11                            .include        "mac2.asm"
      12                    
      13                            .include        "imgtblm.glo"
      14                            .include        "mugshot.tbl"
      15                    
      16                            .include        "imgtbl.glo"
      17                            .include        "imgtblp.glo"
      18                            .include        "imgtbl2.glo"
      19                            .include        "bgndtbl.glo"
      20                            .include        "game.equ"
      21                            .include        "audit.equ"
      22                            .include        "shawn.hdr"
      23                    
      24                            .include        "imgpalm.asm"
      25                            .include        "imgtblm.glo"
      26                    
      27                    
      28 000a2590     f3fe  tunegc_snd      .word   0f3feH,1,0800cH,0               ;Grand champion play tune
      29                    
      30                    
      31                            .def    player_heads
      32                    
      33                    
      34                            .ref    create_bits
      35                            .ref    kp_qscrs2,PCNT
      36                            .ref    HALT
      37                            .ref    city_tbl
      38                    
      39                            .ref    kp_ram
      40                            .ref    snd_play1
      41                            .ref    tm2set,tm1set
      42                    
      43                            .ref    credit1_obj
      44                            .ref    credit2_obj
      45                            .ref    credit3_obj
      46                            .ref    name1_obj
      47                            .ref    name2_obj
      48                            .ref    name3_obj
      49                            .ref    name4_obj
      50                    
      51                            .ref    attrib1_obj
      52                            .ref    attrib2_obj
      53                            .ref    attrib3_obj
      54                            .ref    attrib4_obj
      55                            .ref    CRED_P
      56                            .ref    teamset1_obj
TMS340 COFF Macro Assembler Version 6.10     Tue Dec 19 01:45:15 2023
 Copyright (c) 1985-1991  Texas Instruments Incorporated 

name & team selection                                                PAGE    2

      57                            .ref    teamset2_obj
      58                            .ref    create_credits
      59                            .ref    TWOPLAYERS                      ;0 = NO, 1 = YES 2 players
      60                            .ref    concat_string
      61                            .ref    copy_rom_string
      62                            .ref    mess_cursy,mess_objid
      63                            .ref    mess_line_spacing
      64                            .ref    CYCLE_TABLE,COLTAB2
      65                            .ref    pal_getf
      66                            .ref    get_initials_string
      67                            .ref    dropout_stats
      68                            .ref    conttimers
      69                            .ref    PSTATUS2
      70                            .ref    GET_ADJ
      71                            .ref    game_purchased
      72                            .ref    GAMSTATE
      73                            .ref    monitor_fullgame
      74                            .ref    message_buffer
      75                            .ref    pleasewt
      76                            .ref    game_over
      77                            .ref    credits
      78                            .ref    KILBGND
      79                            .ref    print_string_C2
      80                            .ref    cntrs_delay
      81                            .ref    can_enter_inits
      82                            .ref    page_scrolling
      83                            .ref    winningteam
      84                            .ref    newptr
      85                            .ref    CR_CONTP
      86                            .ref    team_control
      87                            .ref    plyrsdropped
      88                            .ref    P1DATA
      89                            .ref    pal_clean
      90                            .ref    qtr_purchased
      91                            .ref    credit_messages
      92                            .ref    newplyrs
      93                            .ref    monitor_buyins
      94                            .ref    COLRTEMP
      95                            .ref    gmqrtr
      96                    
      97                    
      98                    
      99                            .ref    fade_up,fade_down
     100                    
     101                            .ref    calc_num_defeated
     102                            .ref    RNDRNG0
     103                            .ref    team2
     104                            .ref    team1
     105                    
     106                            .ref    BAKMODS
     107                            .ref    switches_cur
     108                            .ref    inmatchup
     109                            .ref    player1_data
     110                            .ref    dec_to_asc
     111                            .ref    cntdown_snd
TMS340 COFF Macro Assembler Version 6.10     Tue Dec 19 01:45:15 2023
 Copyright (c) 1985-1991  Texas Instruments Incorporated 

name & team selection                                                PAGE    3

     112                            .ref    pal_set
     113                            .ref    player2_data
     114                            .ref    get_teams_pop
     115                            .ref    create_logos
     116                            .ref    call_matchup
     117                            .ref    pal_find
     118                            .ref    special_heads
     119                            .ref    player3_data
     120                            .ref    create_player_heads
     121                            .ref    update_player_heads
     122                            .ref    dpageflip
     123                            .ref    IRQSKYE
     124                            .ref    PSTATUS
     125                            .ref    player4_data
     126                            .ref    switches_down
     127                            .ref    print_string_C
     128                            .ref    BGND_UD1
     129                            .ref    obj_on
     130                            .ref    force_selection
     131                            .ref    obj_off
     132                            .ref    print_ranking
     133                            .ref    scores
     134                            .ref    WIPEOUT
     135                            .ref    mess_cursx
     136                            .ref    update_logos
     137                            .ref    setup_message
     138                            .ref    osgemd_ascii
     139                            .ref    osgmd8_ascii
     140                            .ref    copy_string
     141                            .ref    speech_playovrp
     142                    
     143                            .ref    _DAL    ;27
     144                            .ref    _MIN    ;26
     145                            .ref    _MI     ;22
     146                            .ref    _WAS    ;21
     147                            .ref    _PHI    ;25
     148                            .ref    _SAC    ;24
     149                            .ref    _MIL    ;18
     150                            .ref    _DEN    ;23
     151                            .ref    _GOL    ;20
     152                            .ref    _SAN    ;19
     153                            .ref    _SEA    ;17
     154                            .ref    _ATL    ;16
     155                            .ref    _ORL    ;15
     156                            .ref    _LAC    ;14
     157                            .ref    _NJ     ;13
     158                            .ref    _CHA    ;12
     159                            .ref    _BOS    ;11
     160                            .ref    _CLE    ;10
     161                            .ref    _DET    ;9
     162                            .ref    _HOU    ;8
     163                            .ref    _IND    ;7
     164                            .ref    _LAL    ;6
     165                            .ref    _UTA    ;5
     166                            .ref    _NY     ;4
TMS340 COFF Macro Assembler Version 6.10     Tue Dec 19 01:45:15 2023
 Copyright (c) 1985-1991  Texas Instruments Incorporated 

name & team selection                                                PAGE    4

     167                            .ref    _POR    ;3
     168                            .ref    _PHX    ;2
     169                            .ref    _CHI    ;1
     170                    
     171                    
     172 00000000                   .text
     173                    
     174                    
     175                    
     176 00000000     f3ff  congrats_snd    .word   0f3ffH,08H,08004H,0     ;
     177                    
     178                    
     179                    
     180                    
     181              7fff  MAX_CRTIME      equ     07fffH          ;30*60
     182              0000  TEAMSEL_PAGE    equ     0*256
     183              0100  NAMENT_PAGE     equ     1*256
     184                    
     185                            .asg    05eH+5,x1
     186                            .asg    0a1H+5,x1a
     187                            .asg    0e4H+5,x2a
     188                            .asg    0adH+5,x1b
     189                            .asg    012f5H+2,y1
     190                            .asg    0131fH,y1a
     191                    
     192                    
     193                            .def    ladder_imgs0
     194                            .def    ladder_imgs1,ladder_imgs2,ladder_imgs3,ladder_imgs4
     195                            .def    ladder_imgs5,ladder_imgs6
     196                    
     197 00000040           ladder_imgs0
     198 00000040 00002520"         .long   HPR_DAL,x1+400,y1
     199 000000a0 00004410"         .long   JAC_DAL,x1,y1
     200 00000100 00004650"         .long   MAS_DAL,x2a,y1
     201 00000160 00000000!         .long   T_MAVS,x1b,y1a
     202                    
     203 000001c0 000032a0"         .long   THM_DET,x1,y1-0b3H
     204 00000220 00003f90"         .long   DUM_DET,x1a,y1-0b3H
     205                    
     206 00000280 00002370"         .long   ELL_DET,x2a,y1-0b3H
     207 000002e0 00000000!         .long   T_PISS,x1b,y1a-0b3H
     208                    
     209 00000340 00000000          .long   0
     210                    
     211 00000360           ladder_imgs1
     212 00000360 00003c30"         .long   BAK_MLW,x1,y1-0b3H*2-2
     213 000003c0 000021c0"         .long   EDW_MLW,x1a,y1-0b3H*2-2
     214 00000420 00005220"         .long   DAY_MLW,x2a,y1-0b3H*2-2
     215 00000480 00000000!         .long   T_BUCKS,x1b,y1a-0b3H*2-2
     216                    
     217 000004e0 000038d0"         .long   GUG_WAS,x1,y1-0b3H*3-2
     218 00000540 000040b0"         .long   ELL_WAS,x1a,y1-0b3H*3-2
     219 000005a0 00003f00"         .long   CHE_WAS,x2a,y1-0b3H*3-2
     220 00000600 00000000!         .long   T_BULTS,x1b,y1a-0b3H*3-2
     221                    
TMS340 COFF Macro Assembler Version 6.10     Tue Dec 19 01:45:15 2023
 Copyright (c) 1985-1991  Texas Instruments Incorporated 

name & team selection                                                PAGE    5

     222 00000660 00004ec0"         .long   SIM_SAC,x1,y1-0b3H*4-4
     223 000006c0 00004380"         .long   HUR_SAC,x1a,y1-0b3H*4-4
     224 00000720 00004b60"         .long   RIC_SAC,x2a,y1-0b3H*4-4
     225 00000780 00000000!         .long   T_KINGS,x1b,y1a-0b3H*4-4
     226                    
     227 000007e0 00002910"         .long   LTN_MIN,x1,y1-0b3H*5-4
     228 00000840 00002e20"         .long   PRS_MIN,x1a,y1-0b3H*5-4
     229 000008a0 00004bf0"         .long   RID_MIN,x2a,y1-0b3H*5-4
     230 00000900 00000000!         .long   T_TWOLV,x1b,y1a-0b3H*5-4
     231                    
     232 00000960 00000000          .long   0
     233                    
     234 00000980           ladder_imgs2
     235 00000980 00004ad0"         .long   PEE_LAK,x1,y1-0b3H*6-6
     236 000009e0 000027f0"         .long   DIV_LAK,x1a,y1-0b3H*6-6
     237 00000a40 00003e70"         .long   CAM_LAK,x2a,y1-0b3H*6-6
     238 00000aa0 00000000!         .long   T_LAKS,x1b,y1a-0b3H*6-6
     239                    
     240 00000b00 00003450"         .long   WLK_ATL,x1,y1-0b3H*7-6
     241 00000b60 000026d0"         .long   HRP_CLP,x1a,y1-0b3H*7-6
     242 00000bc0 00004c80"         .long   ROB_CLP,x2a,y1-0b3H*7-6
     243 00000c20 00000000!         .long   T_CLIPS,x1b,y1a-0b3H*7-6
     244                    
     245 00000c80 00004800"         .long   MCD_BOS,x1,y1-0b3H*8-8
     246 00000ce0 00003de0"         .long   BRO_BOS,x1a,y1-0b3H*8-8
     247 00000d40 00004140"         .long   GAM_BOS,x2a,y1-0b3H*8-8
     248 00000da0 00000000!         .long   T_CELTS,x1b,y1a-0b3H*8-8
     249                    
     250 00000e00 00005070"         .long   WEA_PHL,x1,y1-0b3H*9-8
     251 00000e60 00003d50"         .long   BRA_PHL,x2a,y1-0b3H*9-8
     252 00000ec0 00002640"         .long   HRN_PHL,x2a+400,y1-0b3H*9-8
     253 00000f20 00000000!         .long   T_76RS,x1b,y1a-0b3H*9-8
     254                    
     255 00000f80 00000000          .long   0
     256                    
     257 00000fa0           ladder_imgs3
     258 00000fa0 00003570"         .long   MIL_IND,x1,y1-0b3H*10-10
     259 00001000 00004f50"         .long   SMI_IND,x1a,y1-0b3H*10-10
     260 00001060 000045c0"         .long   SEL_IND,x2a,y1-0b3H*10-10
     261 000010c0 00000000!         .long   T_PACER,x1b,y1a-0b3H*10-10
     262                    
     263 00001120 000020a0"         .long   COL_NEJ,x1,y1-0b3H*11-10
     264 00001180 00003a80"         .long   AND_NEJ,x1a,y1-0b3H*11-10
     265 000011e0 000052b0"         .long   MOR_NEJ,x2a,y1-0b3H*11-10
     266 00001240 00000000!         .long   T_NETS,x1b,y1a-0b3H*11-10
     267                    
     268 000012a0 00002d90"         .long   PRC_CLE,x1,y1-0b3H*12-12
     269 00001300 00002130"         .long   DAU_CLE,x1a,y1-0b3H*12-12
     270 00001360 000049b0"         .long   NAN_CLE,x2a,y1-0b3H*12-12
     271 000013c0 00000000!         .long   T_CAVS,x1b,y1a-0b3H*12-12
     272                    
     273 00001420 00002b50"         .long   MUT_DEN,x1,y1-0b3H*13-12
     274 00001480 000022e0"         .long   ELL_DEN,x1a,y1-0b3H*13-12
     275 000014e0 00004e30"         .long   ROG_DEN,x2a,y1-0b3H*13-12
     276 00001540 00000000!         .long   T_NUGS,x1b,y1a-0b3H*13-12
TMS340 COFF Macro Assembler Version 6.10     Tue Dec 19 01:45:15 2023
 Copyright (c) 1985-1991  Texas Instruments Incorporated 

name & team selection                                                PAGE    6

     277                    
     278 000015a0 00000000          .long   0
     279                    
     280 000015c0           ladder_imgs4
     281 000015c0 000025b0"         .long   HRD_GLD,x1,y1-0b3H*14-14
     282 00001620 00002ac0"         .long   MUL_GLD,x1a,y1-0b3H*14-14
     283 00001680 00005100"         .long   WEB_GLD,x2a,y1-0b3H*14-14
     284 000016e0 00000000!         .long   T_WARS,x1b,y1a-0b3H*14-14
     285                    
     286 00001740 00002250"         .long   DRX_PRT,x1,y1-0b3H*15-14
     287 000017a0 00002d00"         .long   POR_PRT,x1a,y1-0b3H*15-14
     288 00001800 00004d10"         .long   ROB_PRT,x2a,y1-0b3H*15-14
     289 00001860 00000000!         .long   T_BLAZ,x1b,y1a-0b3H*15-14
     290                    
     291 000018c0 00002eb0"         .long   RCE_MIA,x1,y1-0b3H*16-16
     292 00001920 00003060"         .long   SKL_MIA,x1a,y1-0b3H*16-16
     293 00001980 00004890"         .long   MIN_MIA,x2a,y1-0b3H*16-16
     294 000019e0 00000000!         .long   T_HEAT,x1b,y1a-0b3H*16-16
     295                    
     296 00001a40 00003720"         .long   JON_CHA,x1,y1-0b3H*17-16
     297 00001aa0 00002760"         .long   HWK_CHA,x1a,y1-0b3H*17-16
     298 00001b00 00004920"         .long   MOU_CHA,x2a,y1-0b3H*17-16
     299 00001b60 00000000!         .long   T_HORS,x1b,y1a-0b3H*17-16
     300                    
     301 00001bc0 00000000          .long   0
     302                    
     303 00001be0           ladder_imgs5
     304 00001be0 000030f0"         .long   SKL_ORL,x1,y1-0b3H*18-18
     305 00001c40 000041d0"         .long   HAR_ORL,x1a,y1-0b3H*18-18
     306 00001ca0 00003b10"         .long   AND_ORL,x2a,y1-0b3H*18-18
     307 00001d00 00000000!         .long   T_MAGIC,x1b,y1a-0b3H*18-18
     308                    
     309 00001d60 00002f40"         .long   ROB_SAN,x1,y1-0b3H*19-18
     310 00001dc0 00004da0"         .long   ROD_SAN,x1a,y1-0b3H*19-18
     311 00001e20 00004020"         .long   ELS_SAN,x2a,y1-0b3H*19-18
     312 00001e80 00000000!         .long   T_SPURS,x1b,y1a-0b3H*19-18
     313                    
     314 00001ee0 00003690"         .long   MLN_UTA,x1,y1-0b3H*20-20
     315 00001f40 00003210"         .long   STK_UTA,x1a,y1-0b3H*20-20
     316 00001fa0 00003cc0"         .long   BEN_UTA,x2a,y1-0b3H*20-20
     317 00002000 00000000!         .long   T_JAZZ,x1b,y1a-0b3H*20-20
     318                    
     319 00002060 00002400"         .long   EWG_NEY,x1,y1-0b3H*21-20
     320 000020c0 000046e0"         .long   MAS_NEY,x1a,y1-0b3H*21-20
     321 00002120 00004fe0"         .long   STA_NEY,x2a,y1-0b3H*21-20
     322 00002180 00000000!         .long   T_KNIKS,x1b,y1a-0b3H*21-20
     323                    
     324 000021e0 00000000          .long   0
     325                    
     326 00002200           ladder_imgs6
     327 00002200 00002a30"         .long   MAN_CLP,x1,y1-0b3H*22-22
     328 00002260 00001f80"         .long   AUG_ATL,x1a,y1-0b3H*22-22
     329 000022c0 00005190"         .long   WLS_ATL,x2a,y1-0b3H*22-22
     330 00002320 00000000!         .long   T_HAWKS,x1b,y1a-0b3H*22-22
     331                    
TMS340 COFF Macro Assembler Version 6.10     Tue Dec 19 01:45:15 2023
 Copyright (c) 1985-1991  Texas Instruments Incorporated 

name & team selection                                                PAGE    7

     332 00002380 00002010"         .long   BRK_PHX,x1,y1-0b3H*23-22
     333 000023e0 000029a0"         .long   MAJ_PHX,x1a,y1-0b3H*23-22
     334 00002440 000044a0"         .long   JOH_PHX,x2a,y1-0b3H*23-22
     335 000024a0 00000000!         .long   T_SUNS,x1b,y1a-0b3H*23-22
     336                    
     337 00002500 00002be0"         .long   OLA_HOU,x1,y1-0b3H*24-24
     338 00002560 00004770"         .long   MAX_HOU,x1a,y1-0b3H*24-24
     339 000025c0 00004260"         .long   HOR_HOU,x2a,y1-0b3H*24-24
     340 00002620 00000000!         .long   T_ROCKS,x1b,y1a-0b3H*24-24
     341                    
     342 00002680 00002880"         .long   KMP_SEA,x1,y1-0b3H*25-24
     343 000026e0 00004a40"         .long   PAY_SEA,x1a,y1-0b3H*25-24
     344 00002740 00002490"         .long   GIL_SEA,x2a,y1-0b3H*25-24
     345 000027a0 00000000!         .long   T_SONICS,x1b,y1a-0b3H*25-24
     346                    
     347                    
     348 00002800 00000000          .long   0
     349                    
     350                    
     351                    
     352                    
     353              0100  START_PAL       equ     PDATA
     354              0120  CUR_PAL         equ     PDATA+20h
     355              0140  PAL_ADDR        equ     PDATA+40h
     356              0160  MORF_PAL        equ     PDATA+60h
     357              0180  SLEEP_TIME      equ     PDATA+80h
     358                    
     359 00002820            SUBR   morf_pal
     360                    
     361                    
     362 00002820     b10d          move    a8,*a13(SLEEP_TIME)
         00002830     0180  
     363 00002840     b34d          move    a10,*a13(START_PAL),L
         00002850     0100  
     364 00002860     b34d          move    a10,*a13(CUR_PAL),L
         00002870     0120  
     365 00002880     b36d          move    a11,*a13(MORF_PAL),L
         00002890     0160  
     366                    
     367 000028a0           djlewait
     368 000028a0                   SLEEPK  1
     369                    
     370 000028e0     4d20          move    a9,a0
     371 000028f0     0d5f          calla   pal_find
         00002900 00000000! 
     372 00002920     caf7          jrz     djlewait
     373 00002930     2f00          srl     8,a0
     374 00002940     2500          sll     8,a0
     375 00002950     b20d          move    a0,*a13(PAL_ADDR),L
         00002960     0140  
     376                    
     377 00002970     b7a1          move    *a13(MORF_PAL),a1,L
         00002980     0160  
     378 00002990     8742          move    *a10,a2,L
     379 000029a0     9443          move    *a2+,a3         ;num colours
TMS340 COFF Macro Assembler Version 6.10     Tue Dec 19 01:45:15 2023
 Copyright (c) 1985-1991  Texas Instruments Incorporated 

name & team selection                                                PAGE    8

     380 000029b0           djleloop
     381 000029b0     9841          move    *a2+,*a1+
     382 000029c0     3c43          dsj     a3,djleloop
     383                    
     384 000029d0     b5aa          move    *a13(SLEEP_TIME),a10
         000029e0     0180  
     385 000029f0           djledly1
     386 000029f0                   SLEEPK  1
     387 00002a30     3caa          dsj     a10,djledly1
     388 00002a40           djlenext_pal
     389                    
     390 00002a40     b7aa          move    *a13(CUR_PAL),a10,L
         00002a50     0120  
     391 00002a60     0b0a          addi    20h,a10
         00002a70     0020  
     392 00002a80     8740          move    *a10,a0,L
     393 00002a90     ce07          jrn     djleok
     394 00002aa0     ca04          jrz     djlenot_sleep
     395                    
     396 00002ab0     b34d          move    a10,*a13(CUR_PAL),L
         00002ac0     0120  
     397 00002ad0     4c0a          move    a0,a10
     398 00002ae0     c0f0          jruc    djledly1
     399                    
     400 00002af0           djlenot_sleep
     401 00002af0     b7aa          move    *a13(START_PAL),a10,L
         00002b00     0100  
     402 00002b10           djleok
     403 00002b10     b34d          move    a10,*a13(CUR_PAL),L
         00002b20     0120  
     404                    
     405 00002b30           djleagain
     406 00002b30     b5aa          move    *a13(SLEEP_TIME),a10
         00002b40     0180  
     407 00002b50     2fea          srl     1,a10
     408 00002b60     cb01          jrnz    djledly2
     409 00002b70     182a          movk    1,a10
     410 00002b80           djledly2
     411 00002b80                   SLEEPK  1
     412 00002bc0     3caa          dsj     a10,djledly2
     413                    
     414                    
     415 00002bd0     b7a1          move    *a13(MORF_PAL),a1,L
         00002be0     0160  
     416 00002bf0     b7aa          move    *a13(CUR_PAL),a10,L
         00002c00     0120  
     417 00002c10     8742          move    *a10,a2,L
     418 00002c20     9440          move    *a2+,a0                 ;num colours
     419 00002c30     576b          clr     a11
     420 00002c40           djlemorfit
     421 00002c40     8423          move    *a1,a3                  ;CURRENT PALETTE
     422 00002c50     09c4          movi    0111110000000000b,a4    ;5 bits of red
         00002c60     7c00  
     423 00002c70     5064          and     a3,a4
     424 00002c80     09c5          movi    0000001111100000b,a5    ;5 bits of green
TMS340 COFF Macro Assembler Version 6.10     Tue Dec 19 01:45:15 2023
 Copyright (c) 1985-1991  Texas Instruments Incorporated 

name & team selection                                                PAGE    9

         00002c90     03e0  
     425 00002ca0     5065          and     a3,a5
     426 00002cb0     09c6          movi    0000000000011111b,a6    ;5 bits of blue
         00002cc0     001f  
     427 00002cd0     5066          and     a3,a6
     428                    
     429 00002ce0     9447          move    *a2+,a7                 ;DEST PALETTE
     430 00002cf0     09c8          movi    0111110000000000b,a8    ;5 bits of red
         00002d00     7c00  
     431 00002d10     50e8          and     a7,a8
     432 00002d20     09c9          movi    0000001111100000b,a9    ;5 bits of green
         00002d30     03e0  
     433 00002d40     50e9          and     a7,a9
     434 00002d50     09ca          movi    0000000000011111b,a10   ;5 bits of blue
         00002d60     001f  
     435 00002d70     50ea          and     a7,a10
     436                    
     437 00002d80     2ec4          srl     10,a4
     438 00002d90     2ec8          srl     10,a8
     439 00002da0     4888          cmp     a4,a8                   ;a8-a4
     440 00002db0     ca06          jreq    djleredok
     441 00002dc0     c403          jrlt    djledecr
     442 00002dd0     102b          inc     a11
     443 00002de0     1024          inc     a4
     444 00002df0     c002          jruc    djleredok
     445 00002e00           djledecr
     446 00002e00     102b          inc     a11
     447 00002e10     1424          dec     a4
     448 00002e20           djleredok
     449 00002e20     2544          sll     10,a4
     450                    
     451 00002e30     2f65          srl     5,a5
     452 00002e40     2f69          srl     5,a9
     453 00002e50     48a9          cmp     a5,a9
     454 00002e60     ca06          jreq    djlegreenok
     455 00002e70     c403          jrlt    djledecg
     456 00002e80     102b          inc     a11
     457 00002e90     1025          inc     a5
     458 00002ea0     c002          jruc    djlegreenok
     459 00002eb0           djledecg
     460 00002eb0     102b          inc     a11
     461 00002ec0     1425          dec     a5
     462 00002ed0           djlegreenok
     463 00002ed0     24a5          sll     5,a5
     464                    
     465 00002ee0     48ca          cmp     a6,a10
     466 00002ef0     ca06          jreq    djleblueok
     467 00002f00     c403          jrlt    djledecb
     468 00002f10     102b          inc     a11
     469 00002f20     1026          inc     a6
     470 00002f30     c002          jruc    djleblueok
     471 00002f40           djledecb
     472 00002f40     102b          inc     a11
     473 00002f50     1426          dec     a6
     474 00002f60           djleblueok
TMS340 COFF Macro Assembler Version 6.10     Tue Dec 19 01:45:15 2023
 Copyright (c) 1985-1991  Texas Instruments Incorporated 

name & team selection                                                PAGE   10

     475                    
     476 00002f60     54a4          or      a5,a4
     477 00002f70     54c4          or      a6,a4
     478 00002f80     9081          move    a4,*a1+
     479                    
     480 00002f90     0d80          dsj     a0,djlemorfit
         00002fa0     ffc9  
     481                    
     482 00002fb0     b7a0          move    *a13(CUR_PAL),a0,L      ;* palette list
         00002fc0     0120  
     483 00002fd0     8600          move    *a0,a0,L                ;* palette
     484 00002fe0     8402          move    *a0,a2                  ;num colours
     485 00002ff0     b7a0          move    *a13(MORF_PAL),a0,L     ;* palette
         00003000     0160  
     486 00003010     b7a1          move    *a13(PAL_ADDR),a1,L     ;dest palette
         00003020     0140  
     487 00003030     0d5f          calla   pal_set
         00003040 00000000! 
     488                    
     489 00003060     4d6b          move    a11,a11
     490 00003070     cbab          jrnz    djleagain
     491                    
     492 00003080     c09b          jruc    djlenext_pal
     493                    
     494 00003090                   DIE
     495                    
     496                    
     497                    
     498                    
     499 000030c0            SUBR   get_all_starts_down
     500                    
     501 000030c0     5621          clr     a1
     502                    
     503 000030d0     05a2          move    @PSTATUS,a2
         000030e0 00000000! 
     504                    
     505 00003100     1fe2          btst    0,a2
     506 00003110     ca05          jrz     hytcno_player1
     507 00003120     5600          clr     a0                      ;player 1
     508 00003130     0d5f          calla   get_start_down
         00003140 000032e0' 
     509 00003160     5401          or      a0,a1
     510 00003170           hytcno_player1
     511                    
     512 00003170     1fc2          btst    1,a2
     513 00003180     ca05          jrz     hytcno_player2
     514 00003190     1820          movk    1,a0                    ;player 2
     515 000031a0     0d5f          calla   get_start_down
         000031b0 000032e0' 
     516 000031d0     5401          or      a0,a1
     517 000031e0           hytcno_player2
     518                    
     519 000031e0     1fa2          btst    2,a2
     520 000031f0     ca05          jrz     hytcno_player3
     521 00003200     1840          movk    2,a0                    ;player 3
TMS340 COFF Macro Assembler Version 6.10     Tue Dec 19 01:45:15 2023
 Copyright (c) 1985-1991  Texas Instruments Incorporated 

name & team selection                                                PAGE   11

     522 00003210     0d5f          calla   get_start_down
         00003220 000032e0' 
     523 00003240     5401          or      a0,a1
     524 00003250           hytcno_player3
     525                    
     526 00003250     1f82          btst    3,a2
     527 00003260     ca05          jrz     hytcno_player4
     528 00003270     1860          movk    3,a0                    ;player 4
     529 00003280     0d5f          calla   get_start_down
         00003290 000032e0' 
     530 000032b0     5401          or      a0,a1
     531 000032c0           hytcno_player4
     532                    
     533 000032c0     4c20          move    a1,a0
     534 000032d0     0960          rets
     535                    
     536                    
     537 000032e0            SUBR   get_start_down
     538                    
     539 000032e0     2480          sll     4,a0                    ;x 16 bits
     540 000032f0     0b20          addi    start_offs,a0
         00003300 000033b0' 
     541 00003320     8400          move    *a0,a0
     542 00003330     0b20          addi    switches_down,a0
         00003340 00000000! 
     543 00003360     8400          move    *a0,a0
     544 00003370     0b80          andi    1,a0
         00003380 fffffffe  
     545 000033a0     0960          rets
     546                    
     547                    
     548                            .if     TUNIT
     549 000033b0     0012  start_offs      .word   12h,15h,19h,1ah
     550                            .else
     551                    start_offs      .word   12h,15h,17h,27h
     552                            .endif
     553                    
     554                    
     555 000033f0            SUBR   get_start_cur
     556                    
     557 000033f0     2480          sll     4,a0                    ;x 16 bits
     558 00003400     0b20          addi    start_offs,a0
         00003410 000033b0' 
     559 00003430     8400          move    *a0,a0
     560 00003440     0b20          addi    switches_cur,a0
         00003450 00000000! 
     561 00003470     8400          move    *a0,a0
     562 00003480     0b80          andi    1,a0
         00003490 fffffffe  
     563 000034b0     0960          rets
     564                    
     565                    
     566 000034c0            SUBR   get_team1_turbo
     567                    
     568 000034c0     5621          clr     a1
TMS340 COFF Macro Assembler Version 6.10     Tue Dec 19 01:45:15 2023
 Copyright (c) 1985-1991  Texas Instruments Incorporated 

name & team selection                                                PAGE   12

     569                    
     570 000034d0     05a2          move    @PSTATUS,a2
         000034e0 00000000! 
     571                    
     572 00003500     1fe2          btst    0,a2
     573 00003510     ca05          jrz     xhitno_player1
     574 00003520     5600          clr     a0                      ;player 1
     575 00003530     0d5f          calla   get_turbo_down
         00003540 00003740' 
     576 00003560     5401          or      a0,a1
     577 00003570           xhitno_player1
     578                    
     579 00003570     1fc2          btst    1,a2
     580 00003580     ca05          jrz     xhitno_player2
     581 00003590     1820          movk    1,a0                    ;player 2
     582 000035a0     0d5f          calla   get_turbo_down
         000035b0 00003740' 
     583 000035d0     5401          or      a0,a1
     584 000035e0           xhitno_player2
     585 000035e0     4c20          move    a1,a0
     586                    
     587 000035f0     0960          rets
     588                    
     589                    
     590 00003600            SUBR   get_team2_turbo
     591                    
     592 00003600     5621          clr     a1
     593                    
     594 00003610     05a2          move    @PSTATUS,a2
         00003620 00000000! 
     595                    
     596 00003640     1fa2          btst    2,a2
     597 00003650     ca05          jrz     ztlqno_player1
     598 00003660     1840          movk    2,a0                    ;player 3
     599 00003670     0d5f          calla   get_turbo_down
         00003680 00003740' 
     600 000036a0     5401          or      a0,a1
     601 000036b0           ztlqno_player1
     602                    
     603 000036b0     1f82          btst    3,a2
     604 000036c0     ca05          jrz     ztlqno_player2
     605 000036d0     1860          movk    3,a0                    ;player 4
     606 000036e0     0d5f          calla   get_turbo_down
         000036f0 00003740' 
     607 00003710     5401          or      a0,a1
     608 00003720           ztlqno_player2
     609 00003720     4c20          move    a1,a0
     610                    
     611 00003730     0960          rets
     612                    
     613                    
     614 00003740            SUBR   get_turbo_down
     615                    
     616 00003740     2480          sll     4,a0                    ;x 16 bits
     617 00003750     0b20          addi    turbo_offs,a0
TMS340 COFF Macro Assembler Version 6.10     Tue Dec 19 01:45:15 2023
 Copyright (c) 1985-1991  Texas Instruments Incorporated 

name & team selection                                                PAGE   13

         00003760 00003810' 
     618 00003780     8400          move    *a0,a0
     619 00003790     0b20          addi    switches_down,a0
         000037a0 00000000! 
     620 000037c0     8400          move    *a0,a0
     621 000037d0     0b80          andi    1,a0
         000037e0 fffffffe  
     622 00003800     0960          rets
     623                    
     624                    
     625                            .if     TUNIT
     626 00003810     0006  turbo_offs      .word   06h,0eh,26h,2eh
     627                            .else
     628                    turbo_offs      .word   12h,15h,17h,27h
     629                            .endif
     630                    
     631                    
     632 00003850             SUBR  get_all_sticks_cur
     633                    
     634 00003850     5621          clr     a1
     635                    
     636 00003860     05a2          move    @PSTATUS,a2
         00003870 00000000! 
     637                    
     638 00003890     1fe2          btst    0,a2
     639 000038a0     ca05          jrz     qjxnno_player1
     640 000038b0     5600          clr     a0                      ;player 1
     641 000038c0     0d5f          calla   get_stick_val_cur
         000038d0 00003be0' 
     642 000038f0     5401          or      a0,a1
     643 00003900           qjxnno_player1
     644                    
     645 00003900     1fc2          btst    1,a2
     646 00003910     ca05          jrz     qjxnno_player2
     647 00003920     1820          movk    1,a0                    ;player 2
     648 00003930     0d5f          calla   get_stick_val_cur
         00003940 00003be0' 
     649 00003960     5401          or      a0,a1
     650 00003970           qjxnno_player2
     651                    
     652 00003970     1fa2          btst    2,a2
     653 00003980     ca05          jrz     qjxnno_player3
     654 00003990     1840          movk    2,a0                    ;player 3
     655 000039a0     0d5f          calla   get_stick_val_cur
         000039b0 00003be0' 
     656 000039d0     5401          or      a0,a1
     657 000039e0           qjxnno_player3
     658                    
     659 000039e0     1f82          btst    3,a2
     660 000039f0     ca05          jrz     qjxnno_player4
     661 00003a00     1860          movk    3,a0                    ;player 4
     662 00003a10     0d5f          calla   get_stick_val_cur
         00003a20 00003be0' 
     663 00003a40     5401          or      a0,a1
     664 00003a50           qjxnno_player4
TMS340 COFF Macro Assembler Version 6.10     Tue Dec 19 01:45:15 2023
 Copyright (c) 1985-1991  Texas Instruments Incorporated 

name & team selection                                                PAGE   14

     665                    
     666 00003a50     4c20          move    a1,a0
     667 00003a60     0960          rets
     668                    
     669                    
     670                    
     671 00003a70             SUBR  get_all_sticks_cur2
     672                    
     673 00003a70     5621          clr     a1
     674                    
     675 00003a80     5600          clr     a0                      ;player 1
     676 00003a90     0d5f          calla   get_stick_val_cur
         00003aa0 00003be0' 
     677 00003ac0     5401          or      a0,a1
     678                    
     679 00003ad0     1820          movk    1,a0                    ;player 2
     680 00003ae0     0d5f          calla   get_stick_val_cur
         00003af0 00003be0' 
     681 00003b10     5401          or      a0,a1
     682                    
     683 00003b20     1840          movk    2,a0                    ;player 3
     684 00003b30     0d5f          calla   get_stick_val_cur
         00003b40 00003be0' 
     685 00003b60     5401          or      a0,a1
     686                    
     687 00003b70     1860          movk    3,a0                    ;player 4
     688 00003b80     0d5f          calla   get_stick_val_cur
         00003b90 00003be0' 
     689 00003bb0     5401          or      a0,a1
     690                    
     691 00003bc0     4c20          move    a1,a0
     692 00003bd0     0960          rets
     693                    
     694                    
     695                    
     696 00003be0             SUBR  get_stick_val_cur
     697                    
     698                    
     699 00003be0     2480          sll     4,a0                    ;x 16 bits
     700 00003bf0     0b20          addi    joy_offs,a0
         00003c00 00004110' 
     701 00003c20     8400          move    *a0,a0
     702 00003c30     0b20          addi    switches_cur,a0
         00003c40 00000000! 
     703 00003c60     8400          move    *a0,a0
     704 00003c70     0b80          andi    01111b,a0
         00003c80 fffffff0  
     705 00003ca0     0960          rets
     706                    
     707                    
     708                    
     709 00003cb0             SUBR  get_all_sticks_down
     710                    
     711 00003cb0     5621          clr     a1
     712                    
TMS340 COFF Macro Assembler Version 6.10     Tue Dec 19 01:45:15 2023
 Copyright (c) 1985-1991  Texas Instruments Incorporated 

name & team selection                                                PAGE   15

     713 00003cc0     05a2          move    @PSTATUS,a2
         00003cd0 00000000! 
     714                    
     715 00003cf0     1fe2          btst    0,a2
     716 00003d00     ca05          jrz     cbqdno_player1
     717 00003d10     5600          clr     a0                      ;player 1
     718 00003d20     0d5f          calla   get_stick_val_down
         00003d30 00004040' 
     719 00003d50     5401          or      a0,a1
     720 00003d60           cbqdno_player1
     721                    
     722 00003d60     1fc2          btst    1,a2
     723 00003d70     ca05          jrz     cbqdno_player2
     724 00003d80     1820          movk    1,a0                    ;player 2
     725 00003d90     0d5f          calla   get_stick_val_down
         00003da0 00004040' 
     726 00003dc0     5401          or      a0,a1
     727 00003dd0           cbqdno_player2
     728                    
     729 00003dd0     1fa2          btst    2,a2
     730 00003de0     ca05          jrz     cbqdno_player3
     731 00003df0     1840          movk    2,a0                    ;player 3
     732 00003e00     0d5f          calla   get_stick_val_down
         00003e10 00004040' 
     733 00003e30     5401          or      a0,a1
     734 00003e40           cbqdno_player3
     735                    
     736 00003e40     1f82          btst    3,a2
     737 00003e50     ca05          jrz     cbqdno_player4
     738 00003e60     1860          movk    3,a0                    ;player 4
     739 00003e70     0d5f          calla   get_stick_val_down
         00003e80 00004040' 
     740 00003ea0     5401          or      a0,a1
     741 00003eb0           cbqdno_player4
     742                    
     743 00003eb0     4c20          move    a1,a0
     744 00003ec0     0960          rets
     745                    
     746                    
     747                    
     748 00003ed0             SUBR  get_all_sticks_down2
     749                    
     750 00003ed0     5621          clr     a1
     751                    
     752 00003ee0     5600          clr     a0                      ;player 1
     753 00003ef0     0d5f          calla   get_stick_val_down
         00003f00 00004040' 
     754 00003f20     5401          or      a0,a1
     755                    
     756 00003f30     1820          movk    1,a0
     757 00003f40     0d5f          calla   get_stick_val_down
         00003f50 00004040' 
     758 00003f70     5401          or      a0,a1
     759                    
     760 00003f80     1840          movk    2,a0
TMS340 COFF Macro Assembler Version 6.10     Tue Dec 19 01:45:15 2023
 Copyright (c) 1985-1991  Texas Instruments Incorporated 

name & team selection                                                PAGE   16

     761 00003f90     0d5f          calla   get_stick_val_down
         00003fa0 00004040' 
     762 00003fc0     5401          or      a0,a1
     763                    
     764 00003fd0     1860          movk    3,a0
     765 00003fe0     0d5f          calla   get_stick_val_down
         00003ff0 00004040' 
     766 00004010     5401          or      a0,a1
     767 00004020     4c20          move    a1,a0
     768                    
     769 00004030     0960          rets
     770                    
     771                    
     772                    
     773 00004040             SUBR  get_stick_val_down
     774                    
     775 00004040     2480          sll     4,a0                    ;x 16 bits
     776 00004050     0b20          addi    joy_offs,a0
         00004060 00004110' 
     777 00004080     8400          move    *a0,a0
     778 00004090     0b20          addi    switches_down,a0
         000040a0 00000000! 
     779 000040c0     8400          move    *a0,a0
     780 000040d0     0b80          andi    01111b,a0
         000040e0 fffffff0  
     781 00004100     0960          rets
     782                    
     783                            .if     TUNIT
     784 00004110     0000  joy_offs        .word   00h,08h,20h,28h
     785                            .else
     786                    joy_offs        .word   00h,08h,18h,20h
     787                            .endif
     788                    
     789                    
     790 00004150             SUBR  get_all_buttons_cur
     791                    
     792 00004150     5621          clr     a1
     793                    
     794 00004160     05a2          move    @PSTATUS,a2
         00004170 00000000! 
     795                    
     796 00004190     1fe2          btst    0,a2
     797 000041a0     ca05          jrz     rizuno_player1
     798 000041b0     5600          clr     a0                      ;player 1
     799 000041c0     0d5f          calla   get_but_val_cur
         000041d0 000044e0' 
     800 000041f0     5401          or      a0,a1
     801 00004200           rizuno_player1
     802                    
     803 00004200     1fc2          btst    1,a2
     804 00004210     ca05          jrz     rizuno_player2
     805 00004220     1820          movk    1,a0                    ;player 2
     806 00004230     0d5f          calla   get_but_val_cur
         00004240 000044e0' 
     807 00004260     5401          or      a0,a1
TMS340 COFF Macro Assembler Version 6.10     Tue Dec 19 01:45:15 2023
 Copyright (c) 1985-1991  Texas Instruments Incorporated 

name & team selection                                                PAGE   17

     808 00004270           rizuno_player2
     809                    
     810 00004270     1fa2          btst    2,a2
     811 00004280     ca05          jrz     rizuno_player3
     812 00004290     1840          movk    2,a0                    ;player 3
     813 000042a0     0d5f          calla   get_but_val_cur
         000042b0 000044e0' 
     814 000042d0     5401          or      a0,a1
     815 000042e0           rizuno_player3
     816                    
     817 000042e0     1f82          btst    3,a2
     818 000042f0     ca05          jrz     rizuno_player4
     819 00004300     1860          movk    3,a0                    ;player 4
     820 00004310     0d5f          calla   get_but_val_cur
         00004320 000044e0' 
     821 00004340     5401          or      a0,a1
     822 00004350           rizuno_player4
     823                    
     824 00004350     4c20          move    a1,a0
     825 00004360     0960          rets
     826                    
     827                    
     828                    
     829 00004370             SUBR  get_all_buttons_cur2
     830                    
     831 00004370     5621          clr     a1
     832 00004380     5600          clr     a0                      ;player 1
     833 00004390     0d5f          calla   get_but_val_cur
         000043a0 000044e0' 
     834 000043c0     5401          or      a0,a1
     835 000043d0     1820          movk    1,a0                    ;player 2
     836 000043e0     0d5f          calla   get_but_val_cur
         000043f0 000044e0' 
     837 00004410     5401          or      a0,a1
     838 00004420     1840          movk    2,a0                    ;player 3
     839 00004430     0d5f          calla   get_but_val_cur
         00004440 000044e0' 
     840 00004460     5401          or      a0,a1
     841 00004470     1860          movk    3,a0                    ;player 4
     842 00004480     0d5f          calla   get_but_val_cur
         00004490 000044e0' 
     843 000044b0     5401          or      a0,a1
     844 000044c0     4c20          move    a1,a0
     845 000044d0     0960          rets
     846                    
     847                    
     848                    
     849 000044e0            SUBR   get_but_val_cur
     850                    
     851 000044e0     2480          sll     4,a0                    ;x 16 bits
     852 000044f0     0b20          addi    but_offs,a0
         00004500 00004a10' 
     853 00004520     8400          move    *a0,a0
     854 00004530     0b20          addi    switches_cur,a0
         00004540 00000000! 
TMS340 COFF Macro Assembler Version 6.10     Tue Dec 19 01:45:15 2023
 Copyright (c) 1985-1991  Texas Instruments Incorporated 

name & team selection                                                PAGE   18

     855 00004560     8400          move    *a0,a0
     856 00004570     0b80          andi    0111b,a0
         00004580 fffffff8  
     857 000045a0     0960          rets
     858                    
     859                    
     860 000045b0            SUBR   get_all_buttons_down
     861                    
     862 000045b0     5621          clr     a1
     863                    
     864 000045c0     05a2          move    @PSTATUS,a2
         000045d0 00000000! 
     865                    
     866 000045f0     1fe2          btst    0,a2
     867 00004600     ca05          jrz     ppncno_player1
     868 00004610     5600          clr     a0                      ;player 1
     869 00004620     0d5f          calla   get_but_val_down
         00004630 00004940' 
     870 00004650     5401          or      a0,a1
     871 00004660           ppncno_player1
     872                    
     873 00004660     1fc2          btst    1,a2
     874 00004670     ca05          jrz     ppncno_player2
     875 00004680     1820          movk    1,a0                    ;player 2
     876 00004690     0d5f          calla   get_but_val_down
         000046a0 00004940' 
     877 000046c0     5401          or      a0,a1
     878 000046d0           ppncno_player2
     879                    
     880 000046d0     1fa2          btst    2,a2
     881 000046e0     ca05          jrz     ppncno_player3
     882 000046f0     1840          movk    2,a0                    ;player 3
     883 00004700     0d5f          calla   get_but_val_down
         00004710 00004940' 
     884 00004730     5401          or      a0,a1
     885 00004740           ppncno_player3
     886                    
     887 00004740     1f82          btst    3,a2
     888 00004750     ca05          jrz     ppncno_player4
     889 00004760     1860          movk    3,a0                    ;player 4
     890 00004770     0d5f          calla   get_but_val_down
         00004780 00004940' 
     891 000047a0     5401          or      a0,a1
     892 000047b0           ppncno_player4
     893                    
     894 000047b0     4c20          move    a1,a0
     895 000047c0     0960          rets
     896                    
     897                    
     898                    
     899 000047d0            SUBR   get_all_buttons_down2
     900                    
     901 000047d0     5621          clr     a1
     902 000047e0     5600          clr     a0                      ;player 1
     903 000047f0     0d5f          calla   get_but_val_down
TMS340 COFF Macro Assembler Version 6.10     Tue Dec 19 01:45:15 2023
 Copyright (c) 1985-1991  Texas Instruments Incorporated 

name & team selection                                                PAGE   19

         00004800 00004940' 
     904 00004820     5401          or      a0,a1
     905 00004830     1820          movk    1,a0                    ;player 2
     906 00004840     0d5f          calla   get_but_val_down
         00004850 00004940' 
     907 00004870     5401          or      a0,a1
     908 00004880     1840          movk    2,a0                    ;player 3
     909 00004890     0d5f          calla   get_but_val_down
         000048a0 00004940' 
     910 000048c0     5401          or      a0,a1
     911 000048d0     1860          movk    3,a0                    ;player 4
     912 000048e0     0d5f          calla   get_but_val_down
         000048f0 00004940' 
     913 00004910     5401          or      a0,a1
     914 00004920     4c20          move    a1,a0
     915 00004930     0960          rets
     916                    
     917                    
     918                    
     919 00004940            SUBR   get_but_val_down
     920                    
     921 00004940     2480          sll     4,a0                    ;x 16 bits
     922 00004950     0b20          addi    but_offs,a0
         00004960 00004a10' 
     923 00004980     8400          move    *a0,a0
     924 00004990     0b20          addi    switches_down,a0
         000049a0 00000000! 
     925 000049c0     8400          move    *a0,a0
     926 000049d0     0b80          andi    0111b,a0
         000049e0 fffffff8  
     927 00004a00     0960          rets
     928                    
     929                            .if     TUNIT
     930 00004a10     0004  but_offs        .word   04h,0ch,24h,2ch
     931                            .else
     932                    but_offs        .word   04h,0ch,1ch,24h
     933                            .endif
     934                    
     935                    
     936 00004a50            SUBR   get_but_val_down_nt             ;masks out turbo button
     937                    
     938 00004a50     2480          sll     4,a0                    ;x 16 bits
     939 00004a60     0b20          addi    but_offs,a0
         00004a70 00004a10' 
     940 00004a90     8400          move    *a0,a0
     941 00004aa0     0b20          addi    switches_down,a0
         00004ab0 00000000! 
     942 00004ad0     8400          move    *a0,a0
     943 00004ae0     0b80          andi    01b,a0                  ;mask out turbo and pass
         00004af0 fffffffe  
     944 00004b10     0960          rets
     945                    
     946                    
     947 00004b20            SUBR   get_steal_but_cur
     948                    
TMS340 COFF Macro Assembler Version 6.10     Tue Dec 19 01:45:15 2023
 Copyright (c) 1985-1991  Texas Instruments Incorporated 

name & team selection                                                PAGE   20

     949 00004b20     2480          sll     4,a0                    ;x 16 bits
     950 00004b30     0b20          addi    but_offs,a0
         00004b40 00004a10' 
     951 00004b60     8400          move    *a0,a0
     952 00004b70     0b20          addi    switches_cur,a0
         00004b80 00000000! 
     953 00004ba0     8400          move    *a0,a0
     954 00004bb0     0b80          andi    010b,a0                 ;mask out turbo & shoot
         00004bc0 fffffffd  
     955 00004be0     0960          rets
     956                    
     957                    
     958                            .asg    330,X1          ;89,X1
     959                            .asg    330,X2          ;307,X2
     960                            .asg    207,Y
     961                            .asg    217,Y2
     962                    
     963 00004bf0            SUBR   result_screen
     964                    
     965 00004bf0     0d5f          calla   display_blank
         00004c00 00000000! 
     966 00004c20     0d5f          calla   WIPEOUT                 ;CLEAN SYSTEM OUT
         00004c30 00000000! 
     967                    
     968 00004c50     1820          movk    1,a0                    ;page flipping on
     969 00004c60     0580          move    a0,@dpageflip
         00004c70 00000000! 
     970                    
     971 00004c90     5600          clr     a0
     972 00004ca0     0580          move    a0,@IRQSKYE             ;background color
         00004cb0 00000000! 
     973                    
     974 00004cd0                   SLEEPK  1
     975                    
     976 00004d10     09e0          movi    SCRNEND,a0              ;[256,405]
         00004d20 00fe01b0  
     977 00004d40     0780          move    a0,@SCRNLR,L
         00004d50 00000000! 
     978                    
     979 00004d70     5600          clr     a0
     980 00004d80     0780          move    a0,@WORLDTLX,L
         00004d90 00000000! 
     981 00004db0     0780          move    a0,@WORLDTLY,L
         00004dc0 00000000! 
     982                    
     983 00004de0                   SLEEPK  2
     984                    
     985 00004e20     09e0          movi    result_mod,a0
         00004e30 00006f60' 
     986 00004e50     0780          move    a0,@BAKMODS,L
         00004e60 00000000! 
     987 00004e80     0d5f          calla   BGND_UD1
         00004e90 00000000! 
     988                    
     989 00004eb0     574a          clr     a10
TMS340 COFF Macro Assembler Version 6.10     Tue Dec 19 01:45:15 2023
 Copyright (c) 1985-1991  Texas Instruments Incorporated 

name & team selection                                                PAGE   21

     990 00004ec0     1a0b          movk    16,a11
     991 00004ed0                   CREATE0 fade_up
     992                    
     993 00004f40     1820          movk    1,a0
     994 00004f50     0d5f          calla   create_player_heads
         00004f60 00000000! 
     995 00004f80     0d5f          calla   update_player_heads
         00004f90 00000000! 
     996 00004fb0     0d5f          calla   update_player_heads
         00004fc0 00000000! 
     997 00004fe0     1820          movk    1,a0
     998 00004ff0     0d5f          calla   create_logos
         00005000 00000000! 
     999 00005020     0d5f          calla   update_logos
         00005030 00000000! 
    1000                    
    1001 00005050                   CREATE0 final_scores
    1002                    
    1003 000050c0     1820          movk    1,a0
    1004 000050d0     0580          move    a0,@DISPLAYON
         000050e0 00000000! 
    1005                    
    1006 00005100                   SLEEPK  2
    1007 00005140     0d5f          calla   display_unblank
         00005150 00000000! 
    1008                    
    1009 00005170                   SLEEP   1*TSEC
    1010                    
    1011 000051c0     09ca          movi    7*TSEC,a10
         000051d0     0173  
    1012 000051e0           kmoalp  SLEEPK  1
    1013 00005220     0d5f          calla   get_all_buttons_cur2
         00005230 00004370' 
    1014 00005250     ca0f          jrz     kmoanob
    1015 00005260     5600          clr     a0
    1016 00005270     0580          move    a0,@SOUNDSUP            ;turn all sounds on
         00005280 00000000! 
    1017                            .ref    SOUNDSUP
    1018 000052a0                   SOUND1  bounce_snd
    1019 00005300     1820          movk    1,a0
    1020 00005310     0580          move    a0,@SOUNDSUP            ;turn all sounds off
         00005320 00000000! 
    1021 00005340     c001          jruc    kmoaxb
    1022 00005350           kmoanob 
    1023 00005350     3f0a          dsj     a10,kmoalp
    1024 00005360           kmoaxb
    1025 00005360     574a          clr     a10
    1026 00005370     1a0b          movk    16,a11
    1027 00005380                   CREATE0 fade_down
    1028                    
    1029 000053f0                   SLEEP   18h
    1030                    
    1031 00005440                   RETP
    1032                    
    1033 00005470     fc80  bounce_snd      .word   0fc80H,10,08129H,0      ;Ball bounce
TMS340 COFF Macro Assembler Version 6.10     Tue Dec 19 01:45:15 2023
 Copyright (c) 1985-1991  Texas Instruments Incorporated 

name & team selection                                                PAGE   22

    1034                    
    1035                    
    1036                            .if     0
    1037                    
    1038                     SUBRP  score_shadow
    1039                    
    1040                    vbejSHAD1       equ     PDATA
    1041                    vbejSHAD2       equ     vbejSHAD1+20h
    1042                    
    1043                            .asg    40,X1
    1044                            .asg    257,X2
    1045                            .asg    205,Y
    1046                    
    1047                            movi    [X1,0],a0               ;x val
    1048                            movi    [Y,0],a1                ;y val
    1049                            movi    scorshad1,a2            ;* image
    1050                            movi    300,a3                  ;z pos
    1051                            movi    DMAWNZ,a4               ;DMA flags
    1052                            clr     a5                      ;object ID
    1053                            clr     a6                      ;x vel
    1054                            clr     a7                      ;y vel
    1055                            calla   BEGINOBJ
    1056                            move    a8,*a13(vbejSHAD1),L
    1057                    
    1058                            movi    [X2,0],a0               ;x val
    1059                            movi    [Y,0],a1                ;y val
    1060                            movi    scorshad1,a2            ;* image
    1061                            movi    300,a3                  ;z pos
    1062                            movi    DMAWNZ,a4               ;DMA flags
    1063                            clr     a5                      ;object ID
    1064                            clr     a6                      ;x vel
    1065                            clr     a7                      ;y vel
    1066                            calla   BEGINOBJ
    1067                            move    a8,*a13(vbejSHAD2),L
    1068                    
    1069                            clr     a10
    1070                    vbejbig_mac
    1071                            SLEEPK  1
    1072                            xori    1,a10
    1073                    
    1074                            move    a10,a0
    1075                            sll     5,a0                    ;x 32 bits
    1076                            addi    vbejshadows,a0
    1077                            move    *a0,a11,L               ;* image
    1078                    
    1079                            move    *a13(vbejSHAD1),a8,L
    1080                            calla   vbejchange_shad
    1081                            move    *a13(vbejSHAD2),a8,L
    1082                            calla   vbejchange_shad
    1083                    
    1084                            jruc    vbejbig_mac
    1085                    
    1086                    vbejchange_shad
    1087                            move    a11,a0
    1088                            move    *a8(OCTRL),a1           ;DMA flags
TMS340 COFF Macro Assembler Version 6.10     Tue Dec 19 01:45:15 2023
 Copyright (c) 1985-1991  Texas Instruments Incorporated 

name & team selection                                                PAGE   23

    1089                            calla   obj_aniq                ;change object image
    1090                            rets
    1091                    
    1092                    
    1093                    vbejshadows
    1094                    
    1095                            .long   scorshad1,scorshad2
    1096                    
    1097                            .endif
    1098                    
    1099                    
    1100 000054b0            SUBRP  final_scores
    1101                    
    1102                            .asg    3ah,X1
    1103                            .asg    320,XF
    1104                            .asg    0d7H,Y1
    1105                            .asg    0e6H,Y2
    1106                    
    1107                    
    1108 000054b0     09e0          movi    [X1,0],a0               ;x val
         000054c0 003a0000  
    1109 000054e0     09e1          movi    [Y1,0],a1               ;y val
         000054f0 00d70000  
    1110                    
    1111 00005510     05a2          move    @team1,a2
         00005520 00000000! 
    1112 00005540     24a2          sll     5,a2
    1113 00005550     0b22          addi    city_tbl,a2
         00005560 00000000! 
    1114 00005580     8642          move    *a2,a2,L
    1115                    
    1116 00005590     09c3          movi    300,a3                  ;z pos
         000055a0     012c  
    1117 000055b0     09e4          movi    DMAWNZ,a4               ;DMA flags
         000055c0 00008002  
    1118 000055e0     56a5          clr     a5                      ;object ID
    1119 000055f0     56c6          clr     a6                      ;x vel
    1120 00005600     56e7          clr     a7                      ;y vel
    1121 00005610     0d5f          calla   BEGINOBJ
         00005620 00000000! 
    1122                    
    1123 00005640     09e0          movi    SGMD8YEL,a0
         00005650 00000000! 
    1124 00005670     0d5f          calla   pal_getf
         00005680 00000000! 
    1125 000056a0     b008          move    a0,*a8(OPAL)
         000056b0     0150  
    1126                    
    1127 000056c0     09e0          movi    [X1,0],a0               ;x val
         000056d0 003a0000  
    1128 000056f0     09e1          movi    [Y2,0],a1               ;y val
         00005700 00e60000  
    1129                    
    1130 00005720     05a2          move    @team2,a2
         00005730 00000000! 
TMS340 COFF Macro Assembler Version 6.10     Tue Dec 19 01:45:15 2023
 Copyright (c) 1985-1991  Texas Instruments Incorporated 

name & team selection                                                PAGE   24

    1131 00005750     24a2          sll     5,a2
    1132 00005760     0b22          addi    city_tbl,a2
         00005770 00000000! 
    1133 00005790     8642          move    *a2,a2,L
    1134                    
    1135 000057a0     09c3          movi    300,a3                  ;z pos
         000057b0     012c  
    1136 000057c0     09e4          movi    DMAWNZ,a4               ;DMA flags
         000057d0 00008002  
    1137 000057f0     56a5          clr     a5                      ;object ID
    1138 00005800     56c6          clr     a6                      ;x vel
    1139 00005810     56e7          clr     a7                      ;y vel
    1140 00005820     0d5f          calla   BEGINOBJ
         00005830 00000000! 
    1141                    
    1142 00005850     09e0          movi    SGMD8YEL,a0
         00005860 00000000! 
    1143 00005880     0d5f          calla   pal_getf
         00005890 00000000! 
    1144 000058b0     b008          move    a0,*a8(OPAL)
         000058c0     0150  
    1145                    
    1146                    
    1147 000058d0     09e2          movi    fbhcscore_setup,a2
         000058e0 00006770' 
    1148 00005900     0d5f          calla   setup_message
         00005910 00000000! 
    1149 00005930     05a0          move    @scores,a0
         00005940 00000000! 
    1150 00005960     09c1          movi    999,a1                  ;max value
         00005970     03e7  
    1151 00005980     0d5f          calla   dec_to_asc
         00005990 00000000! 
    1152 000059b0     0d5f          calla   copy_string
         000059c0 00000000! 
    1153 000059e0     0d5f          calla   print_string_C
         000059f0 00000000! 
    1154                    
    1155 00005a10     05a0          move    @scores+10h,a0
         00005a20 00000010! 
    1156 00005a40     09c1          movi    999,a1                  ;max value
         00005a50     03e7  
    1157 00005a60     0d5f          calla   dec_to_asc
         00005a70 00000000! 
    1158 00005a90     0d5f          calla   copy_string
         00005aa0 00000000! 
    1159 00005ac0     09c0          movi    Y2-1,a0
         00005ad0     00e5  
    1160 00005ae0     0580          move    a0,@mess_cursy
         00005af0 00000000! 
    1161 00005b10     0d5f          calla   print_string_C
         00005b20 00000000! 
    1162                    
    1163                    
    1164 00005b40     05a0          move    @kp_qscrs2,a0
TMS340 COFF Macro Assembler Version 6.10     Tue Dec 19 01:45:15 2023
 Copyright (c) 1985-1991  Texas Instruments Incorporated 

name & team selection                                                PAGE   25

         00005b50 00000000! 
    1165 00005b70     09c1          movi    999,a1                  ;max value
         00005b80     03e7  
    1166 00005b90     0d5f          calla   dec_to_asc
         00005ba0 00000000! 
    1167 00005bc0     0d5f          calla   copy_string
         00005bd0 00000000! 
    1168 00005bf0     09c0          movi    0a0H,a0
         00005c00     00a0  
    1169 00005c10     0580          move    a0,@mess_cursx
         00005c20 00000000! 
    1170 00005c40     09c0          movi    Y1-1,a0
         00005c50     00d6  
    1171 00005c60     0580          move    a0,@mess_cursy
         00005c70 00000000! 
    1172 00005c90     0d5f          calla   print_string_C
         00005ca0 00000000! 
    1173                    
    1174 00005cc0     05a0          move    @kp_qscrs2+16,a0
         00005cd0 00000010! 
    1175 00005cf0     09c1          movi    999,a1                  ;max value
         00005d00     03e7  
    1176 00005d10     0d5f          calla   dec_to_asc
         00005d20 00000000! 
    1177 00005d40     0d5f          calla   copy_string
         00005d50 00000000! 
    1178 00005d70     09c0          movi    0a0H,a0
         00005d80     00a0  
    1179 00005d90     0580          move    a0,@mess_cursx
         00005da0 00000000! 
    1180 00005dc0     09c0          movi    Y2-1,a0
         00005dd0     00e5  
    1181 00005de0     0580          move    a0,@mess_cursy
         00005df0 00000000! 
    1182 00005e10     0d5f          calla   print_string_C
         00005e20 00000000! 
    1183                    
    1184                    
    1185 00005e40     05a0          move    @kp_qscrs2+32,a0
         00005e50 00000020! 
    1186 00005e70     09c1          movi    999,a1                  ;max value
         00005e80     03e7  
    1187 00005e90     0d5f          calla   dec_to_asc
         00005ea0 00000000! 
    1188 00005ec0     0d5f          calla   copy_string
         00005ed0 00000000! 
    1189 00005ef0     09c0          movi    0c8H,a0
         00005f00     00c8  
    1190 00005f10     0580          move    a0,@mess_cursx
         00005f20 00000000! 
    1191 00005f40     09c0          movi    Y1-1,a0
         00005f50     00d6  
    1192 00005f60     0580          move    a0,@mess_cursy
         00005f70 00000000! 
    1193 00005f90     0d5f          calla   print_string_C
TMS340 COFF Macro Assembler Version 6.10     Tue Dec 19 01:45:15 2023
 Copyright (c) 1985-1991  Texas Instruments Incorporated 

name & team selection                                                PAGE   26

         00005fa0 00000000! 
    1194                    
    1195 00005fc0     05a0          move    @kp_qscrs2+48,a0
         00005fd0 00000030! 
    1196 00005ff0     09c1          movi    999,a1                  ;max value
         00006000     03e7  
    1197 00006010     0d5f          calla   dec_to_asc
         00006020 00000000! 
    1198 00006040     0d5f          calla   copy_string
         00006050 00000000! 
    1199 00006070     09c0          movi    0c8H,a0
         00006080     00c8  
    1200 00006090     0580          move    a0,@mess_cursx
         000060a0 00000000! 
    1201 000060c0     09c0          movi    Y2-1,a0
         000060d0     00e5  
    1202 000060e0     0580          move    a0,@mess_cursy
         000060f0 00000000! 
    1203 00006110     0d5f          calla   print_string_C
         00006120 00000000! 
    1204                    
    1205                    
    1206 00006140     05a0          move    @kp_qscrs2+64,a0
         00006150 00000040! 
    1207 00006170     09c1          movi    999,a1                  ;max value
         00006180     03e7  
    1208 00006190     0d5f          calla   dec_to_asc
         000061a0 00000000! 
    1209 000061c0     0d5f          calla   copy_string
         000061d0 00000000! 
    1210 000061f0     09c0          movi    0f0H,a0
         00006200     00f0  
    1211 00006210     0580          move    a0,@mess_cursx
         00006220 00000000! 
    1212 00006240     09c0          movi    Y1-1,a0
         00006250     00d6  
    1213 00006260     0580          move    a0,@mess_cursy
         00006270 00000000! 
    1214 00006290     0d5f          calla   print_string_C
         000062a0 00000000! 
    1215                    
    1216 000062c0     05a0          move    @kp_qscrs2+80,a0
         000062d0 00000050! 
    1217 000062f0     09c1          movi    999,a1                  ;max value
         00006300     03e7  
    1218 00006310     0d5f          calla   dec_to_asc
         00006320 00000000! 
    1219 00006340     0d5f          calla   copy_string
         00006350 00000000! 
    1220 00006370     09c0          movi    0f0H,a0
         00006380     00f0  
    1221 00006390     0580          move    a0,@mess_cursx
         000063a0 00000000! 
    1222 000063c0     09c0          movi    Y2-1,a0
         000063d0     00e5  
TMS340 COFF Macro Assembler Version 6.10     Tue Dec 19 01:45:15 2023
 Copyright (c) 1985-1991  Texas Instruments Incorporated 

name & team selection                                                PAGE   27

    1223 000063e0     0580          move    a0,@mess_cursy
         000063f0 00000000! 
    1224 00006410     0d5f          calla   print_string_C
         00006420 00000000! 
    1225                    
    1226                    
    1227 00006440     05a0          move    @kp_qscrs2+96,a0
         00006450 00000060! 
    1228 00006470     09c1          movi    999,a1                  ;max value
         00006480     03e7  
    1229 00006490     0d5f          calla   dec_to_asc
         000064a0 00000000! 
    1230 000064c0     0d5f          calla   copy_string
         000064d0 00000000! 
    1231 000064f0     09c0          movi    0118H,a0
         00006500     0118  
    1232 00006510     0580          move    a0,@mess_cursx
         00006520 00000000! 
    1233 00006540     09c0          movi    Y1-1,a0
         00006550     00d6  
    1234 00006560     0580          move    a0,@mess_cursy
         00006570 00000000! 
    1235 00006590     0d5f          calla   print_string_C
         000065a0 00000000! 
    1236                    
    1237 000065c0     05a0          move    @kp_qscrs2+112,a0
         000065d0 00000070! 
    1238 000065f0     09c1          movi    999,a1                  ;max value
         00006600     03e7  
    1239 00006610     0d5f          calla   dec_to_asc
         00006620 00000000! 
    1240 00006640     0d5f          calla   copy_string
         00006650 00000000! 
    1241 00006670     09c0          movi    0118H,a0
         00006680     0118  
    1242 00006690     0580          move    a0,@mess_cursx
         000066a0 00000000! 
    1243 000066c0     09c0          movi    Y2-1,a0
         000066d0     00e5  
    1244 000066e0     0580          move    a0,@mess_cursy
         000066f0 00000000! 
    1245 00006710     0d5f          calla   print_string_C
         00006720 00000000! 
    1246                    
    1247 00006740                   DIE
    1248                    
    1249 00006770           fbhcscore_setup
    1250 00006770                   RJR_STR osgmd8_ascii,8,0,XF,Y1-1,SGMD8WHT,0
    1251                    
    1252                    
    1253                    
    1254 00006810            SUBR   matchup_screen
    1255                    
    1256 00006810     1820          movk    1,a0
    1257 00006820     0580          move    a0,@inmatchup
TMS340 COFF Macro Assembler Version 6.10     Tue Dec 19 01:45:15 2023
 Copyright (c) 1985-1991  Texas Instruments Incorporated 

name & team selection                                                PAGE   28

         00006830 00000000! 
    1258                    
    1259 00006850     0d5f          calla   display_blank
         00006860 00000000! 
    1260 00006880     0d5f          calla   WIPEOUT                 ;CLEAN SYSTEM OUT
         00006890 00000000! 
    1261                    
    1262 000068b0     1820          movk    1,a0                    ;page flipping on
    1263 000068c0     0580          move    a0,@dpageflip
         000068d0 00000000! 
    1264                    
    1265 000068f0     5600          clr     a0
    1266 00006900     0580          move    a0,@IRQSKYE             ;background color
         00006910 00000000! 
    1267                    
    1268 00006930     09e0          movi    SCRNEND,a0              ;[256,405]
         00006940 00fe01b0  
    1269 00006960     0780          move    a0,@SCRNLR,L
         00006970 00000000! 
    1270                    
    1271 00006990     5600          clr     a0
    1272 000069a0     0780          move    a0,@WORLDTLX,L
         000069b0 00000000! 
    1273 000069d0     0780          move    a0,@WORLDTLY,L
         000069e0 00000000! 
    1274                    
    1275 00006a00                   SLEEPK  2
    1276                    
    1277 00006a40     09e0          movi    matchup_mod,a0
         00006a50 00006f00' 
    1278 00006a70     0780          move    a0,@BAKMODS,L
         00006a80 00000000! 
    1279 00006aa0     0d5f          calla   BGND_UD1
         00006ab0 00000000! 
    1280                    
    1281 00006ad0     1820          movk    1,a0
    1282 00006ae0     0d5f          calla   create_player_heads
         00006af0 00000000! 
    1283 00006b10     0d5f          calla   update_player_heads
         00006b20 00000000! 
    1284 00006b40     0d5f          calla   update_player_heads
         00006b50 00000000! 
    1285 00006b70     1820          movk    1,a0
    1286 00006b80     0d5f          calla   create_logos
         00006b90 00000000! 
    1287 00006bb0     0d5f          calla   update_logos
         00006bc0 00000000! 
    1288                    
    1289 00006be0     0d5f          calla   get_teams_pop
         00006bf0 00000000! 
    1290 00006c10     0d5f          calla   print_ranking
         00006c20 00000000! 
    1291                    
    1292 00006c40     1820          movk    1,a0
    1293 00006c50     0580          move    a0,@DISPLAYON
TMS340 COFF Macro Assembler Version 6.10     Tue Dec 19 01:45:15 2023
 Copyright (c) 1985-1991  Texas Instruments Incorporated 

name & team selection                                                PAGE   29

         00006c60 00000000! 
    1294                    
    1295 00006c80                   SLEEPK  2
    1296 00006cc0     0d5f          calla   display_unblank
         00006cd0 00000000! 
    1297                    
    1298 00006cf0                   CREATE0 call_matchup
    1299                            .ref    flash_plyr_wht
    1300 00006d60                   CREATE0 flash_plyr_wht
    1301                    
    1302 00006dd0                   SLEEP   TSEC*3
    1303                    
    1304 00006e20     09ca          movi    3*TSEC,a10
         00006e30     009f  
    1305 00006e40           clyddelay
    1306 00006e40                   SLEEPK  1
    1307 00006e80     0d5f          calla   get_all_buttons_cur
         00006e90 00004150' 
    1308 00006eb0     cb01          jrnz    clydexit
    1309 00006ec0     3d2a          dsj     a10,clyddelay
    1310 00006ed0           clydexit
    1311                    
    1312 00006ed0                   RETP
    1313                    
    1314 00006f00           matchup_mod
    1315 00006f00 00000000!         .long   matchupBMOD             ;matchup screen
    1316 00006f20     0000          .word   0,0
    1317 00006f40 00000000          .long   0
    1318                    
    1319 00006f60           result_mod
    1320 00006f60 00000000!         .long   finalBMOD               ;final result screen
    1321 00006f80     0000          .word   0,0
    1322 00006fa0 00000000          .long   0
    1323                    
    1324                    
    1325                    
    1326                            .asg    200-2,X
    1327                            .asg    80,Y
    1328                    
    1329 00006fc0           takmrestart
    1330 00006fc0     0d5f          calla   DELOBJA8
         00006fd0 00000000! 
    1331                    
    1332 00006ff0            SUBR   timeout
    1333                    
    1334 00006ff0     5600          clr     a0
    1335 00007000     0580          move    a0,@force_selection
         00007010 00000000! 
    1336                    
    1337 00007030     4d4b          move    a10,a11
    1338 00007040           takmwait
    1339 00007040                   SLEEPK  1
    1340 00007080     3cab          dsj     a11,takmwait
    1341                    
    1342 00007090     09f0          movi    LGMDRED2,b0
TMS340 COFF Macro Assembler Version 6.10     Tue Dec 19 01:45:15 2023
 Copyright (c) 1985-1991  Texas Instruments Incorporated 

name & team selection                                                PAGE   30

         000070a0 00000000! 
    1343 000070c0     09e0          movi    [X,0],a0                        ;x val
         000070d0 00c60000  
    1344 000070f0     09e1          movi    [Y,0],a1                        ;y val
         00007100 00500000  
    1345 00007120     09e2          movi    lgmd_9,a2                       ;* image
         00007130 00000000! 
    1346 00007150     09c3          movi    30001,a3                        ;z pos
         00007160     7531  
    1347 00007170     09e4          movi    DMAWNZ|M_SCRNREL,a4             ;DMA flags
         00007180 0000a002  
    1348 000071a0     09c5          movi    TYPTEXT,a5                      ;object ID
         000071b0     0700  
    1349 000071c0     56c6          clr     a6                              ;x vel
    1350 000071d0     56e7          clr     a7                              ;y vel
    1351 000071e0     0d5f          calla   BEGINOBJP2
         000071f0 00000000! 
    1352 00007210     0d5f          calla   takmcenter_image
         00007220 00007750' 
    1353                    
    1354 00007240     05a9          move    @PSTATUS,a9
         00007250 00000000! 
    1355                    
    1356 00007270     09cb          movi    9,a11
         00007280     0009  
    1357 00007290           takmloop
    1358 00007290                   SOUND1  cntdown_snd
    1359                    
    1360 000072f0                   SLEEP   TSEC+25
    1361                    
    1362 00007340     05a0          move    @PSTATUS,a0             ;if player buys in
         00007350 00000000! 
    1363 00007370     4920          cmp     a9,a0                   ;then restart timer
    1364 00007380     cbc3          jrne    takmrestart
    1365                    
    1366 00007390     0d5f          calla   obj_off
         000073a0 00000000! 
    1367                    
    1368 000073c0                   SOUND1  cntdown_snd
    1369                    
    1370 00007420                   SLEEP   (1*TSEC)/2
    1371                    
    1372 00007470     05a0          move    @PSTATUS,a0
         00007480 00000000! 
    1373 000074a0     4920          cmp     a9,a0
    1374 000074b0     cbb0          jrne    takmrestart
    1375                    
    1376 000074c0     0d5f          calla   obj_on
         000074d0 00000000! 
    1377 000074f0     4d60          move    a11,a0
    1378 00007500     24a0          sll     5,a0
    1379 00007510     0b20          addi    takmnums-20h,a0
         00007520 000077c0' 
    1380 00007540     8600          move    *a0,a0,L                ;* image
    1381 00007550     09e1          movi    DMAWNZ,a1               ;DMA flags
TMS340 COFF Macro Assembler Version 6.10     Tue Dec 19 01:45:15 2023
 Copyright (c) 1985-1991  Texas Instruments Incorporated 

name & team selection                                                PAGE   31

         00007560 00008002  
    1382 00007580     0d5f          calla   obj_aniq                ;change object image
         00007590 00000000! 
    1383 000075b0     0d5f          calla   takmcenter_image
         000075c0 00007750' 
    1384                    
    1385 000075e0     0d8b          dsj     a11,takmloop
         000075f0     ffc9  
    1386                    
    1387 00007600                   SOUND1  cntdown_snd
    1388                    
    1389 00007660                   SLEEP   (1*TSEC+25)/2
    1390                    
    1391 000076b0     1820          movk    1,a0
    1392 000076c0     0580          move    a0,@force_selection
         000076d0 00000000! 
    1393                    
    1394 000076f0     0d5f          calla   DELOBJA8
         00007700 00000000! 
    1395 00007720                   DIE
    1396                    
    1397                    
    1398 00007750           takmcenter_image
    1399 00007750     b500          move    *a8(OSIZEX),a0
         00007760     0130  
    1400 00007770     2fe0          srl     1,a0
    1401 00007780     09c1          movi    X,a1
         00007790     00c6  
    1402 000077a0     4401          sub     a0,a1
    1403 000077b0     b028          move    a1,*a8(OXPOS)
         000077c0     0090  
    1404 000077d0     0960          rets
    1405                    
    1406                    
    1407 000077e0 00000000! takmnums        .long   lgmd_0,lgmd_1,lgmd_2
    1408 00007840 00000000!         .long   lgmd_3,lgmd_4,lgmd_5
    1409 000078a0 00000000!         .long   lgmd_6,lgmd_7,lgmd_8,lgmd_9
    1410                    
    1411                    
    1412                            .asg    200-2,X
    1413                            .asg    80,Y
    1414                    
    1415 00007920           artmrestart
    1416 00007920                   PULLP   a0
    1417 00007930     0d5f          calla   DELOBJA8
         00007940 00000000! 
    1418                    
    1419 00007960            SUBR   timeout2
    1420                    
    1421 00007960     5600          clr     a0
    1422 00007970     0580          move    a0,@force_selection
         00007980 00000000! 
    1423                    
    1424 000079a0     4d4b          move    a10,a11
    1425 000079b0           artmwait
TMS340 COFF Macro Assembler Version 6.10     Tue Dec 19 01:45:15 2023
 Copyright (c) 1985-1991  Texas Instruments Incorporated 

name & team selection                                                PAGE   32

    1426 000079b0                   SLEEPK  1
    1427 000079f0     3cab          dsj     a11,artmwait
    1428                    
    1429 00007a00     09f0          movi    LGMDRED2,b0
         00007a10 00000000! 
    1430 00007a30     09e0          movi    [X,0],a0                        ;x val
         00007a40 00c60000  
    1431 00007a60     09e1          movi    [Y,0],a1                        ;y val
         00007a70 00500000  
    1432 00007a90     09e2          movi    lgmd_9,a2                       ;* image
         00007aa0 00000000! 
    1433 00007ac0     09c3          movi    30001,a3                        ;z pos
         00007ad0     7531  
    1434 00007ae0     09e4          movi    DMAWNZ|M_SCRNREL,a4             ;DMA flags
         00007af0 0000a002  
    1435 00007b10     09c5          movi    TYPTEXT,a5                      ;object ID
         00007b20     0700  
    1436 00007b30     56c6          clr     a6                              ;x vel
    1437 00007b40     56e7          clr     a7                              ;y vel
    1438 00007b50     0d5f          calla   BEGINOBJP2
         00007b60 00000000! 
    1439 00007b80     0d5f          calla   artmcenter_image
         00007b90 00008270' 
    1440                    
    1441 00007bb0     05a9          move    @PSTATUS,a9
         00007bc0 00000000! 
    1442                    
    1443 00007be0     09c0          movi    9,a0
         00007bf0     0009  
    1444 00007c00           artmloop
    1445 00007c00                   PUSHP   a0
    1446                    
    1447 00007c10                   SOUND1  cntdown_snd
    1448                    
    1449 00007c70     09cb          movi    TSEC+25,a11
         00007c80     004e  
    1450 00007c90           artmloop2
    1451 00007c90                   SLEEPK  1
    1452 00007cd0     0d5f          calla   get_all_starts_down
         00007ce0 000030c0' 
    1453 00007d00     cb01          jrnz    artmxit1
    1454 00007d10     3d2b          dsj     a11,artmloop2
    1455 00007d20           artmxit1
    1456                    
    1457 00007d20                   SOUND1  cntdown_snd
    1458                    
    1459 00007d80     05a0          move    @PSTATUS,a0             ;if player buys in
         00007d90 00000000! 
    1460 00007db0     4920          cmp     a9,a0                   ;then restart timer
    1461 00007dc0     cbb5          jrne    artmrestart
    1462                    
    1463 00007dd0     0d5f          calla   obj_off
         00007de0 00000000! 
    1464                    
    1465 00007e00     09cb          movi    (1*TSEC)/2,a11
TMS340 COFF Macro Assembler Version 6.10     Tue Dec 19 01:45:15 2023
 Copyright (c) 1985-1991  Texas Instruments Incorporated 

name & team selection                                                PAGE   33

         00007e10     001a  
    1466 00007e20           artmloop3
    1467 00007e20                   SLEEPK  1
    1468 00007e60     0d5f          calla   get_all_starts_down
         00007e70 000030c0' 
    1469 00007e90     cb01          jrnz    artmxit2
    1470 00007ea0     3d2b          dsj     a11,artmloop3
    1471 00007eb0           artmxit2
    1472                    
    1473 00007eb0     05a0          move    @PSTATUS,a0
         00007ec0 00000000! 
    1474 00007ee0     4920          cmp     a9,a0
    1475 00007ef0     cba2          jrne    artmrestart
    1476                    
    1477 00007f00     0d5f          calla   obj_on
         00007f10 00000000! 
    1478 00007f30                   PULLP   a0
    1479 00007f40                   PUSHP   a0
    1480 00007f50     24a0          sll     5,a0
    1481 00007f60     0b20          addi    artmnums-20h,a0
         00007f70 000082e0' 
    1482 00007f90     8600          move    *a0,a0,L                ;* image
    1483 00007fa0     09e1          movi    DMAWNZ,a1               ;DMA flags
         00007fb0 00008002  
    1484 00007fd0     0d5f          calla   obj_aniq                ;change object image
         00007fe0 00000000! 
    1485 00008000     0d5f          calla   artmcenter_image
         00008010 00008270' 
    1486                    
    1487 00008030                   PULLP   a0
    1488 00008040     0d80          dsj     a0,artmloop
         00008050     ffba  
    1489                    
    1490 00008060                   SOUND1  cntdown_snd
    1491                    
    1492 000080c0     09cb          movi    (1*TSEC+25)/2,a11
         000080d0     0027  
    1493 000080e0           artmloop4
    1494 000080e0                   SLEEPK  1
    1495 00008120     0d5f          calla   get_all_starts_down
         00008130 000030c0' 
    1496 00008150     cb01          jrnz    artmxit3
    1497 00008160     3d2b          dsj     a11,artmloop4
    1498 00008170           artmxit3
    1499 00008170                   SOUND1  cntdown_snd
    1500                    
    1501 000081d0     1820          movk    1,a0
    1502 000081e0     0580          move    a0,@force_selection
         000081f0 00000000! 
    1503                    
    1504 00008210     0d5f          calla   DELOBJA8
         00008220 00000000! 
    1505 00008240                   DIE
    1506                    
    1507                    
TMS340 COFF Macro Assembler Version 6.10     Tue Dec 19 01:45:15 2023
 Copyright (c) 1985-1991  Texas Instruments Incorporated 

name & team selection                                                PAGE   34

    1508 00008270           artmcenter_image
    1509 00008270     b500          move    *a8(OSIZEX),a0
         00008280     0130  
    1510 00008290     2fe0          srl     1,a0
    1511 000082a0     09c1          movi    X,a1
         000082b0     00c6  
    1512 000082c0     4401          sub     a0,a1
    1513 000082d0     b028          move    a1,*a8(OXPOS)
         000082e0     0090  
    1514 000082f0     0960          rets
    1515                    
    1516                    
    1517 00008300 00000000! artmnums        .long   lgmd_0,lgmd_1,lgmd_2
    1518 00008360 00000000!         .long   lgmd_3,lgmd_4,lgmd_5
    1519 000083c0 00000000!         .long   lgmd_6,lgmd_7,lgmd_8,lgmd_9
    1520                    
    1521                    
    1522                            .asg    200-2,X
    1523                            .asg    80,Y
    1524                    
    1525 00008440            SUBR   timeout3
    1526                    
    1527 00008440     5600          clr     a0
    1528 00008450     0580          move    a0,@force_selection
         00008460 00000000! 
    1529                    
    1530                            .ref    BTIME
    1531 00008480     0580          move    a0,@BTIME
         00008490 00000000! 
    1532                    
    1533                    
    1534 000084b0     09f0          movi    LGMDRED2,b0
         000084c0 00000000! 
    1535 000084e0     09e0          movi    [X,0],a0                        ;x val
         000084f0 00c60000  
    1536 00008510     09e1          movi    [Y,0],a1                        ;y val
         00008520 00500000  
    1537 00008540     09e2          movi    lgmd_9,a2                       ;* image
         00008550 00000000! 
    1538 00008570     09c3          movi    30001,a3                        ;z pos
         00008580     7531  
    1539 00008590     09e4          movi    DMAWNZ|M_SCRNREL,a4             ;DMA flags
         000085a0 0000a002  
    1540 000085c0     09c5          movi    TYPTEXT,a5                      ;object ID
         000085d0     0700  
    1541 000085e0     56c6          clr     a6                              ;x vel
    1542 000085f0     56e7          clr     a7                              ;y vel
    1543 00008600     0d5f          calla   BEGINOBJP2
         00008610 00000000! 
    1544 00008630     0d5f          calla   fpajcenter_image
         00008640 00008f90' 
    1545                    
    1546 00008660     05a9          move    @PSTATUS,a9
         00008670 00000000! 
    1547                    
TMS340 COFF Macro Assembler Version 6.10     Tue Dec 19 01:45:15 2023
 Copyright (c) 1985-1991  Texas Instruments Incorporated 

name & team selection                                                PAGE   35

    1548 00008690     09c0          movi    9,a0
         000086a0     0009  
    1549 000086b0           fpajloop
    1550 000086b0                   PUSHP   a0
    1551                    
    1552 000086c0                   SOUND1  cntdown_snd
    1553                    
    1554 00008720                   SLEEPK  3
    1555 00008760     09cb          movi    TSEC+25-3,a11
         00008770     004b  
    1556 00008780           fpajloop2
    1557 00008780                   SLEEPK  1
    1558                    
    1559 000087c0     05a0          move    @BTIME,a0
         000087d0 00000000! 
    1560 000087f0     cb60          jrnz    fpajreset
    1561                    
    1562 00008800     0d5f          calla   get_all_buttons_cur2
         00008810 00004370' 
    1563 00008830     cb01          jrnz    fpajxit1
    1564 00008840     3dab          dsj     a11,fpajloop2
    1565 00008850           fpajxit1
    1566                    
    1567 00008850                   SOUND1  cntdown_snd
    1568                    
    1569 000088b0     0d5f          calla   obj_off
         000088c0 00000000! 
    1570                    
    1571 000088e0                   SLEEPK  2
    1572 00008920     09cb          movi    (1*TSEC)/2-3,a11
         00008930     0017  
    1573 00008940           fpajloop3
    1574 00008940                   SLEEPK  1
    1575                    
    1576 00008980     05a0          move    @BTIME,a0
         00008990 00000000! 
    1577 000089b0     cb44          jrnz    fpajreset
    1578                    
    1579 000089c0     0d5f          calla   get_all_buttons_cur2
         000089d0 00004370' 
    1580 000089f0     cb01          jrnz    fpajxit2
    1581 00008a00     3dab          dsj     a11,fpajloop3
    1582 00008a10           fpajxit2
    1583                    
    1584 00008a10     0d5f          calla   obj_on
         00008a20 00000000! 
    1585 00008a40                   PULLP   a0
    1586 00008a50                   PUSHP   a0
    1587 00008a60     24a0          sll     5,a0
    1588 00008a70     0b20          addi    fpajnums-20h,a0
         00008a80 00009000' 
    1589 00008aa0     8600          move    *a0,a0,L                ;* image
    1590 00008ab0     09e1          movi    DMAWNZ,a1               ;DMA flags
         00008ac0 00008002  
    1591 00008ae0     0d5f          calla   obj_aniq                ;change object image
TMS340 COFF Macro Assembler Version 6.10     Tue Dec 19 01:45:15 2023
 Copyright (c) 1985-1991  Texas Instruments Incorporated 

name & team selection                                                PAGE   36

         00008af0 00000000! 
    1592 00008b10     0d5f          calla   fpajcenter_image
         00008b20 00008f90' 
    1593                    
    1594 00008b40                   PULLP   a0
    1595 00008b50     0d80          dsj     a0,fpajloop
         00008b60     ffb4  
    1596                    
    1597 00008b70                   SOUND1  cntdown_snd
    1598                    
    1599 00008bd0                   SLEEPK  3
    1600 00008c10     09cb          movi    (1*TSEC+25)/2-3,a11
         00008c20     0024  
    1601 00008c30           fpajloop4
    1602 00008c30                   SLEEPK  1
    1603                    
    1604 00008c70     05a0          move    @BTIME,a0
         00008c80 00000000! 
    1605 00008ca0     cb15          jrnz    fpajreset
    1606                    
    1607 00008cb0     0d5f          calla   get_all_buttons_cur2
         00008cc0 00004370' 
    1608 00008ce0     cb01          jrnz    fpajxit3
    1609 00008cf0     3dab          dsj     a11,fpajloop4
    1610 00008d00           fpajxit3
    1611                    
    1612 00008d00                   SOUND1  cntdown_snd
    1613                    
    1614 00008d60     1820          movk    1,a0
    1615 00008d70     0580          move    a0,@force_selection
         00008d80 00000000! 
    1616                    
    1617 00008da0     0d5f          calla   DELOBJA8
         00008db0 00000000! 
    1618 00008dd0                   DIE
    1619                    
    1620 00008e00           fpajreset
    1621 00008e00     5600          clr     a0
    1622 00008e10     0580          move    a0,@BTIME
         00008e20 00000000! 
    1623 00008e40     09ca          movi    TSEC,a10
         00008e50     0035  
    1624 00008e60                   CREATE0 timeout3
    1625 00008ed0     0d5f          calla   DELOBJA8
         00008ee0 00000000! 
    1626 00008f00                   SOUND1  cntdown_snd
    1627 00008f60                   DIE
    1628                    
    1629                    
    1630 00008f90           fpajcenter_image
    1631 00008f90     b500          move    *a8(OSIZEX),a0
         00008fa0     0130  
    1632 00008fb0     2fe0          srl     1,a0
    1633 00008fc0     09c1          movi    X,a1
         00008fd0     00c6  
TMS340 COFF Macro Assembler Version 6.10     Tue Dec 19 01:45:15 2023
 Copyright (c) 1985-1991  Texas Instruments Incorporated 

name & team selection                                                PAGE   37

    1634 00008fe0     4401          sub     a0,a1
    1635 00008ff0     b028          move    a1,*a8(OXPOS)
         00009000     0090  
    1636 00009010     0960          rets
    1637                    
    1638                    
    1639 00009020 00000000! fpajnums        .long   lgmd_0,lgmd_1,lgmd_2
    1640 00009080 00000000!         .long   lgmd_3,lgmd_4,lgmd_5
    1641 000090e0 00000000!         .long   lgmd_6,lgmd_7,lgmd_8,lgmd_9
    1642                    
    1643                    
    1644 00009160            SUBR   check_initials
    1645                    
    1646 00009160     248a          sll     4,a10                           ;x 16
    1647 00009170     0b2a          addi    special_heads,a10
         00009180 00000000! 
    1648                    
    1649 000091a0     56a5          clr     a5
    1650                    
    1651 000091b0     09e2          movi    fgatteam_inits,a2
         000091c0 00009540' 
    1652                    
    1653 000091e0           fgatnext
    1654 000091e0     b460          move    *a3(PR_INIT1),a0
         000091f0     0040  
    1655 00009200     ce2c          jrn     fgatno_match
    1656 00009210     8441          move    *a2,a1
    1657 00009220     4801          cmp     a0,a1
    1658 00009230     cb29          jrne    fgatno_match
    1659                    
    1660 00009240     b460          move    *a3(PR_INIT2),a0
         00009250     0050  
    1661 00009260     b441          move    *a2(10h),a1
         00009270     0010  
    1662 00009280     4801          cmp     a0,a1
    1663 00009290     cb23          jrne    fgatno_match
    1664                    
    1665 000092a0     b460          move    *a3(PR_INIT3),a0
         000092b0     0060  
    1666 000092c0     b441          move    *a2(20h),a1
         000092d0     0020  
    1667 000092e0     4801          cmp     a0,a1
    1668 000092f0     cb1d          jrne    fgatno_match
    1669                    
    1670 00009300     b460          move    *a3(PR_MONTH),a0
         00009310     0070  
    1671 00009320     1020          inc     a0
    1672 00009330     b441          move    *a2(30h),a1
         00009340     0030  
    1673 00009350     4801          cmp     a0,a1
    1674 00009360     cb16          jrne    fgatno_match
    1675                    
    1676 00009370     b460          move    *a3(PR_DAY),a0
         00009380     0080  
    1677 00009390     1020          inc     a0
TMS340 COFF Macro Assembler Version 6.10     Tue Dec 19 01:45:15 2023
 Copyright (c) 1985-1991  Texas Instruments Incorporated 

name & team selection                                                PAGE   38

    1678 000093a0     b441          move    *a2(40h),a1
         000093b0     0040  
    1679 000093c0     4801          cmp     a0,a1
    1680 000093d0     cb0f          jrne    fgatno_match
    1681                    
    1682 000093e0     1b80          movk    ADJTOURNEY,a0           ;Tournament mode?
    1683 000093f0     0d5f          calla   GET_ADJ                 ;0-1
         00009400 00000000! 
    1684 00009420     ca09          jrz     fgatyes                 ;On? Br=yes
    1685                    
    1686 00009430     80aa          move    a5,*a10                 ;special head number
    1687 00009440     4ca0          move    a5,a0
    1688 00009450     24c0          sll     6,a0                    ;x 16 x 4
    1689 00009460     0b20          addi    fgatteam_snds,a0
         00009470 0000aad0' 
    1690 00009490     0d5f          calla   speech_playovrp
         000094a0 00000000! 
    1691 000094c0           fgatyes
    1692 000094c0     0960          rets
    1693                            
    1694                    
    1695 000094d0           fgatno_match
    1696 000094d0     0b02          addi    50h,a2
         000094e0     0050  
    1697 000094f0     1025          inc     a5
    1698 00009500     0b45          cmpi    61+7,a5
         00009510     ffbb  
    1699 00009520     c4cb          jrlt    fgatnext
    1700                    
    1701 00009530     0960          rets
    1702                    
    1703                    
    1704 00009540           fgatteam_inits
    1705 00009540     0013          .word   'T'-'A','W'-'A','G'-'A' ,12,07  ;0  GOSKIE
    1706 00009590     0011          .word   'R'-'A','J'-'A','R'-'A' ,01,17  ;1  RIVETT
    1707 000095e0     0009          .word   'J'-'A','M'-'A','C'-'A' ,08,05  ;2  CARLTON
    1708 00009630     0012          .word   'S'-'A','A'-'A','L'-'A' ,02,01  ;3  DIVITA
    1709 00009680     0012          .word   'S'-'A','L'-'A',26      ,06,24  ;4  LIPTAK
    1710 000096d0     000c          .word   'M'-'A','J'-'A','T'-'A' ,03,22  ;5  TURMELL
    1711 00009720     0009          .word   'J'-'A','W'-'A','H'-'A' ,09,20  ;6  HEY
    1712 00009770     0006          .word   'G'-'A','N'-'A','P'-'A' ,10,08  ;7  PETRO
    1713 000097c0     0009          .word   'J'-'A','R'-'A','N'-'A' ,06,18  ;8  NEWCOMER
    1714 00009810     0012          .word   'S'-'A','N'-'A','O'-'A' ,01,03  ;9  OURSLER
    1715 00009860     0000          .word   'A'-'A','M'-'A','L'-'A' ,08,31  ;10 LASKO
    1716 000098b0     0016          .word   'W'-'A','I'-'A','L'-'A' ,01,01  ;11 MORRIS 
    1717 00009900     0002          .word   'C'-'A','M'-'A','M'-'A' ,07,02  ;12 MEDNICK
    1718 00009950     0003          .word   'D'-'A','W'-'A','F'-'A' ,09,28  ;13 FORDEN
    1719 000099a0     0003          .word   'D'-'A','I'-'A','E'-'A' ,01,01  ;14 KINKEAD             *;2/23
    1720 000099f0     0004          .word   'E'-'A','P'-'A','J'-'A' ,01,27  ;15 JARVIS      
    1721                    
    1722 00009a40     0012          .word   'S'-'A','U'-'A','B'-'A' ,11,05  ;16 SUBZ        
    1723                    
    1724 00009a90     0009          .word   'J'-'A','E'-'A','H'-'A' ,07,13  ;17 HAEGER      
    1725 00009ae0     0009          .word   'J'-'A','M'-'A','S'-'A' ,02,22  ;18 SIMPSON
    1726 00009b30     0009          .word   'J'-'A','D'-'A','G'-'A' ,05,31  ;19 GREEN       
TMS340 COFF Macro Assembler Version 6.10     Tue Dec 19 01:45:15 2023
 Copyright (c) 1985-1991  Texas Instruments Incorporated 

name & team selection                                                PAGE   39

    1727 00009b80     0009          .word   'J'-'A','P'-'A','G'-'A' ,01,23  ;20 GENTILE
    1728 00009bd0     0009          .word   'J'-'A','P'-'A','D'-'A' ,06,03  ;21 DILLON
    1729 00009c20     0009          .word   'J'-'A','M'-'A','L'-'A' ,11,04  ;22 LOWES
    1730 00009c70     0015          .word   'V'-'A','O'-'A','G'-'A' ,06,27  ;23 VOGEL       
    1731 00009cc0     0009          .word   'J'-'A','Y'-'A','T'-'A' ,11,28  ;24 TSUI
    1732 00009d10     0015          .word   'V'-'A','L'-'A','K'-'A' ,11,09  ;25 DEMAR/KAMM
    1733 00009d60     000b          .word   'L'-'A','T'-'A','D'-'A' ,04,30  ;26 DEAL
    1734 00009db0     000c          .word   'M'-'A','V'-'A','B'-'A' ,04,18  ;27 BOOTY
    1735 00009e00     000c          .word   'M'-'A','L'-'A',26      ,05,25  ;28 LOFFRE
    1736 00009e50     000c          .word   'M'-'A','D'-'A','P'-'A' ,01,13  ;29 PENACHO
    1737 00009ea0     000f          .word   'P'-'A','C'-'A','B'-'A' ,05,09  ;30 BARKER
    1738 00009ef0     000f          .word   'P'-'A','G'-'A','C'-'A' ,04,11  ;31 COX
    1739                    
    1740 00009f40     0011          .word   'R'-'A','A'-'A','D'-'A' ,07,09  ;32 RAIDEN
    1741 00009f90     0001          .word   'B'-'A','I'-'A','G'-'A' ,09,31  ;33 REAPER                      
    1742                    
    1743 00009fe0     0011          .word   'R'-'A','E'-'A','M'-'A' ,03,26  ;34 MACIKA
    1744 0000a030     0011          .word   'R'-'A','O'-'A','G'-'A' ,08,01  ;35 SHARPE
    1745 0000a080     0012          .word   'S'-'A','A'-'A','B'-'A' ,08,29  ;36 BERAN               
    1746                    
    1747 0000a0d0     000a          .word   'K'-'A','N'-'A','G'-'A' ,03,26  ;38 KONGO
    1748                    
    1749 0000a120     0015          .word   'V'-'A','J'-'A','P'-'A' ,04,11  ;39 PONTAREL    
    1750                    
    1751 0000a170     0004          .word   'E'-'A','L'-'A','V'-'A' ,01,08  ;40 ELVIS               
    1752                    
    1753 0000a1c0     0016          .word   'W'-'A','B'-'A','D'-'A' ,08,17  ;41 DAVIS
    1754 0000a210     0004          .word   'E'-'A','J'-'A','B'-'A' ,02,22  ;42 BOON                        
    1755 0000a260     0013          .word   'T'-'A','O'-'A','B'-'A' ,08,24  ;43 TOBIAS              
    1756 0000a2b0     0016          .word   'W'-'A','M'-'A','N'-'A' ,11,11  ;44 HEITSCH
    1757 0000a300     0003          .word   'D'-'A','O'-'A','Z'-'A' ,12,31  ;45 DABEL
    1758 0000a350     000c          .word   'M'-'A','A'-'A','M'-'A' ,08,07  ;46 MARTINEZ
    1759 0000a3a0     0011          .word   'R'-'A','J'-'A','D'-'A' ,09,03  ;47 DAVIES              
    1760 0000a3f0     000a          .word   'K'-'A','E'-'A','R'-'A' ,10,10  ;48 HOSK                *
    1761 0000a440     000b          .word   'L'-'A','O'-'A','R'-'A' ,02,20  ;49 OLIV
    1762                    
    1763 0000a490     0012          .word   'S'-'A','C'-'A','O'-'A' ,07,05  ;50 SCORP
    1764 0000a4e0     0011          .word   'R'-'A','P'-'A','T'-'A' ,11,10  ;51 REPT
    1765                    
    1766 0000a530     0002          .word   'C'-'A','G'-'A',26      ,12,04  ;52 GRANNER
    1767                    
    1768 0000a580     0006          .word   'G'-'A','K'-'A','G'-'A' ,02,04  ;53 GRIFFEY
    1769                    
    1770 0000a5d0     0009          .word   'J'-'A','M'-'A','S'-'A' ,07,29  ;54 SKILES
    1771 0000a620     0009          .word   'J'-'A','F'-'A','L'-'A' ,04,16  ;55 LINHOFF
    1772                    
    1773                    
    1774 0000a670     0003          .word   'D'-'A','O'-'A','M'-'A' ,04,16  ;56 WILKINS
    1775 0000a6c0     0003          .word   'D'-'A','E'-'A','E'-'A' ,11,29  ;57 BROWN
    1776 0000a710     0019          .word   'Z'-'A','O'-'A',26      ,02,08  ;58 MOURNING
    1777 0000a760     000f          .word   'P'-'A','I'-'A','P'-'A' ,09,25  ;59 PIPPEN  
    1778                    
    1779 0000a7b0     0006          .word   'G'-'A','E'-'A','E'-'A' ,07,23  ;60 GARY PAYTON
    1780                    
    1781 0000a800     0016          .word   'W'-'A','E'-'A','B'-'A' ,03,01  ;61 WEBBER
TMS340 COFF Macro Assembler Version 6.10     Tue Dec 19 01:45:15 2023
 Copyright (c) 1985-1991  Texas Instruments Incorporated 

name & team selection                                                PAGE   40

    1782 0000a850     0007          .word   'H'-'A','A'-'A','K'-'A' ,01,21  ;62 OLAJUWON
    1783 0000a8a0     0003          .word   'D'-'A','C'-'A',26      ,06,21  ;63 COLEMAN
    1784 0000a8f0     000f          .word   'P'-'A','A'-'A','T'-'A' ,08,05  ;64 EWING
    1785 0000a940     0001          .word   'B'-'A','R'-'A','K'-'A' ,02,20  ;65 BARKLEY
    1786 0000a990     0011          .word   'R'-'A','O'-'A','B'-'A' ,08,06  ;66 ROBINSON
    1787 0000a9e0     000a          .word   'K'-'A','M'-'A','P'-'A' ,11,26  ;67 KEMP
    1788 0000aa30     000a          .word   'K'-'A','R'-'A','L'-'A' ,07,24  ;68 MALONE
    1789 0000aa80     000a          .word   'K'-'A','R'-'A','L'-'A' ,07,24  ;68 MALONE
    1790                    
    1791                            
    1792 0000aad0           fgatteam_snds
    1793 0000aad0     f9a9          .word   0f9a9H,63,081f6H,0      ;He scores    0  GOSKIE 
    1794 0000ab10     f9a9          .word   0f9a9H,47,081c8H,0      ;Hello!       1  RIVETT         
    1795 0000ab50     f9a9          .word   0f9a9H,70,0819cH,0      ;boom shaka   2  CARLTON
    1796 0000ab90     f9a9          .word   0f9a9H,67,08172H,0      ;It's blowout 3  DIVITA
    1797 0000abd0     f9a9          .word   0f9a9H,46,081c2H,0      ;Yes!         4  LIPTAK
    1798 0000ac10     f9a1          .word   0f9a1H,87,081abH,0      ;whoomp       5  TURMELL
    1799 0000ac50     f9a9          .word   0f9a9H,67,08172H,0      ;It's blowout 6  HEY
    1800 0000ac90     f9a9          .word   0f9a9H,67,08172H,0      ;It's blowout 7  PETRO
    1801 0000acd0     f9a9          .word   0f9a9H,63,081f6H,0      ;He scores    8  NEWCOMER
    1802 0000ad10     f9a9          .word   0f9a9H,100,081d6H,0     ;coffin       9  OURSLER
    1803 0000ad50     f9a9          .word   0f9a9H,47,081c8H,0      ;Hello!       10 LASCO
    1804 0000ad90     f9a9          .word   0f9a9H,70,0819cH,0      ;boom shak    11 MORRIS
    1805 0000add0     f9a9          .word   0f9a9H,47,081c8H,0      ;Hello!       12 MEDNICK
    1806 0000ae10     f9a9          .word   0f9a9H,47,0812BH,0      ;shoes?       13 FORDEN 
    1807 0000ae50     f9a9          .word   0f9a9H,47,0812bH,0      ;fantastic    14 KINKEAD
    1808 0000ae90     f9a9          .word   0f9a9H,47,081c8H,0      ;Hello!       15 JARVIS 
    1809 0000aed0     f9a9          .word   0f9a9H,47,08196H,0      ;             16 SUBZ   
    1810 0000af10     f9a9          .word   0f9a9H,47,081c8H,0      ;Hello!       17 HAEGER 
    1811 0000af50     f9a9          .word   0f9a9H,47,081b7H,0      ;bad decision 18 SIMPSON
    1812 0000af90     f9a9          .word   0f9a9H,47,081c8H,0      ;Hello!       19 GREEN  
    1813 0000afd0     f9a9          .word   0f9a9H,47,081c8H,0      ;Hello!       20 GENTILE
    1814 0000b010     f9a9          .word   0f9a9H,67,081e0H,0      ;its good     21 DILLON 
    1815 0000b050     f9a9          .word   0f9a9H,47,081c8H,0      ;Hello!       22 LOWES  
    1816 0000b090     f9a9          .word   0f9a9H,47,08175H,0      ;bucket       23 VOGEL  
    1817 0000b0d0     f9a9          .word   0f9a9H,47,081f0H,0      ;rainbow      24 TSUI   
    1818 0000b110     f9a9          .word   0f9a9H,47,081c8H,0      ;Hello!       25 KAM            
    1819 0000b150     f9a9          .word   0f9a9H,47,081c8H,0      ;Hello!       26 DEAL           
    1820 0000b190     f9a9          .word   0f9a9H,47,081d7H,0      ;gotta shoot  27 BOOTY          
    1821 0000b1d0     f9a9          .word   0f9a9H,47,081f6H,0      ;he scores    28 LOFFRE         
    1822 0000b210     f9a9          .word   0f9a9H,47,081e8H,0      ;swish!       29 PENACHO        
    1823 0000b250     f9a9          .word   0f9a9H,47,081e3H,0      ;range!       30 BARKER         
    1824 0000b290     f9a9          .word   0f9a9H,47,081c8H,0      ;Hello!       31 COX                    
    1825 0000b2d0     f9a9          .word   0f9a9H,47,080b0H,0      ;             32 RAIDEN
    1826 0000b310     f9a9          .word   0f9a9H,47,081f1H,0      ;no good      33 REAPER         
    1827 0000b350     f9a9          .word   0f9a9H,47,081c8H,0      ;Hello!       34 MACIKA         
    1828 0000b390     f9a9          .word   0f9a9H,47,081ddH,0      ;wide open    35 SHARPE         
    1829 0000b3d0     f9a9          .word   0f9a9H,47,081d9H,0      ;ugly shot    36 BERAN          
    1830 0000b410     fda9          .word   0fda9H,147,08177H,0     ;tarzan       38 KONGO  
    1831 0000b450     f9a9          .word   0f9a9H,47,081ceH,0      ;knocked      39 PONTAREL       
    1832 0000b490     f9a9          .word   0f9a9H,47,081c0H,0      ;excuse       40 ELVIS          
    1833 0000b4d0     f9a9          .word   0f9a9H,47,081b4H,0      ;no way       41 DAVIS          
    1834 0000b510     f9a9          .word   0f9a9H,47,081aeH,0      ;kaboom       42 BOON           
    1835 0000b550     f9a9          .word   0f9a9H,47,0812BH,0      ;shoes!       43 TOBIAS         
    1836 0000b590     f9a9          .word   0f9a9H,47,08198H,0      ;brick        44 HEITSCH        
TMS340 COFF Macro Assembler Version 6.10     Tue Dec 19 01:45:15 2023
 Copyright (c) 1985-1991  Texas Instruments Incorporated 

name & team selection                                                PAGE   41

    1837 0000b5d0     f9a9          .word   0f9a9H,47,081c8H,0      ;Hello!       45 DABEL          
    1838 0000b610     f9a9          .word   0f9a9H,47,081c8H,0      ;Hello!       46 MARTINEZ       
    1839 0000b650     f9a9          .word   0f9a9H,47,081c8H,0      ;Hello!       47 DAVIES         
    1840 0000b690     f9a9          .word   0f9a9H,47,081eaH,0      ;oh my        48 HOSK           
    1841 0000b6d0     f9a9          .word   0f9a9H,47,0819dH,0      ;sweet        49 OLIV           
    1842 0000b710     f9a9          .word   0f9a9H,47,08197H,0      ;             50 SCORP          
    1843 0000b750     f9a9          .word   0f9a9H,47,081a5H,0      ;             51 REPT           
    1844 0000b790     f9a9          .word   0f9a9H,47,081c8H,0      ;Hello!       52 GRANNER
    1845                    
    1846 0000b7d0     f9a9          .word   0f9a9H,47,0812bH,0      ;fantastic    53 GRIFFEY
    1847                    
    1848 0000b810     f9a9          .word   0f9a9H,47,081d6H,0      ;nail         54 SKILES
    1849 0000b850     f9a9          .word   0f9a9H,47,081c8H,0      ;Hello!       55 LINHOFF
    1850                    
    1851 0000b890     f9a9          .word   0f9a9H,63,081f6H,0      ;He scores    56 WILKINS
    1852 0000b8d0     f9a9          .word   0f9a9H,47,081c8H,0      ;Hello!       57 BROWN
    1853 0000b910     f9a9          .word   0f9a9H,70,0819cH,0      ;boom shaka   58 MOURNING
    1854 0000b950     f9a9          .word   0f9a9H,67,08172H,0      ;It's blowout 59 PIPPEN  
    1855 0000b990     f9a9          .word   0f9a9H,46,081c2H,0      ;Yes!         60 GARY PAYTON
    1856 0000b9d0     f9a1          .word   0f9a1H,87,081abH,0      ;whoomp       61 WEBBER
    1857 0000ba10     f9a9          .word   0f9a9H,67,08172H,0      ;It's blowout 62 OLAJUWON
    1858 0000ba50     f9a9          .word   0f9a9H,67,08172H,0      ;It's blowout 63 COLEMAN
    1859 0000ba90     f9a9          .word   0f9a9H,63,081f6H,0      ;He scores    64 EWING
    1860 0000bad0     f9a9          .word   0f9a9H,100,081d6H,0     ;coffin       65 BARKLEY
    1861 0000bb10     f9a9          .word   0f9a9H,47,081c8H,0      ;Hello!       66 ROBINSON
    1862 0000bb50     f9a9          .word   0f9a9H,70,0819cH,0      ;boom shak    67 KEMP
    1863 0000bb90     f9a9          .word   0f9a9H,47,081c8H,0      ;Hello!       68 MALONE
    1864 0000bbd0     f9a9          .word   0f9a9H,47,081c8H,0      ;Hello!       68 MALONE
    1865                    
    1866                    
    1867                    
    1868 0000bc10            SUBR   select_teams
    1869                    
    1870 0000bc10     05a0          move    @team1,a0
         0000bc20 00000000! 
    1871 0000bc40     05a1          move    @team2,a1
         0000bc50 00000000! 
    1872 0000bc70     5401          or      a0,a1
    1873 0000bc80     4c21          move    a1,a1
    1874 0000bc90     cf00          jrnn    fxuiteams_ok            ;both teams selected?
         0000bca0     00fa  
    1875                    
    1876 0000bcb0     05a0          move    @team1,a0
         0000bcc0 00000000! 
    1877 0000bce0     cf00          jrnn    fxuiselect_team2
         0000bcf0     008a  
    1878                    
    1879 0000bd00           fxuiselect_team1
    1880 0000bd00     09e1          movi    07ffffffh,a1
         0000bd10 07ffffff  
    1881 0000bd30     05a0          move    @PSTATUS,a0
         0000bd40 00000000! 
    1882 0000bd60     1fa0          btst    2,a0
    1883 0000bd70     ca08          jrz     fxuinop3
    1884 0000bd80     05a0          move    @player3_data+PR_INIT1,a0
TMS340 COFF Macro Assembler Version 6.10     Tue Dec 19 01:45:15 2023
 Copyright (c) 1985-1991  Texas Instruments Incorporated 

name & team selection                                                PAGE   42

         0000bd90 00000040! 
    1885 0000bdb0     ce04          jrn     fxuinop3
    1886                    
    1887 0000bdc0     07a0          move    @player3_data+PR_TEAMSDEF,a0,L
         0000bdd0 00000160! 
    1888 0000bdf0     5001          and     a0,a1
    1889 0000be00           fxuinop3
    1890 0000be00     05a0          move    @PSTATUS,a0
         0000be10 00000000! 
    1891 0000be30     1f80          btst    3,a0
    1892 0000be40     ca08          jrz     fxuinop4
    1893 0000be50     05a0          move    @player4_data+PR_INIT1,a0
         0000be60 00000040! 
    1894 0000be80     ce04          jrn     fxuinop4
    1895                    
    1896 0000be90     07a0          move    @player4_data+PR_TEAMSDEF,a0,L
         0000bea0 00000160! 
    1897 0000bec0     5001          and     a0,a1
    1898 0000bed0           fxuinop4
    1899                    
    1900                    
    1901                    
    1902                    
    1903 0000bed0                   PUSH    a1
    1904 0000bee0     0d5f          calla   calc_num_defeated
         0000bef0 00000000! 
    1905 0000bf10     0b40          cmpi    27,a0
         0000bf20     ffe4  
    1906 0000bf30     ca23          jreq    fxuichoose_random1
    1907                    
    1908 0000bf40     09c1          movi    26,a1
         0000bf50     001a  
    1909 0000bf60     4401          sub     a0,a1
    1910 0000bf70     4c20          move    a1,a0
    1911 0000bf80     0d5f          calla   RNDRNG0
         0000bf90 00000000! 
    1912 0000bfb0                   PULL    a1
    1913 0000bfc0     0d5f          calla   get_opponent_team
         0000bfd0 0000ce20' 
    1914                    
    1915                    
    1916                    
    1917                    
    1918                    
    1919 0000bff0     1820          movk    1,a0
    1920 0000c000     0b62          cmpi    _PHI,a2
         0000c010 ffffffff! 
    1921 0000c030     ca05          jrz     fxuiyesd1
    1922 0000c040     0b62          cmpi    _DAL,a2
         0000c050 ffffffff! 
    1923 0000c070     ca01          jrz     fxuiyesd1
    1924 0000c080     18a0          movk    5,a0
    1925 0000c090           fxuiyesd1
    1926                    
    1927                    
TMS340 COFF Macro Assembler Version 6.10     Tue Dec 19 01:45:15 2023
 Copyright (c) 1985-1991  Texas Instruments Incorporated 

name & team selection                                                PAGE   43

    1928                    
    1929                    
    1930 0000c090     0d5f          calla   RNDRNG0
         0000c0a0 00000000! 
    1931 0000c0c0     4c4e          move    a2,a14
    1932 0000c0d0     248e          sll     4,a14
    1933 0000c0e0     0b2e          addi    tm1set,a14
         0000c0f0 00000000! 
    1934 0000c110     800e          move    a0,*a14
    1935 0000c120     0582          move    a2,@team1
         0000c130 00000000! 
    1936                    
    1937 0000c150     c000          jruc    fxuiteams_ok
         0000c160     00ae  
    1938                    
    1939                    
    1940 0000c170           fxuichoose_random1
    1941 0000c170                   PULL    a1
    1942                    
    1943 0000c180           fxuichoose_random1a
    1944 0000c180     1b40          movk    26,a0                   ;0-26
    1945 0000c190     0d5f          calla   RNDRNG0
         0000c1a0 00000000! 
    1946 0000c1c0     0580          move    a0,@team1
         0000c1d0 00000000! 
    1947                    
    1948                    
    1949                    
    1950 0000c1f0     05a0          move    @player3_data+PR_INIT1,a0
         0000c200 00000040! 
    1951 0000c220     cf05          jrnn    fxuicont1
    1952 0000c230     05a0          move    @player4_data+PR_INIT1,a0
         0000c240 00000040! 
    1953 0000c260     ce00          jrn     fxuiteams_ok
         0000c270     009d  
    1954                            
    1955 0000c280           fxuicont1
    1956                    
    1957 0000c280     2480          sll     4,a0
    1958 0000c290     0b20          addi    fxuisetnum,a0
         0000c2a0 0000c3f0' 
    1959 0000c2c0     8400          move    *a0,a0
    1960                    
    1961 0000c2d0     05ae          move    @team1,a14
         0000c2e0 00000000! 
    1962 0000c300     248e          sll     4,a14
    1963 0000c310     0b2e          addi    tm1set,a14
         0000c320 00000000! 
    1964 0000c340     800e          move    a0,*a14
    1965                    
    1966 0000c350     09c0          movi    60,a0                           ;68
         0000c360     003c  
    1967 0000c370     0d5f          calla   RNDRNG0
         0000c380 00000000! 
    1968 0000c3a0     0580          move    a0,@special_heads+10h
TMS340 COFF Macro Assembler Version 6.10     Tue Dec 19 01:45:15 2023
 Copyright (c) 1985-1991  Texas Instruments Incorporated 

name & team selection                                                PAGE   44

         0000c3b0 00000010! 
    1969                    
    1970 0000c3d0     c000          jruc    fxuiteams_ok
         0000c3e0     0086  
    1971                    
    1972 0000c3f0     0000  fxuisetnum      .word   0,1,0,0,0,1,0,0,0,0,0,0,0,0,0,1,0,0,0,1,0,0,3,0,0,0,3
    1973                    
    1974 0000c5a0           fxuiselect_team2
    1975 0000c5a0     09e1          movi    07ffffffh,a1
         0000c5b0 07ffffff  
    1976 0000c5d0     05a0          move    @PSTATUS,a0
         0000c5e0 00000000! 
    1977 0000c600     1fe0          btst    0,a0
    1978 0000c610     ca08          jrz     fxuinop1
    1979 0000c620     05a0          move    @player1_data+PR_INIT1,a0
         0000c630 00000040! 
    1980 0000c650     ce04          jrn     fxuinop1
    1981                    
    1982 0000c660     07a0          move    @player1_data+PR_TEAMSDEF,a0,L
         0000c670 00000160! 
    1983 0000c690     5001          and     a0,a1
    1984 0000c6a0           fxuinop1
    1985 0000c6a0     05a0          move    @PSTATUS,a0
         0000c6b0 00000000! 
    1986 0000c6d0     1fc0          btst    1,a0
    1987 0000c6e0     ca08          jrz     fxuinop2
    1988 0000c6f0     05a0          move    @player2_data+PR_INIT1,a0
         0000c700 00000040! 
    1989 0000c720     ce04          jrn     fxuinop2
    1990                    
    1991 0000c730     07a0          move    @player2_data+PR_TEAMSDEF,a0,L
         0000c740 00000160! 
    1992 0000c760     5001          and     a0,a1
    1993 0000c770           fxuinop2
    1994                    
    1995                    
    1996                    
    1997 0000c770                   PUSH    a1
    1998 0000c780     0d5f          calla   calc_num_defeated
         0000c790 00000000! 
    1999 0000c7b0     0b40          cmpi    27,a0
         0000c7c0     ffe4  
    2000 0000c7d0     ca22          jreq    fxuichoose_random2
    2001                    
    2002 0000c7e0     09c1          movi    26,a1
         0000c7f0     001a  
    2003 0000c800     4401          sub     a0,a1
    2004 0000c810     4c20          move    a1,a0
    2005 0000c820     0d5f          calla   RNDRNG0
         0000c830 00000000! 
    2006 0000c850                   PULL    a1
    2007 0000c860     0d5f          calla   get_opponent_team
         0000c870 0000ce20' 
    2008                    
    2009                    
TMS340 COFF Macro Assembler Version 6.10     Tue Dec 19 01:45:15 2023
 Copyright (c) 1985-1991  Texas Instruments Incorporated 

name & team selection                                                PAGE   45

    2010                    
    2011                    
    2012 0000c890     1820          movk    1,a0
    2013 0000c8a0     0b62          cmpi    _PHI,a2
         0000c8b0 ffffffff! 
    2014 0000c8d0     ca05          jrz     fxuiyesd3
    2015 0000c8e0     0b62          cmpi    _DAL,a2
         0000c8f0 ffffffff! 
    2016 0000c910     ca01          jrz     fxuiyesd3
    2017 0000c920     18a0          movk    5,a0
    2018 0000c930           fxuiyesd3
    2019                    
    2020                    
    2021 0000c930     0d5f          calla   RNDRNG0
         0000c940 00000000! 
    2022 0000c960     4c4e          move    a2,a14
    2023 0000c970     248e          sll     4,a14
    2024 0000c980     0b2e          addi    tm2set,a14
         0000c990 00000000! 
    2025 0000c9b0     800e          move    a0,*a14
    2026 0000c9c0     0582          move    a2,@team2
         0000c9d0 00000000! 
    2027                    
    2028 0000c9f0     c025          jruc    fxuiteams_ok
    2029                    
    2030                    
    2031 0000ca00           fxuichoose_random2
    2032 0000ca00                   PULL    a1
    2033                    
    2034 0000ca10           fxuichoose_random2a
    2035 0000ca10     1b40          movk    26,a0                   ;0-26
    2036 0000ca20     0d5f          calla   RNDRNG0
         0000ca30 00000000! 
    2037 0000ca50     0580          move    a0,@team2
         0000ca60 00000000! 
    2038                    
    2039                    
    2040 0000ca80     05a0          move    @player1_data+PR_INIT1,a0
         0000ca90 00000040! 
    2041 0000cab0     cf04          jrnn    fxuicont2
    2042 0000cac0     05a0          move    @player2_data+PR_INIT1,a0
         0000cad0 00000040! 
    2043 0000caf0     ce15          jrn     fxuiteams_ok
    2044                            
    2045 0000cb00           fxuicont2
    2046                    
    2047 0000cb00     2480          sll     4,a0
    2048 0000cb10     0b20          addi    fxuisetnum,a0
         0000cb20 0000c3f0' 
    2049 0000cb40     8400          move    *a0,a0
    2050                    
    2051 0000cb50     05ae          move    @team2,a14
         0000cb60 00000000! 
    2052 0000cb80     248e          sll     4,a14
    2053 0000cb90     0b2e          addi    tm2set,a14
TMS340 COFF Macro Assembler Version 6.10     Tue Dec 19 01:45:15 2023
 Copyright (c) 1985-1991  Texas Instruments Incorporated 

name & team selection                                                PAGE   46

         0000cba0 00000000! 
    2054 0000cbc0     800e          move    a0,*a14
    2055                    
    2056 0000cbd0     09c0          movi    60,a0                           ;68
         0000cbe0     003c  
    2057 0000cbf0     0d5f          calla   RNDRNG0
         0000cc00 00000000! 
    2058 0000cc20     0580          move    a0,@special_heads+30h
         0000cc30 00000030! 
    2059                    
    2060 0000cc50           fxuiteams_ok
    2061 0000cc50     0960          rets
    2062                    
    2063                    
    2064 0000cc60           team_orders
    2065 0000cc60     0000          .word   _DAL    ;27
    2066 0000cc70     0000          .word   _DET    ;9
    2067 0000cc80     0000          .word   _MIL    ;18
    2068 0000cc90     0000          .word   _WAS    ;21
    2069 0000cca0     0000          .word   _SAC    ;24
    2070 0000ccb0     0000          .word   _MIN    ;26
    2071 0000ccc0     0000          .word   _LAL    ;6
    2072 0000ccd0     0000          .word   _LAC    ;14
    2073 0000cce0     0000          .word   _BOS    ;11
    2074 0000ccf0     0000          .word   _PHI    ;25
    2075 0000cd00     0000          .word   _IND    ;7
    2076 0000cd10     0000          .word   _NJ     ;13
    2077 0000cd20     0000          .word   _CLE    ;10
    2078 0000cd30     0000          .word   _DEN    ;23
    2079 0000cd40     0000          .word   _GOL    ;20
    2080 0000cd50     0000          .word   _POR    ;3
    2081 0000cd60     0000          .word   _MI     ;22
    2082 0000cd70     0000          .word   _CHA    ;12
    2083 0000cd80     0000          .word   _ORL    ;15
    2084 0000cd90     0000          .word   _SAN    ;19
    2085 0000cda0     0000          .word   _UTA    ;5
    2086 0000cdb0     0000          .word   _NY     ;4
    2087 0000cdc0     0000          .word   _ATL    ;16
    2088 0000cdd0     0000          .word   _PHX    ;2
    2089 0000cde0     0000          .word   _HOU    ;8
    2090 0000cdf0     0000          .word   _SEA    ;17
    2091 0000ce00     0000          .word   _CHI    ;1
    2092 0000ce10     ffff          .word   -1
    2093                    
    2094                    
    2095                    
    2096 0000ce20            SUBR   get_opponent_team
    2097                    
    2098                    
    2099 0000ce20     09e0          movi    team_orders,a0
         0000ce30 0000cc60' 
    2100 0000ce50           yrbpnext_team
    2101 0000ce50     9402          move    *a0+,a2                 ;team number (0-26)
    2102 0000ce60     ce03          jrn     yrbperr                 ;shouldn't happen
    2103 0000ce70     4a41          btst    a2,a1                   ;defeated?
TMS340 COFF Macro Assembler Version 6.10     Tue Dec 19 01:45:15 2023
 Copyright (c) 1985-1991  Texas Instruments Incorporated 

name & team selection                                                PAGE   47

    2104 0000ce80     cbfc          jrnz    yrbpnext_team
    2105 0000ce90     0960          rets
    2106 0000cea0           yrbperr
    2107 0000cea0     5642          clr     a2
    2108 0000ceb0     0960          rets
    2109                    
    2110                     .if 0
    2111                            PUSH    a1
    2112                            clr     a2
    2113                    yrbpnext_team
    2114                            srl     1,a1
    2115                            jrc     yrbpdef
    2116                    yrbpdef
    2117                            inc     a2
    2118                            cmpi    26,a2
    2119                            jrlo    yrbpnext_team
    2120                    yrbpdone
    2121                            PULL    a1
    2122                            rets
    2123                     .endif
    2124                    
    2125                    
    2126                            .asg    70,Y1
    2127                            .asg    104,Y2
    2128                    
    2129 0000cec0            SUBR   ingame_mess
    2130                    
    2131 0000cec0           clxiwait
    2132 0000cec0     05a0          move    @PSTATUS,a0
         0000ced0 00000000! 
    2133 0000cef0     4b40          btst    a10,a0
    2134 0000cf00     cb05          jrnz    clxiingame
    2135 0000cf10                   SLEEPK  1
    2136 0000cf50     c0f6          jruc    clxiwait
    2137 0000cf60           clxiingame
    2138                    
    2139 0000cf60     09e2          movi    clxiinitials_setup,a2
         0000cf70 0000d6a0' 
    2140 0000cf90     0d5f          calla   setup_message
         0000cfa0 00000000! 
    2141                    
    2142 0000cfc0     4d40          move    a10,a0
    2143 0000cfd0     2480          sll     4,a0                            ;x 16 bits
    2144 0000cfe0     4c01          move    a0,a1
    2145 0000cff0     2420          sll     1,a0                            ;x 32 bits
    2146 0000d000     0b20          addi    clxiplyrdata,a0
         0000d010 0000d620' 
    2147 0000d030     8604          move    *a0,a4,L                        ;* scr initials
    2148                    
    2149 0000d040     09e2          movi    clxiinit_x,a2
         0000d050 0000d880' 
    2150 0000d070     05a0          move    @TWOPLAYERS,a0          ;0 = NO, 1 = YES 2 players
         0000d080 00000000! 
    2151 0000d0a0     ca03          jrz     clxinot2a
    2152 0000d0b0     09e2          movi    clxikit_x,a2                    ;kit x vals
TMS340 COFF Macro Assembler Version 6.10     Tue Dec 19 01:45:15 2023
 Copyright (c) 1985-1991  Texas Instruments Incorporated 

name & team selection                                                PAGE   48

         0000d0c0 0000d8c0' 
    2153 0000d0e0           clxinot2a
    2154 0000d0e0     4041          add     a2,a1
    2155                    
    2156 0000d0f0     8421          move    *a1,a1
    2157 0000d100     0581          move    a1,@mess_cursx
         0000d110 00000000! 
    2158 0000d130     09e3          movi    message_buffer,a3               ;* string dest
         0000d140 00000000! 
    2159 0000d160     0d5f          calla   get_initials_string
         0000d170 00000000! 
    2160 0000d190     0d5f          calla   print_string_C                  ;centered
         0000d1a0 00000000! 
    2161                    
    2162 0000d1c0     05a0          move    @gmqrtr,a0
         0000d1d0 00000000! 
    2163 0000d1f0     0b40          cmpi    4,a0
         0000d200     fffb  
    2164 0000d210     c201          jrls    clxiok
    2165 0000d220     1880          movk    4,a0
    2166 0000d230           clxiok
    2167 0000d230     24a0          sll     5,a0                    ;x 32 bits
    2168 0000d240     0b20          addi    clxiqtr_msgs,a0
         0000d250 0000d740' 
    2169 0000d270     8602          move    *a0,a2,L                ;* image
    2170                    
    2171 0000d280     248a          sll     4,a10                   ;x 16 bits
    2172                    
    2173 0000d290     09e3          movi    clxiqtr_x,a3
         0000d2a0 0000d840' 
    2174 0000d2c0     05a0          move    @TWOPLAYERS,a0          ;0 = NO, 1 = YES 2 players
         0000d2d0 00000000! 
    2175 0000d2f0     ca03          jrz     clxinot2b
    2176 0000d300     09e3          movi    clxikit_x,a3                    ;kit x vals
         0000d310 0000d8c0' 
    2177 0000d330           clxinot2b
    2178 0000d330     406a          add     a3,a10
    2179                    
    2180 0000d340     8540          move    *a10,a0
    2181 0000d350     2600          sll     16,a0                   ;x val
    2182 0000d360                   PUSH    a0
    2183 0000d370     09e1          movi    [Y2,0],a1               ;y val
         0000d380 00680000  
    2184 0000d3a0     09c3          movi    1000,a3                 ;z pos
         0000d3b0     03e8  
    2185 0000d3c0     09e4          movi    DMAWNZ,a4               ;DMA flags
         0000d3d0 00008002  
    2186 0000d3f0     09c5          movi    TYPTEXT,a5              ;object ID
         0000d400     0700  
    2187 0000d410     56c6          clr     a6                      ;x vel
    2188 0000d420     56e7          clr     a7                      ;y vel
    2189 0000d430     09f0          movi    SGMD8BLU,b0             ;pal
         0000d440 00000000! 
    2190 0000d460     0d5f          calla   BEGINOBJP
         0000d470 00000000! 
TMS340 COFF Macro Assembler Version 6.10     Tue Dec 19 01:45:15 2023
 Copyright (c) 1985-1991  Texas Instruments Incorporated 

name & team selection                                                PAGE   49

    2191                    
    2192 0000d490                   PULL    a0
    2193 0000d4a0     09e1          movi    [Y1,0],a1               ;y val
         0000d4b0 00460000  
    2194 0000d4d0     09e2          movi    getready,a2             ;* image
         0000d4e0 00000000! 
    2195 0000d500     09c3          movi    1000,a3                 ;z pos
         0000d510     03e8  
    2196 0000d520     09e4          movi    DMAWNZ,a4               ;DMA flags
         0000d530 00008002  
    2197 0000d550     09c5          movi    TYPTEXT,a5              ;object ID
         0000d560     0700  
    2198 0000d570     56c6          clr     a6                      ;x vel
    2199 0000d580     56e7          clr     a7                      ;y vel
    2200 0000d590     09f0          movi    SGMD8BLU,b0             ;pal
         0000d5a0 00000000! 
    2201 0000d5c0     0d5f          calla   BEGINOBJP
         0000d5d0 00000000! 
    2202                    
    2203 0000d5f0                   DIE
    2204                    
    2205 0000d620           clxiplyrdata
    2206 0000d620 00000040!         .long   player1_data+PR_INIT1
    2207 0000d640 00000040!         .long   player2_data+PR_INIT1
    2208 0000d660 00000040!         .long   player3_data+PR_INIT1
    2209 0000d680 00000040!         .long   player4_data+PR_INIT1
    2210                    
    2211 0000d6a0           clxiinitials_setup
    2212 0000d6a0                   RJR_STR osgemd_ascii,8,1,200,208,BLUE,0
    2213                    
    2214 0000d740           clxiqtr_msgs
    2215 0000d740 00000000!         .long   _1quart,_2quart
    2216 0000d780 00000000!         .long   _3quart,_4quart
    2217 0000d7c0 00000000!         .long   overtme,overtme
    2218 0000d800 00000000!         .long   overtme,overtme
    2219                    
    2220 0000d840     0034  clxiqtr_x       .word   52,149,246,342  ;x val
    2221                    
    2222 0000d880     0038  clxiinit_x      .word   56,145,250,339
    2223                    
    2224 0000d8c0     0000  clxikit_x       .word   0,101,295,0     ;kit x vals
    2225                    
    2226                    
    2227                    
    2228 0000d900            SUBR   winner_stays_on
    2229                    
    2230 0000d900     09c0          movi    ADJWINMODE,a0
         0000d910     001a  
    2231 0000d920     0d5f          calla   GET_ADJ
         0000d930 00000000! 
    2232 0000d950     4c0e          move    a0,a14
    2233 0000d960     ca00          jrz     uwxjexit                        ;disabled?
         0000d970     00ff  
    2234                    
    2235                    
TMS340 COFF Macro Assembler Version 6.10     Tue Dec 19 01:45:15 2023
 Copyright (c) 1985-1991  Texas Instruments Incorporated 

name & team selection                                                PAGE   50

    2236                            .ref    _4plyrsingame
    2237 0000d980     05a0          move    @_4plyrsingame,a0
         0000d990 00000000! 
    2238 0000d9b0     cb00          jrnz    uwxjnot_4play
         0000d9c0     00fa  
    2239                    
    2240 0000d9d0     18c0          movk    INFREEPRICE,a0
    2241 0000d9e0     0580          move    a0,@GAMSTATE
         0000d9f0 00000000! 
    2242                    
    2243                    
    2244                    
    2245 0000da10     5600          clr     a0
    2246 0000da20     09e1          movi    P1DATA,a1
         0000da30 00000000! 
    2247 0000da50     09c2          movi    PDSIZE*4/16,A2
         0000da60     004c  
    2248 0000da70     9001  uwxjzlp move    a0,*a1+
    2249 0000da80     3c42          dsj     a2,uwxjzlp
    2250                    
    2251 0000da90     0780          move    a0,@conttimers,L        ;4 words
         0000daa0 00000000! 
    2252 0000dac0     0780          move    a0,@conttimers+20h,L
         0000dad0 00000020! 
    2253                    
    2254                    
    2255 0000daf0     5600          clr     a0
    2256 0000db00     0580          move    a0,@PSTATUS
         0000db10 00000000! 
    2257 0000db30     0580          move    a0,@PSTATUS2
         0000db40 00000000! 
    2258                    
    2259 0000db60     0d5f          calla   display_blank
         0000db70 00000000! 
    2260 0000db90     0d5f          calla   WIPEOUT                 ;CLEAN SYSTEM OUT
         0000dba0 00000000! 
    2261                    
    2262 0000dbc0     5600          clr     a0
    2263 0000dbd0     0580          move    a0,@page_scrolling      ;not scrolling
         0000dbe0 00000000! 
    2264                    
    2265 0000dc00     09c0          movi    MAX_CRTIME,a0
         0000dc10     7fff  
    2266 0000dc20     0580          move    a0,@cntrs_delay
         0000dc30 00000000! 
    2267                    
    2268 0000dc50     1820          movk    1,a0                    ;page flipping on
    2269 0000dc60     0580          move    a0,@dpageflip
         0000dc70 00000000! 
    2270                    
    2271 0000dc90     5600          clr     a0
    2272 0000dca0     0580          move    a0,@IRQSKYE             ;background color
         0000dcb0 00000000! 
    2273                    
    2274 0000dcd0     09e0          movi    SCRNEND,a0              ;[256,405]
TMS340 COFF Macro Assembler Version 6.10     Tue Dec 19 01:45:15 2023
 Copyright (c) 1985-1991  Texas Instruments Incorporated 

name & team selection                                                PAGE   51

         0000dce0 00fe01b0  
    2275 0000dd00     0780          move    a0,@SCRNLR,L
         0000dd10 00000000! 
    2276                    
    2277 0000dd30     5600          clr     a0
    2278 0000dd40     0780          move    a0,@WORLDTLX,L
         0000dd50 00000000! 
    2279 0000dd70     0780          move    a0,@WORLDTLY,L
         0000dd80 00000000! 
    2280                    
    2281                    
    2282                    
    2283                    
    2284 0000dda0     574a          clr     a10
    2285 0000ddb0     05a0          move    @scores,a0
         0000ddc0 00000000! 
    2286 0000dde0     05a1          move    @scores+10h,a1
         0000ddf0 00000010! 
    2287 0000de10     4820          cmp     a1,a0                   ;score2 - score1
    2288 0000de20     c701          jrgt    uwxjt1_wins
    2289 0000de30     182a          movk    1,a10                   ;t2_wins
    2290 0000de40           uwxjt1_wins
    2291 0000de40     058a          move    a10,@winningteam        ;0 or 1
         0000de50 00000000! 
    2292                    
    2293                    
    2294                    
    2295                    
    2296 0000de70                   SLEEPK  2
    2297                    
    2298 0000deb0     09e0          movi    uwxjwinner_mod,a0
         0000dec0 0000ebf0' 
    2299 0000dee0     0780          move    a0,@BAKMODS,L
         0000def0 00000000! 
    2300 0000df10     0d5f          calla   BGND_UD1
         0000df20 00000000! 
    2301                    
    2302 0000df40     0d5f          calla   blue_shadow
         0000df50 00021c20' 
    2303                    
    2304 0000df70     1820          movk    1,a0
    2305 0000df80     0580          move    a0,@DISPLAYON
         0000df90 00000000! 
    2306                    
    2307                    
    2308 0000dfb0                   CREATE0 monitor_buyins
    2309 0000e020                   CREATE0 team_control
    2310                    
    2311 0000e090                   CREATE0 credits
    2312 0000e100                   CREATE0 credit_messages
    2313 0000e170                   CREATE0 monitor_fullgame
    2314                    
    2315                            .asg    102,X1
    2316                            .asg    294,X2
    2317                    
TMS340 COFF Macro Assembler Version 6.10     Tue Dec 19 01:45:15 2023
 Copyright (c) 1985-1991  Texas Instruments Incorporated 

name & team selection                                                PAGE   52

    2318                            .asg    21,Y1
    2319                            .asg    42,Y2
    2320                            .asg    110,Y3
    2321                    
    2322                    
    2323 0000e1e0     4d40          move    a10,a0
    2324 0000e1f0     2480          sll     4,a0
    2325 0000e200     0b20          addi    uwxjxpos,a0
         0000e210 0000ebd0' 
    2326 0000e230     840b          move    *a0,a11
    2327                    
    2328 0000e240     4d60          move    a11,a0                          ;x val
    2329 0000e250     2600          sll     16,a0
    2330 0000e260     09e1          movi    [Y1,0],a1                       ;y val
         0000e270 00150000  
    2331 0000e290     09e2          movi    congrats_l,a2                   ;* image
         0000e2a0 00000000! 
    2332 0000e2c0     09c3          movi    19001,a3                        ;z pos
         0000e2d0     4a39  
    2333 0000e2e0     09e4          movi    DMAWNZ|M_SCRNREL,a4             ;DMA flags
         0000e2f0 0000a002  
    2334 0000e310     09c5          movi    TYPTEXT,a5                      ;object ID
         0000e320     0700  
    2335 0000e330     56c6          clr     a6                              ;x vel
    2336 0000e340     56e7          clr     a7                              ;y vel
    2337 0000e350     0d5f          calla   BEGINOBJ2
         0000e360 00000000! 
    2338                    
    2339                    
    2340 0000e380     4d60          move    a11,a0                          ;x val
    2341 0000e390     2600          sll     16,a0
    2342 0000e3a0     09e1          movi    [Y3,0],a1                       ;y val
         0000e3b0 006e0000  
    2343 0000e3d0     09e2          movi    winfree,a2                      ;* image
         0000e3e0 00000000! 
    2344 0000e400     09c3          movi    19001,a3                        ;z pos
         0000e410     4a39  
    2345 0000e420     09e4          movi    DMAWNZ|M_SCRNREL,a4             ;DMA flags
         0000e430 0000a002  
    2346 0000e450     09c5          movi    TYPTEXT,a5                      ;object ID
         0000e460     0700  
    2347 0000e470     56c6          clr     a6                              ;x vel
    2348 0000e480     56e7          clr     a7                              ;y vel
    2349 0000e490     0d5f          calla   BEGINOBJ2
         0000e4a0 00000000! 
    2350                    
    2351 0000e4c0     09e2          movi    uwxjinits_setup,a2
         0000e4d0 0000e9f0' 
    2352 0000e4f0     0d5f          calla   setup_message
         0000e500 00000000! 
    2353 0000e520     09e4          movi    uwxjstr_pl12,a4
         0000e530 0000eae0' 
    2354 0000e550     4d4a          move    a10,a10
    2355 0000e560     ca03          jrz     uwxjtm1
    2356 0000e570     09e4          movi    uwxjstr_pl34,a4         ;tm2
TMS340 COFF Macro Assembler Version 6.10     Tue Dec 19 01:45:15 2023
 Copyright (c) 1985-1991  Texas Instruments Incorporated 

name & team selection                                                PAGE   53

         0000e580 0000eb58' 
    2357 0000e5a0           uwxjtm1
    2358 0000e5a0     058b          move    a11,@mess_cursx
         0000e5b0 00000000! 
    2359 0000e5d0     0d5f          calla   print_string_C2
         0000e5e0 00000000! 
    2360                    
    2361 0000e600     4d40          move    a10,a0
    2362 0000e610     0bc0          xori    1,a0
         0000e620 00000001  
    2363 0000e640     2480          sll     4,a0
    2364 0000e650     0b20          addi    uwxjxpos,a0
         0000e660 0000ebd0' 
    2365 0000e680     840b          move    *a0,a11
    2366 0000e690     4d60          move    a11,a0                          ;x val
    2367 0000e6a0     2600          sll     16,a0
    2368 0000e6b0     09e1          movi    [Y3,0],a1                       ;y val
         0000e6c0 006e0000  
    2369 0000e6e0     09e2          movi    chalneed_l,a2                   ;* image
         0000e6f0 00000000! 
    2370 0000e710     09c3          movi    19001,a3                        ;z pos
         0000e720     4a39  
    2371 0000e730     09e4          movi    DMAWNZ|M_SCRNREL,a4             ;DMA flags
         0000e740 0000a002  
    2372 0000e760     09c5          movi    TYPTEXT,a5                      ;object ID
         0000e770     0700  
    2373 0000e780     56c6          clr     a6                              ;x vel
    2374 0000e790     56e7          clr     a7                              ;y vel
    2375 0000e7a0     0d5f          calla   BEGINOBJ2
         0000e7b0 00000000! 
    2376                    
    2377                    
    2378 0000e7d0     09ca          movi    1*TSEC,a10
         0000e7e0     0035  
    2379 0000e7f0                   CREATE  CNTDWN_PID,timeout2
    2380                    
    2381                    
    2382 0000e870                   SLEEPK  2
    2383 0000e8b0     0d5f          calla   display_unblank
         0000e8c0 00000000! 
    2384                    
    2385                    
    2386 0000e8e0           uwxjslp SLEEP   20*TSEC                         ;13
    2387 0000e930     05a0          move    @PSTATUS,a0
         0000e940 00000000! 
    2388 0000e960     cbf7          jrnz    uwxjslp
    2389                    
    2390                    
    2391 0000e970           uwxjnot_4play
    2392 0000e970           uwxjexit
    2393                    
    2394 0000e970     09c0          movi    -1,a0
         0000e980     ffff  
    2395 0000e990     0580          move    a0,@winningteam         ;-1 for no valid half price
         0000e9a0 00000000! 
TMS340 COFF Macro Assembler Version 6.10     Tue Dec 19 01:45:15 2023
 Copyright (c) 1985-1991  Texas Instruments Incorporated 

name & team selection                                                PAGE   54

    2396                    
    2397 0000e9c0                   RETP
    2398                    
    2399 0000e9f0           uwxjinits_setup
    2400 0000e9f0                   RJR_STR osgemd_ascii,8,0,X1,Y2,BLUE,0
    2401                    
    2402 0000ea90           uwxjstr_temp
    2403 0000ea90       4d          .string "MMM & MMM",0
    2404 0000eae0           uwxjstr_pl12
    2405 0000eae0       50          .string "PLAYERS  1 & 2",0
    2406 0000eb58           uwxjstr_pl34
    2407 0000eb58       50          .string "PLAYERS  3 & 4",0
    2408 0000ebd0                   .even
    2409                    
    2410 0000ebd0           uwxjxpos
    2411 0000ebd0     0066          .word   X1,X2
    2412                    
    2413 0000ebf0           uwxjwinner_mod
    2414 0000ebf0 00000000!         .long   congratbBMOD
    2415 0000ec10     0000          .word   0,0
    2416 0000ec30 00000000!         .long   namebox2BMOD
    2417 0000ec50     0009          .word   9,207-14
    2418 0000ec70 00000000          .long   0
    2419                    
    2420                    
    2421 0000ec90            SUBR   buyin_screen
    2422                    
    2423                    
    2424 0000ec90     05a0          move    @PSTATUS,a0
         0000eca0 00000000! 
    2425 0000ecc0     0580          move    a0,@plyrsdropped
         0000ecd0 00000000! 
    2426                    
    2427 0000ecf0     5600          clr     a0
    2428 0000ed00     0580          move    a0,@pleasewt
         0000ed10 00000000! 
    2429 0000ed30     0780          move    a0,@newplyrs,L
         0000ed40 00000000! 
    2430                    
    2431 0000ed60     05ae          move    @gmqrtr,a14
         0000ed70 00000000! 
    2432 0000ed90     0b4e          cmpi    4,a14
         0000eda0     fffb  
    2433 0000edb0     c40b          jrlt    shrutag1
    2434 0000edc0     05ae          move    @scores,a14
         0000edd0 00000000! 
    2435 0000edf0     05a1          move    @scores+16,a1
         0000ee00 00000010! 
    2436 0000ee20     482e          cmp     a1,a14
    2437 0000ee30     ca03          jrz     shrutag1
    2438 0000ee40           shruexit
    2439 0000ee40                   RETP
    2440 0000ee70           shrutag1
    2441 0000ee70     05a9          move    @PSTATUS,a9
         0000ee80 00000000! 
TMS340 COFF Macro Assembler Version 6.10     Tue Dec 19 01:45:15 2023
 Copyright (c) 1985-1991  Texas Instruments Incorporated 

name & team selection                                                PAGE   55

    2442 0000eea0     09e1          movi    qtr_purchased,a1        ; - 1 quarter for each player
         0000eeb0 00000000! 
    2443 0000eed0     5642          clr     a2
    2444 0000eee0           shrudec_loop
    2445 0000eee0     8420          move    *a1,a0
    2446 0000eef0     ca0c          jrz     shruskip2
    2447 0000ef00     1420          dec     a0
    2448 0000ef10     8001          move    a0,*a1
    2449 0000ef20     cb09          jrnz    shruskip2
    2450 0000ef30     1820          movk    1,a0
    2451 0000ef40     6040          sla     a2,a0
    2452 0000ef50     05a3          move    @PSTATUS,a3
         0000ef60 00000000! 
    2453 0000ef80     5203          andn    a0,a3
    2454 0000ef90     0583          move    a3,@PSTATUS
         0000efa0 00000000! 
    2455 0000efc0           shruskip2
    2456 0000efc0     1201          addk    16,a1
    2457 0000efd0     1022          inc     a2
    2458 0000efe0     0b42          cmpi    3,a2
         0000eff0     fffc  
    2459 0000f000     c2ed          jrls    shrudec_loop
    2460 0000f010     05a0          move    @PSTATUS,a0
         0000f020 00000000! 
    2461 0000f040           shrutag2
    2462 0000f040     4809          cmp     a0,a9
    2463 0000f050     cb0d          jrnz    shrucont
    2464 0000f060     0d5f          calla   CR_CONTP                ;Credits to continue
         0000f070 00000000! 
    2465 0000f090     c806          jrlo    shrubx                  ;No?
    2466 0000f0a0     05a0          move    @game_purchased,a0
         0000f0b0 00000000! 
    2467 0000f0d0     0b40          cmpi    0fH,a0
         0000f0e0     fff0  
    2468 0000f0f0     cb03          jrnz    shrucont
    2469 0000f100           shrubx
    2470 0000f100                   RETP
    2471                    
    2472 0000f130           shrucont
    2473 0000f130     5600          clr     a0
    2474 0000f140     0580          move    a0,@IRQSKYE             ;background color
         0000f150 00000000! 
    2475                    
    2476 0000f170     5600          clr     a0
    2477 0000f180     0780          move    a0,@COLRTEMP,L
         0000f190 00000000! 
    2478 0000f1b0     0580          move    a0,@dtype               ;2D
         0000f1c0 00000000! 
    2479                    
    2480 0000f1e0     1820          movk    1,a0                    ;page flipping on
    2481 0000f1f0     0580          move    a0,@dpageflip
         0000f200 00000000! 
    2482                    
    2483 0000f220     1840          movk    ININTRO,a0
    2484 0000f230     0580          move    a0,@GAMSTATE
TMS340 COFF Macro Assembler Version 6.10     Tue Dec 19 01:45:15 2023
 Copyright (c) 1985-1991  Texas Instruments Incorporated 

name & team selection                                                PAGE   56

         0000f240 00000000! 
    2485                    
    2486 0000f260     09e0          movi    newplyrs,a0
         0000f270 00000000! 
    2487 0000f290     0780          move    a0,@newptr,L
         0000f2a0 00000000! 
    2488                    
    2489                    
    2490 0000f2c0     05a0          move    @gmqrtr,a0
         0000f2d0 00000000! 
    2491 0000f2f0     0b40          cmpi    2,a0
         0000f300     fffd  
    2492 0000f310     cb2c          jrnz    shrunoth
    2493                            .ref    ZERO_BITS
    2494 0000f320     0d5f          calla   ZERO_BITS
         0000f330 00000000! 
    2495                    
    2496                    
    2497 0000f350     0d5f          calla   pal_clean
         0000f360 00000000! 
    2498 0000f380     09e0          movi    shrubuyin2_mod,a0
         0000f390 000100b0' 
    2499                    
    2500 0000f3b0     05ae          move    @TWOPLAYERS,a14         ;0 = NO, 1 = YES 2 players
         0000f3c0 00000000! 
    2501 0000f3e0     ca03          jrz     shrunot_2pa
    2502                    
    2503 0000f3f0     09e0          movi    shrubuyin2_kit_mod,a0
         0000f400 00010150' 
    2504                    
    2505 0000f420           shrunot_2pa
    2506                    
    2507                    
    2508 0000f420     0780          move    a0,@BAKMODS,L
         0000f430 00000000! 
    2509 0000f450     0d5f          calla   BGND_UD1
         0000f460 00000000! 
    2510 0000f480                   SLEEPK  2
    2511 0000f4c0     0d5f          calla   del_box_imgs
         0000f4d0 00021170' 
    2512                    
    2513              0008  SCROLL_SPEED    equ     8
    2514                    
    2515                    
    2516 0000f4f0     09ea          movi    SCROLL_SPEED<<16,a10
         0000f500 00080000  
    2517                            .ref    scroll_page
    2518 0000f520                   JSRP    scroll_page
    2519                    
    2520 0000f590     5600          clr     a0
    2521 0000f5a0     0580          move    a0,@page_scrolling      ;scrolling
         0000f5b0 00000000! 
    2522 0000f5d0     c035          jruc    shruyesh
    2523 0000f5e0           shrunoth
    2524                    
TMS340 COFF Macro Assembler Version 6.10     Tue Dec 19 01:45:15 2023
 Copyright (c) 1985-1991  Texas Instruments Incorporated 

name & team selection                                                PAGE   57

    2525                    
    2526 0000f5e0     0d5f          calla   KILBGND                 ;Kill old background
         0000f5f0 00000000! 
    2527 0000f610     0d5f          calla   pal_clean
         0000f620 00000000! 
    2528 0000f640                   SLEEPK  1
    2529 0000f680     09c1          movi    -1,a1
         0000f690     ffff  
    2530 0000f6a0     0d5f          calla   obj_delc                ;Kill all objs (Screen mem is clr)
         0000f6b0 00000000! 
    2531                    
    2532 0000f6d0     09e0          movi    SCRNEND,a0              ;[256,405]
         0000f6e0 00fe01b0  
    2533 0000f700     0780          move    a0,@SCRNLR,L
         0000f710 00000000! 
    2534                    
    2535 0000f730     09e0          movi    [NAMENT_PAGE,0],a0
         0000f740 01000000  
    2536 0000f760     0780          move    a0,@WORLDTLY,L
         0000f770 00000000! 
    2537 0000f790     09e0          movi    [NAMENT_PAGE,0],a0
         0000f7a0 01000000  
    2538 0000f7c0     0780          move    a0,@WORLDTL,L
         0000f7d0 00000000! 
    2539                    
    2540 0000f7f0                   SLEEPK  2
    2541                    
    2542 0000f830     09e0          movi    shrubuyin_mod,a0
         0000f840 000101f0' 
    2543 0000f860     05a1          move    @TWOPLAYERS,a1          ;0 = NO, 1 = YES 2 players
         0000f870 00000000! 
    2544 0000f890     ca03          jrz     shrunot2
    2545 0000f8a0     09e0          movi    shrubuyin_kit_mod,a0
         0000f8b0 00010290' 
    2546 0000f8d0           shrunot2
    2547 0000f8d0     0780          move    a0,@BAKMODS,L
         0000f8e0 00000000! 
    2548 0000f900     0d5f          calla   BGND_UD1
         0000f910 00000000! 
    2549 0000f930           shruyesh
    2550                    
    2551 0000f930     0d5f          calla   create_bits
         0000f940 00000000! 
    2552                    
    2553 0000f960     09ca          movi    TSEC,a10
         0000f970     0035  
    2554 0000f980                   CREATE0 timeout3
    2555                    
    2556 0000f9f0                   CREATE0 credits
    2557 0000fa60                   CREATE0 credit_messages
    2558                    
    2559 0000fad0     1820          movk    1,a0
    2560 0000fae0     0580          move    a0,@can_enter_inits     ;if 0 deletes challenger messages
         0000faf0 00000000! 
    2561                    
TMS340 COFF Macro Assembler Version 6.10     Tue Dec 19 01:45:15 2023
 Copyright (c) 1985-1991  Texas Instruments Incorporated 

name & team selection                                                PAGE   58

    2562 0000fb10     182a          movk    1,a10                   ;player 2
    2563 0000fb20                   CREATE0 ingame_mess
    2564 0000fb90                   CREATE0 challenger
    2565 0000fc00     184a          movk    2,a10                   ;player 3
    2566 0000fc10                   CREATE0 ingame_mess
    2567 0000fc80                   CREATE0 challenger
    2568                    
    2569 0000fcf0     05a0          move    @TWOPLAYERS,a0          ;0 = NO, 1 = YES 2 players
         0000fd00 00000000! 
    2570 0000fd20     cb1e          jrnz    shru2_plyrs
    2571                    
    2572 0000fd30     574a          clr     a10                     ;player 1
    2573 0000fd40                   CREATE0 ingame_mess
    2574 0000fdb0                   CREATE0 challenger
    2575 0000fe20     186a          movk    3,a10                   ;player 4
    2576 0000fe30                   CREATE0 ingame_mess
    2577 0000fea0                   CREATE0 challenger
    2578                    
    2579 0000ff10           shru2_plyrs
    2580                    
    2581 0000ff10                   SLEEP   10
    2582                    
    2583 0000ff60           shruwait
    2584 0000ff60                   SLEEPK  1
    2585 0000ffa0     05a0          move    @force_selection,a0
         0000ffb0 00000000! 
    2586 0000ffd0     caf8          jrz     shruwait
    2587 0000ffe0     05a0          move    @PSTATUS,a0
         0000fff0 00000000! 
    2588 00010010     cb06          jrnz    shruok
    2589                    
    2590 00010020     0d5f          calla   dropout_stats
         00010030 00000000! 
    2591 00010050     c080          jauc    game_over
         00010060 00000000! 
    2592                    
    2593 00010080           shruok  RETP
    2594                    
    2595                    
    2596 000100b0           shrubuyin2_mod
    2597 000100b0 00000000!         .long   selbackBMOD
    2598 000100d0     0000          .word   0,NAMENT_PAGE+256
    2599 000100f0 00000000!         .long   namebox2BMOD
    2600 00010110     0009          .word   9,NAMENT_PAGE+207-14
    2601 00010130 00000000          .long   0
    2602 00010150           shrubuyin2_kit_mod
    2603 00010150 00000000!         .long   selbackkBMOD
    2604 00010170     0000          .word   0,NAMENT_PAGE+256
    2605 00010190 00000000!         .long   nameboxkBMOD
    2606 000101b0     0009          .word   9,NAMENT_PAGE+207-14
    2607 000101d0 00000000          .long   0
    2608 000101f0           shrubuyin_mod
    2609 000101f0 00000000!         .long   selbackBMOD
    2610 00010210     0000          .word   0,NAMENT_PAGE
    2611 00010230 00000000!         .long   namebox2BMOD
TMS340 COFF Macro Assembler Version 6.10     Tue Dec 19 01:45:15 2023
 Copyright (c) 1985-1991  Texas Instruments Incorporated 

name & team selection                                                PAGE   59

    2612 00010250     0009          .word   9,NAMENT_PAGE+207-14
    2613 00010270 00000000          .long   0
    2614                    
    2615 00010290           shrubuyin_kit_mod
    2616 00010290 00000000!         .long   selbackkBMOD
    2617 000102b0     0000          .word   0,NAMENT_PAGE
    2618 000102d0 00000000!         .long   nameboxkBMOD
    2619 000102f0     0009          .word   9,NAMENT_PAGE+207-14
    2620 00010310 00000000          .long   0
    2621                    
    2622                    
    2623 00010330            SUBR   blink_tmslct
    2624                    
    2625 00010330     09e0          movi    [200,0],a0
         00010340 00c80000  
    2626 00010360     09e1          movi    [17,0],a1
         00010370 00110000  
    2627 00010390     09e2          movi    PRESSBUTT,a2                    ;* image
         000103a0 00000000! 
    2628 000103c0     09c3          movi    19001,a3                        ;z pos
         000103d0     4a39  
    2629 000103e0     09e4          movi    DMAWNZ|M_SCRNREL,a4             ;DMA flags
         000103f0 0000a002  
    2630 00010410     09c5          movi    0,a5                            ;object ID
         00010420     0000  
    2631 00010430     56c6          clr     a6                              ;x vel
    2632 00010440     56e7          clr     a7                              ;y vel
    2633 00010450     0d5f          calla   BEGINOBJ2
         00010460 00000000! 
    2634                    
    2635 00010480           yqcrlp
    2636 00010480                   SLEEP   90
    2637                    
    2638 000104d0     09e0          movi    TURBO_P,a0              ;SGMD8RED,a0
         000104e0 00000000! 
    2639 00010500     0d5f          calla   pal_getf
         00010510 00000000! 
    2640 00010530     b008          move    a0,*a8(OPAL)
         00010540     0150  
    2641                    
    2642 00010550     09e0          movi    PRESSTURB,a0            ;* image
         00010560 00000000! 
    2643 00010580     09e1          movi    DMAWNZ,a1               ;DMA flags
         00010590 00008002  
    2644 000105b0     0d5f          calla   obj_aniq                ;change object image
         000105c0 00000000! 
    2645                    
    2646 000105e0                   SLEEP   90
    2647                    
    2648 00010630     09e0          movi    BUTT_P,a0               ;SGMD8WHT,a0
         00010640 00000000! 
    2649 00010660     0d5f          calla   pal_getf
         00010670 00000000! 
    2650 00010690     b008          move    a0,*a8(OPAL)
         000106a0     0150  
TMS340 COFF Macro Assembler Version 6.10     Tue Dec 19 01:45:15 2023
 Copyright (c) 1985-1991  Texas Instruments Incorporated 

name & team selection                                                PAGE   60

    2651                    
    2652 000106b0     09e0          movi    PRESSBUTT,a0            ;* image
         000106c0 00000000! 
    2653 000106e0     09e1          movi    DMAWNZ,a1               ;DMA flags
         000106f0 00008002  
    2654 00010710     0d5f          calla   obj_aniq                ;change object image
         00010720 00000000! 
    2655 00010740     c0d3          jruc    yqcrlp
    2656                    
    2657                    
    2658                    
    2659                            .asg    50,YSPACE
    2660                    
    2661 00010750            SUBR   grand_champs_screen
    2662                    
    2663                    
    2664 00010750     574a          clr     a10
    2665 00010760           qtcschk_nxt
    2666 00010760     0d3f          callr   qtcscheck_champ
         00010770     00da  
    2667 00010780     c908          jrnc    qtcsfound_champ
    2668 00010790     102a          inc     a10
    2669 000107a0     0b4a          cmpi    4,a10
         000107b0     fffb  
    2670 000107c0     c4f9          jrlt    qtcschk_nxt
    2671                    
    2672 000107d0     574a          clr     a10
    2673 000107e0                   RETP
    2674                    
    2675                    
    2676 00010810           qtcsfound_champ
    2677                    
    2678 00010810     0d5f          calla   display_blank
         00010820 00000000! 
    2679 00010840     0d5f          calla   WIPEOUT
         00010850 00000000! 
    2680                    
    2681                    
    2682 00010870     5600          clr     a0
    2683 00010880     0580          move    a0,@dtype               ;2D
         00010890 00000000! 
    2684 000108b0     0580          move    a0,@HALT
         000108c0 00000000! 
    2685                    
    2686 000108e0     1820          movk    1,a0                    ;page flipping on
    2687 000108f0     0580          move    a0,@dpageflip
         00010900 00000000! 
    2688                    
    2689 00010920     09e0          movi    SCRNEND,a0              ;[256,405]
         00010930 00fe01b0  
    2690 00010950     0780          move    a0,@SCRNLR,L
         00010960 00000000! 
    2691                    
    2692 00010980     5600          clr     a0
    2693 00010990     0780          move    a0,@WORLDTLX,L
TMS340 COFF Macro Assembler Version 6.10     Tue Dec 19 01:45:15 2023
 Copyright (c) 1985-1991  Texas Instruments Incorporated 

name & team selection                                                PAGE   61

         000109a0 00000000! 
    2694 000109c0     0780          move    a0,@WORLDTLY,L
         000109d0 00000000! 
    2695 000109f0     0580          move    a0,@IRQSKYE
         00010a00 00000000! 
    2696                    
    2697 00010a20                   SLEEPK  2
    2698                    
    2699 00010a60     09e0          movi    qtcsvmod,a0
         00010a70 00011760' 
    2700 00010a90     0780          move    a0,@BAKMODS,L
         00010aa0 00000000! 
    2701 00010ac0     0d5f          calla   BGND_UD1
         00010ad0 00000000! 
    2702                    
    2703 00010af0     09e2          movi    qtcscongrats_setup,a2
         00010b00 000117c0' 
    2704 00010b20     0d5f          calla   setup_message
         00010b30 00000000! 
    2705 00010b50     09c0          movi    YSPACE,a0
         00010b60     0032  
    2706 00010b70     0580          move    a0,@mess_line_spacing
         00010b80 00000000! 
    2707 00010ba0     09c0          movi    CLSDEAD|123,a0
         00010bb0     207b  
    2708 00010bc0     0580          move    a0,@mess_objid
         00010bd0 00000000! 
    2709 00010bf0     09e4          movi    qtcscongrats_str,a4
         00010c00 00011860' 
    2710 00010c20     0d5f          calla   print_string_C2
         00010c30 00000000! 
    2711                    
    2712 00010c50     09e2          movi    qtcscongrats_setup,a2   ;print player X on line below
         00010c60 000117c0' 
    2713 00010c80     0d5f          calla   setup_message
         00010c90 00000000! 
    2714 00010cb0     09c0          movi    CLSDEAD|123,a0
         00010cc0     207b  
    2715 00010cd0     0580          move    a0,@mess_objid
         00010ce0 00000000! 
    2716 00010d00     05a0          move    @mess_cursy,a0
         00010d10 00000000! 
    2717 00010d30     0b00          addi    YSPACE,a0
         00010d40     0032  
    2718 00010d50     0580          move    a0,@mess_cursy
         00010d60 00000000! 
    2719 00010d80     09e4          movi    qtcsplayer_str,a4
         00010d90 000123e0' 
    2720 00010db0     0d5f          calla   copy_rom_string
         00010dc0 00000000! 
    2721 00010de0     4d40          move    a10,a0
    2722 00010df0     05a1          move    @TWOPLAYERS,a1          ;0 = NO, 1 = YES 2 players
         00010e00 00000000! 
    2723 00010e20     cb01          jrnz    qtcsiskit
    2724 00010e30     1020          inc     a0                      ;1,2,3,4
TMS340 COFF Macro Assembler Version 6.10     Tue Dec 19 01:45:15 2023
 Copyright (c) 1985-1991  Texas Instruments Incorporated 

name & team selection                                                PAGE   62

    2725 00010e40           qtcsiskit                                       ;1,2
    2726 00010e40     09c1          movi    4,a1                    ;max value
         00010e50     0004  
    2727 00010e60     0d5f          calla   dec_to_asc
         00010e70 00000000! 
    2728 00010e90     0d5f          calla   concat_string
         00010ea0 00000000! 
    2729 00010ec0     0d5f          calla   print_string_C          ;centered
         00010ed0 00000000! 
    2730                    
    2731                    
    2732 00010ef0     09e3          movi    -0c000h,a3              ;scroll text up screen
         00010f00 ffff4000  
    2733 00010f20     09ee          movi    OBJLST,a14
         00010f30 00000000! 
    2734 00010f50           qtcslp
    2735 00010f50     87ce          move    *a14,a14,L
    2736 00010f60     ca08          jrz     qtcsx
    2737 00010f70     b5c2          move    *a14(OID),a2
         00010f80     0190  
    2738 00010f90     0b42          cmpi    CLSDEAD|123,a2
         00010fa0     df84  
    2739 00010fb0     cbf9          jrne    qtcslp
    2740 00010fc0     b26e          move    a3,*a14(OYVEL),L
         00010fd0     0040  
    2741 00010fe0     c0f6          jruc    qtcslp
    2742 00010ff0           qtcsx
    2743                    
    2744 00010ff0     09e0          movi    [18h,0],a0
         00011000 00180000  
    2745 00011020     09e1          movi    [2eh,0],a1
         00011030 002e0000  
    2746 00011050     09e2          movi    TROPHYD1,a2             ;* image
         00011060 00000000! 
    2747 00011080     09c3          movi    19001,a3                ;z pos
         00011090     4a39  
    2748 000110a0     09e4          movi    DMAWNZ,a4               ;DMA flags
         000110b0 00008002  
    2749 000110d0     56a5          clr     a5
    2750 000110e0     56c6          clr     a6                      ;x vel
    2751 000110f0     56e7          clr     a7                      ;y vel
    2752 00011100     0d5f          calla   BEGINOBJ2
         00011110 00000000! 
    2753                    
    2754                    
    2755 00011130     09e8          movi    [10,7],a8               ;START AT COLOR 10, CYCLE 7 COLORS
         00011140 000a0007  
    2756 00011160     09e9          movi    BLUE,a9                 ;PAL NAME
         00011170 00000000! 
    2757 00011190     09ea          movi    COLTAB2,a10             ;TABLE TO CYCLE WITH
         000111a0 00000000! 
    2758 000111c0     184b          movk    2,a11                   ;RATE OF CYCLE IN TICKS
    2759 000111d0                   CREATE  CYCPID,CYCLE_TABLE      ;START PROCESS TO DO CYCLE
    2760                    
    2761 00011250     1820          movk    1,a0
TMS340 COFF Macro Assembler Version 6.10     Tue Dec 19 01:45:15 2023
 Copyright (c) 1985-1991  Texas Instruments Incorporated 

name & team selection                                                PAGE   63

    2762 00011260     0580          move    a0,@DISPLAYON
         00011270 00000000! 
    2763                    
    2764 00011290                   SLEEPK  8
    2765                    
    2766 000112d0                   SOUND1  tunegc_snd
    2767                    
    2768                            .ref    plyr_jscrowdsnd
    2769 00011330                   CREATE0 plyr_jscrowdsnd
    2770                    
    2771 000113a0     0d5f          calla   display_unblank
         000113b0 00000000! 
    2772                    
    2773 000113d0                   SLEEP   TSEC*13
    2774                    
    2775 00011420                   CREATE0 plyr_jscrowdsnd
    2776                    
    2777                    
    2778 00011490                   SLEEP   35*TSEC
    2779                    
    2780 000114e0     182a          movk    1,a10
    2781 000114f0                   RETP
    2782                    
    2783                    
    2784 00011520           qtcscheck_champ
    2785                    
    2786 00011520     05a0          move    @PSTATUS,a0
         00011530 00000000! 
    2787 00011550     4b40          btst    a10,a0
    2788 00011560     ca15          jrz     qtcsfail
    2789                    
    2790 00011570     4d40          move    a10,a0
    2791 00011580     24a0          sll     5,a0
    2792 00011590     0b20          addi    qtcspdata,a0
         000115a0 000116e0' 
    2793 000115c0     8600          move    *a0,a0,L                        ;* player data
    2794                    
    2795 000115d0     b401          move    *a0(PR_INIT1),a1
         000115e0     0040  
    2796 000115f0     ce0c          jrn     qtcsfail
    2797 00011600     b401          move    *a0(PR_NUMDEF),a1
         00011610     0180  
    2798 00011620     0b41          cmpi    27,a1
         00011630     ffe4  
    2799 00011640     c407          jrlt    qtcsfail
    2800 00011650     b401          move    *a0(PR_NUMDEFOLD),a1
         00011660     0190  
    2801 00011670     0b41          cmpi    27,a1
         00011680     ffe4  
    2802 00011690     c502          jrge    qtcsfail
    2803                    
    2804 000116a0     0320          clrc
    2805 000116b0     0960          rets
    2806                    
    2807 000116c0           qtcsfail
TMS340 COFF Macro Assembler Version 6.10     Tue Dec 19 01:45:15 2023
 Copyright (c) 1985-1991  Texas Instruments Incorporated 

name & team selection                                                PAGE   64

    2808 000116c0     0de0          setc
    2809 000116d0     0960          rets
    2810                    
    2811                    
    2812 000116e0           qtcspdata
    2813 000116e0 00000000!         .long   player1_data
    2814 00011700 00000000!         .long   player2_data
    2815 00011720 00000000!         .long   player3_data
    2816 00011740 00000000!         .long   player4_data
    2817                    
    2818                    
    2819 00011760           qtcsvmod
    2820 00011760 00000000!         .long   blankjamBMOD
    2821 00011780     0000          .word   0,1
    2822 000117a0 00000000          .long   0
    2823                    
    2824                    
    2825                            .asg    200,X
    2826                            .asg    10+300,Y
    2827                    
    2828 000117c0           qtcscongrats_setup
    2829 000117c0                   RJR_STR osgemd_ascii,10,0,X,Y,BLUE,0
    2830                    
    2831                    
    2832 00011860           qtcscongrats_str
    2833 00011860       63          .string "congratulations!",1
    2834 000118e8       01          .string "",1
    2835 000118f0       01          .string "",1
    2836 000118f8       01          .string "",1
    2837 00011900       79          .string "you have defeated",1
    2838 00011990       61          .string "all 27 nba teams!",1
    2839 00011a20       01          .string "",1
    2840 00011a28       01          .string "",1
    2841 00011a30       01          .string "",1
    2842 00011a38       59          .string "You are the new NBA jam",1
    2843 00011af8       74          .string "tournament edition",1
    2844 00011b90       67          .string "grand champion!",1
    2845 00011c10       01          .string "",1
    2846 00011c18       01          .string "",1
    2847 00011c20       79          .string "you are an incredible",1
    2848 00011cd0       70          .string "player and one of the",1
    2849 00011d80       62          .string "best nba jam stars of",1
    2850 00011e30       61          .string "all time!",1
    2851 00011e80       01          .string "",1
    2852 00011e88       01          .string "",1
    2853 00011e90       68          .string "however, this is a",1
    2854 00011f28       6d          .string "midway game!  Which",1
    2855 00011fc8       6d          .string "means that there is yet",1
    2856 00012088       61          .string "a greater challenge",1
    2857 00012128       61          .string "awaiting you . . .",1
    2858 000121c0       01          .string "",1
    2859 000121c8       50          .string "Play on . . .",1
    2860 00012238       01          .string "",1
    2861 00012240       01          .string "",1
    2862 00012248       74          .string "thank you for playing",1
TMS340 COFF Macro Assembler Version 6.10     Tue Dec 19 01:45:15 2023
 Copyright (c) 1985-1991  Texas Instruments Incorporated 

name & team selection                                                PAGE   65

    2863 000122f8       6e          .string "nba jam",1
    2864 00012338       74          .string "tournament edition!",1
    2865 000123d8       00          .string "",0
    2866                    
    2867                    
    2868 000123e0           qtcsplayer_str
    2869 000123e0       50          .string "PLAYER ",0
    2870                    
    2871 00012420                   .even
    2872                    
    2873                    
    2874                    
    2875 00012420            SUBR   drw_chicks
    2876                    
    2877 00012420     0d5f          calla   display_blank
         00012430 00000000! 
    2878 00012450     0d5f          calla   WIPEOUT
         00012460 00000000! 
    2879                    
    2880 00012480     5600          clr     a0
    2881 00012490     0580          move    a0,@dtype               ;2D
         000124a0 00000000! 
    2882 000124c0     0580          move    a0,@HALT
         000124d0 00000000! 
    2883                    
    2884 000124f0     1820          movk    1,a0                    ;page flipping on
    2885 00012500     0580          move    a0,@dpageflip
         00012510 00000000! 
    2886                    
    2887 00012530     09e0          movi    SCRNEND,a0              ;[256,405]
         00012540 00fe01b0  
    2888 00012560     0780          move    a0,@SCRNLR,L
         00012570 00000000! 
    2889                    
    2890 00012590     5600          clr     a0
    2891 000125a0     0780          move    a0,@WORLDTLX,L
         000125b0 00000000! 
    2892 000125d0     0780          move    a0,@WORLDTLY,L
         000125e0 00000000! 
    2893 00012600     0580          move    a0,@IRQSKYE
         00012610 00000000! 
    2894                    
    2895 00012630                   SLEEPK  2
    2896                    
    2897 00012670     09e0          movi    ndqmchick_mod,a0
         00012680 00012d50' 
    2898 000126a0     0780          move    a0,@BAKMODS,L
         000126b0 00000000! 
    2899 000126d0     0d5f          calla   BGND_UD1
         000126e0 00000000! 
    2900                            
    2901 00012700     09e8          movi    [10,7],a8               ;START AT COLOR 10, CYCLE 7 COLORS
         00012710 000a0007  
    2902 00012730     09e9          movi    BLUE,a9                 ;PAL NAME
         00012740 00000000! 
TMS340 COFF Macro Assembler Version 6.10     Tue Dec 19 01:45:15 2023
 Copyright (c) 1985-1991  Texas Instruments Incorporated 

name & team selection                                                PAGE   66

    2903 00012760     09ea          movi    COLTAB2,a10             ;TABLE TO CYCLE WITH
         00012770 00000000! 
    2904 00012790     184b          movk    2,a11                   ;RATE OF CYCLE IN TICKS
    2905 000127a0                   CREATE  CYCPID,CYCLE_TABLE      ;START PROCESS TO DO CYCLE
    2906                    
    2907                    
    2908                    
    2909                    
    2910                    
    2911 00012820     09ca          movi    720h+150+180,a10
         00012830     086a  
    2912 00012840     09e2          movi    ndqmchicks_setup,a2
         00012850 00012db0' 
    2913 00012870     0d5f          calla   setup_message
         00012880 00000000! 
    2914 000128a0     09c0          movi    YSPACE,a0
         000128b0     0032  
    2915 000128c0     0580          move    a0,@mess_line_spacing
         000128d0 00000000! 
    2916 000128f0     09c0          movi    CLSDEAD|123,a0
         00012900     207b  
    2917 00012910     0580          move    a0,@mess_objid
         00012920 00000000! 
    2918 00012940     09e4          movi    ndqmchicks_str,a4
         00012950 00012e50' 
    2919 00012970     0d5f          calla   print_string_C2
         00012980 00000000! 
    2920                    
    2921 000129a0     09e3          movi    -0c000h,a3              ;scroll text up screen
         000129b0 ffff4000  
    2922 000129d0     09ee          movi    OBJLST,a14
         000129e0 00000000! 
    2923 00012a00           ndqmlp
    2924 00012a00     87ce          move    *a14,a14,L
    2925 00012a10     ca08          jrz     ndqmx
    2926 00012a20     b5c2          move    *a14(OID),a2
         00012a30     0190  
    2927 00012a40     0b42          cmpi    CLSDEAD|123,a2
         00012a50     df84  
    2928 00012a60     cbf9          jrne    ndqmlp
    2929 00012a70     b26e          move    a3,*a14(OYVEL),L
         00012a80     0040  
    2930 00012a90     c0f6          jruc    ndqmlp
    2931 00012aa0           ndqmx
    2932                    
    2933                    
    2934 00012aa0     1820          movk    1,a0
    2935 00012ab0     0580          move    a0,@DISPLAYON
         00012ac0 00000000! 
    2936                    
    2937 00012ae0                   SLEEPK  2
    2938 00012b20     0d5f          calla   display_unblank
         00012b30 00000000! 
    2939                    
    2940 00012b50                   SLEEP   2*TSEC
TMS340 COFF Macro Assembler Version 6.10     Tue Dec 19 01:45:15 2023
 Copyright (c) 1985-1991  Texas Instruments Incorporated 

name & team selection                                                PAGE   67

    2941                    
    2942                    
    2943                    
    2944 00012ba0           ndqmlp2 SLEEPK  1
    2945 00012be0     0d5f          calla   get_all_buttons_cur2
         00012bf0 00004370' 
    2946 00012c10     ca0f          jrz     ndqmnob
    2947 00012c20     5600          clr     a0
    2948 00012c30     0580          move    a0,@SOUNDSUP            ;turn all sounds on
         00012c40 00000000! 
    2949 00012c60                   SOUND1  bounce_snd
    2950 00012cc0     1820          movk    1,a0
    2951 00012cd0     0580          move    a0,@SOUNDSUP            ;turn all sounds off
         00012ce0 00000000! 
    2952 00012d00     c001          jruc    ndqmxb
    2953 00012d10           ndqmnob 
    2954 00012d10     3f0a          dsj     a10,ndqmlp2
    2955 00012d20           ndqmxb
    2956                    
    2957 00012d20                   RETP
    2958                    
    2959 00012d50           ndqmchick_mod
    2960 00012d50 00000000!         .long   chrvic1BMOD
    2961 00012d70     0000          .word   0,10
    2962 00012d90 00000000          .long   0
    2963                    
    2964                    
    2965                            .asg    200,X
    2966                            .asg    210,Y
    2967                    
    2968                    
    2969                            .asg    200,X
    2970                            .asg    10+250,Y
    2971                    
    2972 00012db0           ndqmchicks_setup
    2973 00012db0                   RJR_STR osgemd_ascii,10,0,X,Y,BLUE,0
    2974                    
    2975                    
    2976 00012e50           ndqmchicks_str
    2977 00012e50       41          .string "ATTENTION BALLPLAYERS:",1
    2978 00012f08       20          .string " ",1
    2979 00012f18       44          .string "DO YOU THINK YOU'VE CONQUERED",1
    2980 00013008       4e          .string "NBA JAM?",1
    2981 00013050       20          .string " ",1
    2982 00013060       57          .string "WE DON'T THINK SO.",1
    2983 000130f8       20          .string " ",1
    2984 00013108       54          .string "THIS NEW EDITION WILL PROVE:",1
    2985 000131f0       20          .string " ",1
    2986 00013200       4e          .string "NOW YOU NEED SKILLS!",1
    2987 000132a8       20          .string " ",1
    2988 000132b8       57          .string "WE WOULD LIKE TO AWARD THE",1
    2989 00013390       4e          .string "NBA JAM TOURNAMENT TROPHY.",1
    2990 00013468       20          .string " ",1        
    2991 00013478       46          .string "FIRST YOU MUST DEFEAT",1
    2992 00013528       41          .string "ALL 27 NBA TEAMS.",1
TMS340 COFF Macro Assembler Version 6.10     Tue Dec 19 01:45:15 2023
 Copyright (c) 1985-1991  Texas Instruments Incorporated 

name & team selection                                                PAGE   68

    2993 000135b8       20          .string " ",1
    2994 000135c8       44          .string "DEFEATING ALL 27 TEAMS",1
    2995 00013680       57          .string "WILL ALLOW YOU TO BE",1
    2996 00013728       4d          .string "MATCHED UP AGAINST SUPER",1
    2997 000137f0       53          .string "STAR & SPECIAL TEAMS THAT",1
    2998 000138c0       57          .string "WILL SHOW NO MERCY!",1
    2999 00013960       20          .string " ",1
    3000 00013970       20          .string " ",1
    3001 00013980       41          .string "ARE YOU UP FOR THE NBA JAM",1
    3002 00013a58       54          .string "TOURNAMENT EDITION CHALLENGE?",1
    3003 00013b48       20          .string " ",1
    3004 00013b58       53          .string "STEP UP AND SHOW SOME SKILL.",1
    3005 00013c40       20          .string " ",0
    3006 00013c50                   .even
    3007                    
    3008 00013c50           player_heads       
    3009                    
    3010                    
    3011 00013c50 00002a30"         .long   MAN_CLP,AUG_ATL
    3012 00013c90 00001f80"         .long   AUG_ATL,MAN_CLP
    3013 00013cd0 00002a30"         .long   MAN_CLP,WLS_ATL
    3014 00013d10 00005190"         .long   WLS_ATL,MAN_CLP
    3015 00013d50 00001f80"         .long   AUG_ATL,WLS_ATL
    3016 00013d90 00005190"         .long   WLS_ATL,AUG_ATL
    3017                    
    3018 00013dd0 00000000          .long   0,0
    3019 00013e10 00000000          .long   0,0
    3020 00013e50 00000000          .long   0,0
    3021 00013e90 00000000          .long   0,0
    3022 00013ed0 00000000          .long   0,0
    3023 00013f10 00000000          .long   0,0
    3024 00013f50 00000000          .long   0,0
    3025 00013f90 00000000          .long   0,0
    3026 00013fd0 00000000          .long   0,0
    3027 00014010 00000000          .long   0,0
    3028 00014050 00000000          .long   0,0
    3029 00014090 00000000          .long   0,0
    3030 000140d0 00000000          .long   0,0
    3031 00014110 00000000          .long   0,0
    3032                    
    3033 00014150 00004800"         .long   MCD_BOS,BRO_BOS
    3034 00014190 00003de0"         .long   BRO_BOS,MCD_BOS
    3035 000141d0 00004800"         .long   MCD_BOS,GAM_BOS
    3036 00014210 00004140"         .long   GAM_BOS,MCD_BOS
    3037 00014250 00003de0"         .long   BRO_BOS,GAM_BOS
    3038 00014290 00004140"         .long   GAM_BOS,BRO_BOS
    3039                    
    3040 000142d0 00000000          .long   0,0
    3041 00014310 00000000          .long   0,0
    3042 00014350 00000000          .long   0,0
    3043 00014390 00000000          .long   0,0
    3044 000143d0 00000000          .long   0,0
    3045 00014410 00000000          .long   0,0
    3046 00014450 00000000          .long   0,0
    3047 00014490 00000000          .long   0,0
TMS340 COFF Macro Assembler Version 6.10     Tue Dec 19 01:45:15 2023
 Copyright (c) 1985-1991  Texas Instruments Incorporated 

name & team selection                                                PAGE   69

    3048 000144d0 00000000          .long   0,0
    3049 00014510 00000000          .long   0,0
    3050 00014550 00000000          .long   0,0
    3051 00014590 00000000          .long   0,0
    3052 000145d0 00000000          .long   0,0
    3053 00014610 00000000          .long   0,0
    3054                    
    3055 00014650 00003720"         .long   JON_CHA,HWK_CHA
    3056 00014690 00002760"         .long   HWK_CHA,JON_CHA                 
    3057 000146d0 00003720"         .long   JON_CHA,MOU_CHA                 
    3058 00014710 00004920"         .long   MOU_CHA,JON_CHA
    3059 00014750 00002760"         .long   HWK_CHA,MOU_CHA                 
    3060 00014790 00004920"         .long   MOU_CHA,HWK_CHA
    3061                    
    3062 000147d0 00000000          .long   0,0
    3063 00014810 00000000          .long   0,0
    3064 00014850 00000000          .long   0,0
    3065 00014890 00000000          .long   0,0
    3066 000148d0 00000000          .long   0,0
    3067 00014910 00000000          .long   0,0
    3068 00014950 00000000          .long   0,0
    3069 00014990 00000000          .long   0,0
    3070 000149d0 00000000          .long   0,0
    3071 00014a10 00000000          .long   0,0
    3072 00014a50 00000000          .long   0,0
    3073 00014a90 00000000          .long   0,0
    3074 00014ad0 00000000          .long   0,0
    3075 00014b10 00000000          .long   0,0
    3076                    
    3077 00014b50 00002c70"         .long   PIP_CHI,ARM_CHI
    3078 00014b90 00003ba0"         .long   ARM_CHI,PIP_CHI
    3079 00014bd0 00002c70"         .long   PIP_CHI,KUK_CHI
    3080 00014c10 00004530"         .long   KUK_CHI,PIP_CHI
    3081 00014c50 00003ba0"         .long   ARM_CHI,KUK_CHI
    3082 00014c90 00004530"         .long   KUK_CHI,ARM_CHI         
    3083                    
    3084 00014cd0 00003ba0"         .long   ARM_CHI,GRT_CHI
    3085 00014d10 00003840"         .long   GRT_CHI,ARM_CHI
    3086 00014d50 00004530"         .long   KUK_CHI,GRT_CHI         
    3087 00014d90 00003840"         .long   GRT_CHI,KUK_CHI
    3088 00014dd0 00002c70"         .long   PIP_CHI,GRT_CHI         
    3089 00014e10 00003840"         .long   GRT_CHI,PIP_CHI
    3090                    
    3091 00014e50 00000000          .long   0,0
    3092 00014e90 00000000          .long   0,0
    3093 00014ed0 00000000          .long   0,0
    3094 00014f10 00000000          .long   0,0
    3095 00014f50 00000000          .long   0,0
    3096 00014f90 00000000          .long   0,0
    3097 00014fd0 00000000          .long   0,0
    3098 00015010 00000000          .long   0,0
    3099                    
    3100 00015050 00002d90"         .long   PRC_CLE,DAU_CLE                 
    3101 00015090 00002130"         .long   DAU_CLE,PRC_CLE                 
    3102 000150d0 00002d90"         .long   PRC_CLE,NAN_CLE                 
TMS340 COFF Macro Assembler Version 6.10     Tue Dec 19 01:45:15 2023
 Copyright (c) 1985-1991  Texas Instruments Incorporated 

name & team selection                                                PAGE   70

    3103 00015110 000049b0"         .long   NAN_CLE,PRC_CLE                 
    3104 00015150 00002130"         .long   DAU_CLE,NAN_CLE                 
    3105 00015190 000049b0"         .long   NAN_CLE,DAU_CLE                 
    3106                    
    3107 000151d0 00000000          .long   0,0
    3108 00015210 00000000          .long   0,0
    3109 00015250 00000000          .long   0,0
    3110 00015290 00000000          .long   0,0
    3111 000152d0 00000000          .long   0,0
    3112 00015310 00000000          .long   0,0
    3113 00015350 00000000          .long   0,0
    3114 00015390 00000000          .long   0,0
    3115 000153d0 00000000          .long   0,0
    3116 00015410 00000000          .long   0,0
    3117 00015450 00000000          .long   0,0
    3118 00015490 00000000          .long   0,0
    3119 000154d0 00000000          .long   0,0
    3120 00015510 00000000          .long   0,0
    3121                    
    3122                        
    3123 00015550 00004410"         .long   JAC_DAL,MAS_DAL
    3124 00015590 00004650"         .long   MAS_DAL,JAC_DAL
    3125 000155d0 00000000          .long   0,0
    3126 00015610 00000000          .long   0,0
    3127 00015650 00000000          .long   0,0
    3128 00015690 00000000          .long   0,0
    3129                    
    3130                            
    3131 000156d0 00000000          .long   0,0
    3132 00015710 00000000          .long   0,0
    3133 00015750 00000000          .long   0,0
    3134 00015790 00000000          .long   0,0
    3135 000157d0 00000000          .long   0,0
    3136 00015810 00000000          .long   0,0
    3137 00015850 00000000          .long   0,0
    3138 00015890 00000000          .long   0,0
    3139 000158d0 00000000          .long   0,0
    3140 00015910 00000000          .long   0,0
    3141 00015950 00000000          .long   0,0
    3142 00015990 00000000          .long   0,0
    3143 000159d0 00000000          .long   0,0
    3144 00015a10 00000000          .long   0,0
    3145                    
    3146 00015a50 00002b50"         .long   MUT_DEN,ELL_DEN
    3147 00015a90 000022e0"         .long   ELL_DEN,MUT_DEN                 
    3148 00015ad0 00002b50"         .long   MUT_DEN,ROG_DEN
    3149 00015b10 00004e30"         .long   ROG_DEN,MUT_DEN
    3150 00015b50 000022e0"         .long   ELL_DEN,ROG_DEN
    3151 00015b90 00004e30"         .long   ROG_DEN,ELL_DEN
    3152                    
    3153 00015bd0 00000000          .long   0,0
    3154 00015c10 00000000          .long   0,0
    3155 00015c50 00000000          .long   0,0
    3156 00015c90 00000000          .long   0,0
    3157 00015cd0 00000000          .long   0,0
TMS340 COFF Macro Assembler Version 6.10     Tue Dec 19 01:45:15 2023
 Copyright (c) 1985-1991  Texas Instruments Incorporated 

name & team selection                                                PAGE   71

    3158 00015d10 00000000          .long   0,0
    3159 00015d50 00000000          .long   0,0
    3160 00015d90 00000000          .long   0,0
    3161 00015dd0 00000000          .long   0,0
    3162 00015e10 00000000          .long   0,0
    3163 00015e50 00000000          .long   0,0
    3164 00015e90 00000000          .long   0,0
    3165 00015ed0 00000000          .long   0,0
    3166 00015f10 00000000          .long   0,0
    3167                    
    3168 00015f50 000032a0"         .long   THM_DET,DUM_DET
    3169 00015f90 00003f90"         .long   DUM_DET,THM_DET
    3170 00015fd0 000032a0"         .long   THM_DET,ELL_DET
    3171 00016010 00002370"         .long   ELL_DET,THM_DET
    3172 00016050 00003f90"         .long   DUM_DET,ELL_DET
    3173 00016090 00002370"         .long   ELL_DET,DUM_DET
    3174                    
    3175 000160d0 00003f90"         .long   DUM_DET,HUN_DET
    3176 00016110 000042f0"         .long   HUN_DET,DUM_DET
    3177 00016150 000032a0"         .long   THM_DET,HUN_DET
    3178 00016190 000042f0"         .long   HUN_DET,THM_DET
    3179 000161d0 00002370"         .long   ELL_DET,HUN_DET
    3180 00016210 000042f0"         .long   HUN_DET,ELL_DET
    3181                    
    3182 00016250 00000000          .long   0,0
    3183 00016290 00000000          .long   0,0
    3184 000162d0 00000000          .long   0,0
    3185 00016310 00000000          .long   0,0
    3186 00016350 00000000          .long   0,0
    3187 00016390 00000000          .long   0,0
    3188 000163d0 00000000          .long   0,0
    3189 00016410 00000000          .long   0,0
    3190                    
    3191 00016450 000025b0"         .long   HRD_GLD,MUL_GLD
    3192 00016490 00002ac0"         .long   MUL_GLD,HRD_GLD                 
    3193 000164d0 000025b0"         .long   HRD_GLD,WEB_GLD
    3194 00016510 00005100"         .long   WEB_GLD,HRD_GLD                 
    3195 00016550 00002ac0"         .long   MUL_GLD,WEB_GLD                 
    3196 00016590 00005100"         .long   WEB_GLD,MUL_GLD                 
    3197                    
    3198 000165d0 00000000          .long   0,0
    3199 00016610 00000000          .long   0,0
    3200 00016650 00000000          .long   0,0
    3201 00016690 00000000          .long   0,0
    3202 000166d0 00000000          .long   0,0
    3203 00016710 00000000          .long   0,0
    3204 00016750 00000000          .long   0,0
    3205 00016790 00000000          .long   0,0
    3206 000167d0 00000000          .long   0,0
    3207 00016810 00000000          .long   0,0
    3208 00016850 00000000          .long   0,0
    3209 00016890 00000000          .long   0,0
    3210 000168d0 00000000          .long   0,0
    3211 00016910 00000000          .long   0,0
    3212                    
TMS340 COFF Macro Assembler Version 6.10     Tue Dec 19 01:45:15 2023
 Copyright (c) 1985-1991  Texas Instruments Incorporated 

name & team selection                                                PAGE   72

    3213 00016950 00002be0"         .long   OLA_HOU,MAX_HOU
    3214 00016990 00004770"         .long   MAX_HOU,OLA_HOU
    3215 000169d0 00002be0"         .long   OLA_HOU,HOR_HOU
    3216 00016a10 00004260"         .long   HOR_HOU,OLA_HOU
    3217 00016a50 00004770"         .long   MAX_HOU,HOR_HOU
    3218 00016a90 00004260"         .long   HOR_HOU,MAX_HOU
    3219                    
    3220 00016ad0 00004770"         .long   MAX_HOU,SMT_HOU         
    3221 00016b10 00003180"         .long   SMT_HOU,MAX_HOU
    3222 00016b50 00002be0"         .long   OLA_HOU,SMT_HOU         
    3223 00016b90 00003180"         .long   SMT_HOU,OLA_HOU
    3224 00016bd0 00004260"         .long   HOR_HOU,SMT_HOU         
    3225 00016c10 00003180"         .long   SMT_HOU,HOR_HOU
    3226                    
    3227 00016c50 00000000          .long   0,0
    3228 00016c90 00000000          .long   0,0
    3229 00016cd0 00000000          .long   0,0
    3230 00016d10 00000000          .long   0,0
    3231 00016d50 00000000          .long   0,0
    3232 00016d90 00000000          .long   0,0
    3233 00016dd0 00000000          .long   0,0
    3234 00016e10 00000000          .long   0,0
    3235                    
    3236                    
    3237 00016e50 00003570"         .long   MIL_IND,SEL_IND
    3238 00016e90 000045c0"         .long   SEL_IND,MIL_IND
    3239 00016ed0 00003570"         .long   MIL_IND,SMI_IND
    3240 00016f10 00004f50"         .long   SMI_IND,MIL_IND
    3241 00016f50 000045c0"         .long   SEL_IND,SMI_IND
    3242 00016f90 00004f50"         .long   SMI_IND,SEL_IND
    3243                    
    3244                    
    3245 00016fd0 00000000          .long   0,0
    3246 00017010 00000000          .long   0,0
    3247 00017050 00000000          .long   0,0
    3248 00017090 00000000          .long   0,0
    3249 000170d0 00000000          .long   0,0
    3250 00017110 00000000          .long   0,0
    3251                    
    3252 00017150 00000000          .long   0,0
    3253 00017190 00000000          .long   0,0
    3254 000171d0 00000000          .long   0,0
    3255 00017210 00000000          .long   0,0
    3256 00017250 00000000          .long   0,0
    3257 00017290 00000000          .long   0,0
    3258 000172d0 00000000          .long   0,0
    3259 00017310 00000000          .long   0,0
    3260                    
    3261                    
    3262 00017350 00003450"         .long   WLK_ATL,HRP_CLP
    3263 00017390 000026d0"         .long   HRP_CLP,WLK_ATL
    3264 000173d0 00003450"         .long   WLK_ATL,ROB_CLP
    3265 00017410 00004c80"         .long   ROB_CLP,WLK_ATL
    3266 00017450 000026d0"         .long   HRP_CLP,ROB_CLP
    3267 00017490 00004c80"         .long   ROB_CLP,HRP_CLP
TMS340 COFF Macro Assembler Version 6.10     Tue Dec 19 01:45:15 2023
 Copyright (c) 1985-1991  Texas Instruments Incorporated 

name & team selection                                                PAGE   73

    3268                    
    3269 000174d0 00000000          .long   0,0
    3270 00017510 00000000          .long   0,0
    3271 00017550 00000000          .long   0,0
    3272 00017590 00000000          .long   0,0
    3273 000175d0 00000000          .long   0,0
    3274 00017610 00000000          .long   0,0
    3275 00017650 00000000          .long   0,0
    3276 00017690 00000000          .long   0,0
    3277 000176d0 00000000          .long   0,0
    3278 00017710 00000000          .long   0,0
    3279 00017750 00000000          .long   0,0
    3280 00017790 00000000          .long   0,0
    3281 000177d0 00000000          .long   0,0
    3282 00017810 00000000          .long   0,0
    3283                    
    3284                    
    3285 00017850 00004ad0"         .long   PEE_LAK,DIV_LAK
    3286 00017890 000027f0"         .long   DIV_LAK,PEE_LAK
    3287 000178d0 00004ad0"         .long   PEE_LAK,CAM_LAK
    3288 00017910 00003e70"         .long   CAM_LAK,PEE_LAK
    3289 00017950 000027f0"         .long   DIV_LAK,CAM_LAK
    3290 00017990 00003e70"         .long   CAM_LAK,DIV_LAK
    3291                    
    3292 000179d0 000027f0"         .long   DIV_LAK,WOR_LAK
    3293 00017a10 000034e0"         .long   WOR_LAK,DIV_LAK
    3294 00017a50 00004ad0"         .long   PEE_LAK,WOR_LAK
    3295 00017a90 000034e0"         .long   WOR_LAK,PEE_LAK
    3296 00017ad0 00003e70"         .long   CAM_LAK,WOR_LAK
    3297 00017b10 000034e0"         .long   WOR_LAK,CAM_LAK
    3298                    
    3299 00017b50 00000000          .long   0,0
    3300 00017b90 00000000          .long   0,0
    3301 00017bd0 00000000          .long   0,0
    3302 00017c10 00000000          .long   0,0
    3303 00017c50 00000000          .long   0,0
    3304 00017c90 00000000          .long   0,0
    3305 00017cd0 00000000          .long   0,0
    3306 00017d10 00000000          .long   0,0
    3307                    
    3308                    
    3309                    
    3310 00017d50 00002eb0"         .long   RCE_MIA,SKL_MIA
    3311 00017d90 00003060"         .long   SKL_MIA,RCE_MIA
    3312 00017dd0 00002eb0"         .long   RCE_MIA,MIN_MIA
    3313 00017e10 00004890"         .long   MIN_MIA,RCE_MIA
    3314 00017e50 00003060"         .long   SKL_MIA,MIN_MIA
    3315 00017e90 00004890"         .long   MIN_MIA,SKL_MIA
    3316                    
    3317 00017ed0 00000000          .long   0,0
    3318 00017f10 00000000          .long   0,0
    3319 00017f50 00000000          .long   0,0
    3320 00017f90 00000000          .long   0,0
    3321 00017fd0 00000000          .long   0,0
    3322 00018010 00000000          .long   0,0
TMS340 COFF Macro Assembler Version 6.10     Tue Dec 19 01:45:15 2023
 Copyright (c) 1985-1991  Texas Instruments Incorporated 

name & team selection                                                PAGE   74

    3323 00018050 00000000          .long   0,0
    3324 00018090 00000000          .long   0,0
    3325 000180d0 00000000          .long   0,0
    3326 00018110 00000000          .long   0,0
    3327 00018150 00000000          .long   0,0
    3328 00018190 00000000          .long   0,0
    3329 000181d0 00000000          .long   0,0
    3330 00018210 00000000          .long   0,0
    3331                    
    3332                    
    3333 00018250 00003c30"         .long   BAK_MLW,EDW_MLW
    3334 00018290 000021c0"         .long   EDW_MLW,BAK_MLW
    3335 000182d0 00003c30"         .long   BAK_MLW,DAY_MLW
    3336 00018310 00005220"         .long   DAY_MLW,BAK_MLW
    3337 00018350 000021c0"         .long   EDW_MLW,DAY_MLW
    3338 00018390 00005220"         .long   DAY_MLW,EDW_MLW
    3339                            
    3340 000183d0 000021c0"         .long   EDW_MLW,LOH_MLW
    3341 00018410 00003600"         .long   LOH_MLW,EDW_MLW
    3342 00018450 00005220"         .long   DAY_MLW,LOH_MLW
    3343 00018490 00003600"         .long   LOH_MLW,DAY_MLW
    3344 000184d0 00003c30"         .long   BAK_MLW,LOH_MLW
    3345 00018510 00003600"         .long   LOH_MLW,BAK_MLW
    3346                    
    3347 00018550 00000000          .long   0,0
    3348 00018590 00000000          .long   0,0
    3349 000185d0 00000000          .long   0,0
    3350 00018610 00000000          .long   0,0
    3351 00018650 00000000          .long   0,0
    3352 00018690 00000000          .long   0,0
    3353 000186d0 00000000          .long   0,0
    3354 00018710 00000000          .long   0,0
    3355                    
    3356                    
    3357 00018750 00002910"         .long   LTN_MIN,PRS_MIN
    3358 00018790 00002e20"         .long   PRS_MIN,LTN_MIN
    3359 000187d0 00002910"         .long   LTN_MIN,RID_MIN
    3360 00018810 00004bf0"         .long   RID_MIN,LTN_MIN
    3361 00018850 00002e20"         .long   PRS_MIN,RID_MIN
    3362 00018890 00004bf0"         .long   RID_MIN,PRS_MIN
    3363                    
    3364 000188d0 00000000          .long   0,0
    3365 00018910 00000000          .long   0,0
    3366 00018950 00000000          .long   0,0
    3367 00018990 00000000          .long   0,0
    3368 000189d0 00000000          .long   0,0
    3369 00018a10 00000000          .long   0,0
    3370 00018a50 00000000          .long   0,0
    3371 00018a90 00000000          .long   0,0
    3372 00018ad0 00000000          .long   0,0
    3373 00018b10 00000000          .long   0,0
    3374 00018b50 00000000          .long   0,0
    3375 00018b90 00000000          .long   0,0
    3376 00018bd0 00000000          .long   0,0
    3377 00018c10 00000000          .long   0,0
TMS340 COFF Macro Assembler Version 6.10     Tue Dec 19 01:45:15 2023
 Copyright (c) 1985-1991  Texas Instruments Incorporated 

name & team selection                                                PAGE   75

    3378                    
    3379                    
    3380 00018c50 000020a0"         .long   COL_NEJ,AND_NEJ
    3381 00018c90 00003a80"         .long   AND_NEJ,COL_NEJ
    3382 00018cd0 000020a0"         .long   COL_NEJ,MOR_NEJ
    3383 00018d10 000052b0"         .long   MOR_NEJ,COL_NEJ
    3384 00018d50 00003a80"         .long   AND_NEJ,MOR_NEJ
    3385 00018d90 000052b0"         .long   MOR_NEJ,AND_NEJ
    3386                    
    3387 00018dd0 00003a80"         .long   AND_NEJ,BEN_NEJ
    3388 00018e10 00003960"         .long   BEN_NEJ,AND_NEJ
    3389 00018e50 000052b0"         .long   MOR_NEJ,BEN_NEJ
    3390 00018e90 00003960"         .long   BEN_NEJ,MOR_NEJ
    3391 00018ed0 000020a0"         .long   COL_NEJ,BEN_NEJ
    3392 00018f10 00003960"         .long   BEN_NEJ,COL_NEJ
    3393                    
    3394 00018f50 00000000          .long   0,0
    3395 00018f90 00000000          .long   0,0
    3396 00018fd0 00000000          .long   0,0
    3397 00019010 00000000          .long   0,0
    3398 00019050 00000000          .long   0,0
    3399 00019090 00000000          .long   0,0
    3400 000190d0 00000000          .long   0,0
    3401 00019110 00000000          .long   0,0
    3402                    
    3403                    
    3404 00019150 00002400"         .long   EWG_NEY,MAS_NEY
    3405 00019190 000046e0"         .long   MAS_NEY,EWG_NEY
    3406 000191d0 00002400"         .long   EWG_NEY,STA_NEY
    3407 00019210 00004fe0"         .long   STA_NEY,EWG_NEY
    3408 00019250 000046e0"         .long   MAS_NEY,STA_NEY
    3409 00019290 00004fe0"         .long   STA_NEY,MAS_NEY
    3410                    
    3411 000192d0 000046e0"         .long   MAS_NEY,OAK_NEY
    3412 00019310 000037b0"         .long   OAK_NEY,MAS_NEY
    3413 00019350 00002400"         .long   EWG_NEY,OAK_NEY
    3414 00019390 000037b0"         .long   OAK_NEY,EWG_NEY
    3415 000193d0 00004fe0"         .long   STA_NEY,OAK_NEY
    3416 00019410 000037b0"         .long   OAK_NEY,STA_NEY
    3417                    
    3418 00019450 00002520"         .long   HPR_DAL,OAK_NEY
    3419 00019490 000037b0"         .long   OAK_NEY,HPR_DAL
    3420 000194d0 00002520"         .long   HPR_DAL,MAS_NEY
    3421 00019510 000046e0"         .long   MAS_NEY,HPR_DAL
    3422 00019550 00002520"         .long   HPR_DAL,STA_NEY
    3423 00019590 00004fe0"         .long   STA_NEY,HPR_DAL
    3424 000195d0 00002520"         .long   HPR_DAL,EWG_NEY
    3425 00019610 00002400"         .long   EWG_NEY,HPR_DAL
    3426                    
    3427                    
    3428 00019650 000041d0"         .long   HAR_ORL,AND_ORL
    3429 00019690 00003b10"         .long   AND_ORL,HAR_ORL
    3430 000196d0 000041d0"         .long   HAR_ORL,SKL_ORL
    3431 00019710 000030f0"         .long   SKL_ORL,HAR_ORL
    3432 00019750 00003b10"         .long   AND_ORL,SKL_ORL
TMS340 COFF Macro Assembler Version 6.10     Tue Dec 19 01:45:15 2023
 Copyright (c) 1985-1991  Texas Instruments Incorporated 

name & team selection                                                PAGE   76

    3433 00019790 000030f0"         .long   SKL_ORL,AND_ORL
    3434                    
    3435                    
    3436 000197d0 00000000          .long   0,0
    3437 00019810 00000000          .long   0,0
    3438 00019850 00000000          .long   0,0
    3439 00019890 00000000          .long   0,0
    3440 000198d0 00000000          .long   0,0
    3441 00019910 00000000          .long   0,0
    3442                    
    3443 00019950 00000000          .long   0,0
    3444 00019990 00000000          .long   0,0
    3445 000199d0 00000000          .long   0,0
    3446 00019a10 00000000          .long   0,0
    3447 00019a50 00000000          .long   0,0
    3448 00019a90 00000000          .long   0,0
    3449 00019ad0 00000000          .long   0,0
    3450 00019b10 00000000          .long   0,0
    3451                    
    3452                    
    3453 00019b50 00005070"         .long   WEA_PHL,BRA_PHL
    3454 00019b90 00003d50"         .long   BRA_PHL,WEA_PHL
    3455                    
    3456 00019bd0 00000000          .long   0,0
    3457 00019c10 00000000          .long   0,0
    3458 00019c50 00000000          .long   0,0
    3459 00019c90 00000000          .long   0,0
    3460                    
    3461 00019cd0 00000000          .long   0,0
    3462 00019d10 00000000          .long   0,0
    3463 00019d50 00000000          .long   0,0
    3464 00019d90 00000000          .long   0,0
    3465 00019dd0 00000000          .long   0,0
    3466 00019e10 00000000          .long   0,0
    3467                    
    3468 00019e50 00000000          .long   0,0
    3469 00019e90 00000000          .long   0,0
    3470 00019ed0 00000000          .long   0,0
    3471 00019f10 00000000          .long   0,0
    3472 00019f50 00000000          .long   0,0
    3473 00019f90 00000000          .long   0,0
    3474 00019fd0 00000000          .long   0,0
    3475 0001a010 00000000          .long   0,0
    3476                    
    3477                    
    3478 0001a050 00002010"         .long   BRK_PHX,MAJ_PHX
    3479 0001a090 000029a0"         .long   MAJ_PHX,BRK_PHX                 
    3480 0001a0d0 00002010"         .long   BRK_PHX,JOH_PHX                 
    3481 0001a110 000044a0"         .long   JOH_PHX,BRK_PHX                 
    3482 0001a150 000029a0"         .long   MAJ_PHX,JOH_PHX                 
    3483 0001a190 000044a0"         .long   JOH_PHX,MAJ_PHX                 
    3484                    
    3485                    
    3486 0001a1d0 00000000          .long   0,0
    3487 0001a210 00000000          .long   0,0
TMS340 COFF Macro Assembler Version 6.10     Tue Dec 19 01:45:15 2023
 Copyright (c) 1985-1991  Texas Instruments Incorporated 

name & team selection                                                PAGE   77

    3488 0001a250 00000000          .long   0,0
    3489 0001a290 00000000          .long   0,0
    3490 0001a2d0 00000000          .long   0,0
    3491 0001a310 00000000          .long   0,0
    3492 0001a350 00000000          .long   0,0
    3493 0001a390 00000000          .long   0,0
    3494 0001a3d0 00000000          .long   0,0
    3495 0001a410 00000000          .long   0,0
    3496 0001a450 00000000          .long   0,0
    3497 0001a490 00000000          .long   0,0
    3498 0001a4d0 00000000          .long   0,0
    3499 0001a510 00000000          .long   0,0
    3500                    
    3501                    
    3502 0001a550 00002250"         .long   DRX_PRT,POR_PRT
    3503 0001a590 00002d00"         .long   POR_PRT,DRX_PRT         
    3504 0001a5d0 00002250"         .long   DRX_PRT,ROB_PRT
    3505 0001a610 00004d10"         .long   ROB_PRT,DRX_PRT
    3506 0001a650 00002d00"         .long   POR_PRT,ROB_PRT         
    3507 0001a690 00004d10"         .long   ROB_PRT,POR_PRT
    3508                    
    3509 0001a6d0 000039f0"         .long   GRT_PRT,ROB_PRT         
    3510 0001a710 00004d10"         .long   ROB_PRT,GRT_PRT         
    3511 0001a750 000039f0"         .long   GRT_PRT,POR_PRT         
    3512 0001a790 00002d00"         .long   POR_PRT,GRT_PRT         
    3513 0001a7d0 000039f0"         .long   GRT_PRT,DRX_PRT         
    3514 0001a810 00002250"         .long   DRX_PRT,GRT_PRT         
    3515                    
    3516 0001a850 00000000          .long   0,0
    3517 0001a890 00000000          .long   0,0
    3518 0001a8d0 00000000          .long   0,0
    3519 0001a910 00000000          .long   0,0
    3520 0001a950 00000000          .long   0,0
    3521 0001a990 00000000          .long   0,0
    3522 0001a9d0 00000000          .long   0,0
    3523 0001aa10 00000000          .long   0,0
    3524                    
    3525 0001aa50 00004ec0"         .long   SIM_SAC,HUR_SAC
    3526 0001aa90 00004380"         .long   HUR_SAC,SIM_SAC
    3527 0001aad0 00004ec0"         .long   SIM_SAC,RIC_SAC
    3528 0001ab10 00004b60"         .long   RIC_SAC,SIM_SAC
    3529 0001ab50 00004380"         .long   HUR_SAC,RIC_SAC
    3530 0001ab90 00004b60"         .long   RIC_SAC,HUR_SAC
    3531                    
    3532 0001abd0 00004380"         .long   HUR_SAC,WEB_SAC
    3533 0001ac10 000033c0"         .long   WEB_SAC,HUR_SAC
    3534                    
    3535 0001ac50 00004380"         .long   HUR_SAC,TIS_SAC
    3536 0001ac90 00003330"         .long   TIS_SAC,HUR_SAC
    3537                    
    3538 0001acd0 00004ec0"         .long   SIM_SAC,TIS_SAC
    3539 0001ad10 00003330"         .long   TIS_SAC,SIM_SAC
    3540                    
    3541 0001ad50 00004b60"         .long   RIC_SAC,TIS_SAC
    3542 0001ad90 00003330"         .long   TIS_SAC,RIC_SAC
TMS340 COFF Macro Assembler Version 6.10     Tue Dec 19 01:45:15 2023
 Copyright (c) 1985-1991  Texas Instruments Incorporated 

name & team selection                                                PAGE   78

    3543                    
    3544 0001add0 000033c0"         .long   WEB_SAC,TIS_SAC
    3545 0001ae10 00003330"         .long   TIS_SAC,WEB_SAC
    3546                    
    3547 0001ae50 000033c0"         .long   WEB_SAC,RIC_SAC
    3548 0001ae90 00004b60"         .long   RIC_SAC,WEB_SAC
    3549                    
    3550 0001aed0 000033c0"         .long   WEB_SAC,SIM_SAC
    3551 0001af10 00004ec0"         .long   SIM_SAC,WEB_SAC
    3552                    
    3553                    
    3554 0001af50 00002f40"         .long   ROB_SAN,ROD_SAN
    3555 0001af90 00004da0"         .long   ROD_SAN,ROB_SAN
    3556 0001afd0 00002f40"         .long   ROB_SAN,ELS_SAN
    3557 0001b010 00004020"         .long   ELS_SAN,ROB_SAN
    3558 0001b050 00004da0"         .long   ROD_SAN,ELS_SAN
    3559 0001b090 00004020"         .long   ELS_SAN,ROD_SAN
    3560                    
    3561 0001b0d0 00000000          .long   0,0
    3562 0001b110 00000000          .long   0,0
    3563 0001b150 00000000          .long   0,0
    3564 0001b190 00000000          .long   0,0
    3565 0001b1d0 00000000          .long   0,0
    3566 0001b210 00000000          .long   0,0
    3567 0001b250 00000000          .long   0,0
    3568 0001b290 00000000          .long   0,0
    3569 0001b2d0 00000000          .long   0,0
    3570 0001b310 00000000          .long   0,0
    3571 0001b350 00000000          .long   0,0
    3572 0001b390 00000000          .long   0,0
    3573 0001b3d0 00000000          .long   0,0
    3574 0001b410 00000000          .long   0,0
    3575                    
    3576 0001b450 00002880"         .long   KMP_SEA,PAY_SEA
    3577 0001b490 00004a40"         .long   PAY_SEA,KMP_SEA                 
    3578 0001b4d0 00002880"         .long   KMP_SEA,GIL_SEA                 
    3579 0001b510 00002490"         .long   GIL_SEA,KMP_SEA                 
    3580 0001b550 00004a40"         .long   PAY_SEA,GIL_SEA                 
    3581 0001b590 00002490"         .long   GIL_SEA,PAY_SEA                 
    3582                    
    3583 0001b5d0 00002fd0"         .long   SCH_SEA,GIL_SEA                 
    3584 0001b610 00002490"         .long   GIL_SEA,SCH_SEA                 
    3585 0001b650 00002fd0"         .long   SCH_SEA,PAY_SEA                 
    3586 0001b690 00004a40"         .long   PAY_SEA,SCH_SEA                 
    3587 0001b6d0 00002fd0"         .long   SCH_SEA,KMP_SEA                 
    3588 0001b710 00002880"         .long   KMP_SEA,SCH_SEA                 
    3589                    
    3590 0001b750 00000000          .long   0,0
    3591 0001b790 00000000          .long   0,0
    3592 0001b7d0 00000000          .long   0,0
    3593 0001b810 00000000          .long   0,0
    3594 0001b850 00000000          .long   0,0
    3595 0001b890 00000000          .long   0,0
    3596 0001b8d0 00000000          .long   0,0
    3597 0001b910 00000000          .long   0,0
TMS340 COFF Macro Assembler Version 6.10     Tue Dec 19 01:45:15 2023
 Copyright (c) 1985-1991  Texas Instruments Incorporated 

name & team selection                                                PAGE   79

    3598                    
    3599                    
    3600 0001b950 00003690"         .long   MLN_UTA,STK_UTA
    3601 0001b990 00003210"         .long   STK_UTA,MLN_UTA
    3602 0001b9d0 00003690"         .long   MLN_UTA,BEN_UTA
    3603 0001ba10 00003cc0"         .long   BEN_UTA,MLN_UTA
    3604 0001ba50 00003210"         .long   STK_UTA,BEN_UTA
    3605 0001ba90 00003cc0"         .long   BEN_UTA,STK_UTA
    3606                    
    3607 0001bad0 00002640"         .long   HRN_PHL,BEN_UTA
    3608 0001bb10 00003cc0"         .long   BEN_UTA,HRN_PHL
    3609 0001bb50 00002640"         .long   HRN_PHL,STK_UTA
    3610 0001bb90 00003210"         .long   STK_UTA,HRN_PHL
    3611 0001bbd0 00002640"         .long   HRN_PHL,MLN_UTA
    3612 0001bc10 00003690"         .long   MLN_UTA,HRN_PHL
    3613                    
    3614 0001bc50 00000000          .long   0,0
    3615 0001bc90 00000000          .long   0,0
    3616 0001bcd0 00000000          .long   0,0
    3617 0001bd10 00000000          .long   0,0
    3618 0001bd50 00000000          .long   0,0
    3619 0001bd90 00000000          .long   0,0
    3620 0001bdd0 00000000          .long   0,0
    3621 0001be10 00000000          .long   0,0
    3622                    
    3623 0001be50 000038d0"         .long   GUG_WAS,ELL_WAS
    3624 0001be90 000040b0"         .long   ELL_WAS,GUG_WAS
    3625 0001bed0 000038d0"         .long   GUG_WAS,CHE_WAS
    3626 0001bf10 00003f00"         .long   CHE_WAS,GUG_WAS
    3627 0001bf50 000040b0"         .long   ELL_WAS,CHE_WAS
    3628 0001bf90 00003f00"         .long   CHE_WAS,ELL_WAS
    3629                    
    3630 0001bfd0 00000000          .long   0,0
    3631 0001c010 00000000          .long   0,0
    3632 0001c050 00000000          .long   0,0
    3633 0001c090 00000000          .long   0,0
    3634 0001c0d0 00000000          .long   0,0
    3635 0001c110 00000000          .long   0,0
    3636 0001c150 00000000          .long   0,0
    3637 0001c190 00000000          .long   0,0
    3638 0001c1d0 00000000          .long   0,0
    3639 0001c210 00000000          .long   0,0
    3640 0001c250 00000000          .long   0,0
    3641 0001c290 00000000          .long   0,0
    3642 0001c2d0 00000000          .long   0,0
    3643 0001c310 00000000          .long   0,0
    3644                    
    3645 0001c350 00003690"         .long   MLN_UTA,KMP_SEA
    3646 0001c390 00002f40"         .long   ROB_SAN,BRK_PHX
    3647 0001c3d0 00002250"         .long   DRX_PRT,HAR_ORL
    3648 0001c410 00002400"         .long   EWG_NEY,AND_NEJ
    3649 0001c450 000020a0"         .long   COL_NEJ,AND_ORL
    3650 0001c490 00003210"         .long   STK_UTA,JOH_PHX
    3651                    
    3652 0001c4d0 00002490"         .long   GIL_SEA,RIC_SAC
TMS340 COFF Macro Assembler Version 6.10     Tue Dec 19 01:45:15 2023
 Copyright (c) 1985-1991  Texas Instruments Incorporated 

name & team selection                                                PAGE   80

    3653 0001c510 00003d50"         .long   BRA_PHL,WEB_SAC
    3654 0001c550 00003f90"         .long   DUM_DET,STA_NEY
    3655 0001c590 00002b50"         .long   MUT_DEN,WLK_ATL
    3656 0001c5d0 000026d0"         .long   HRP_CLP,RID_MIN
    3657 0001c610 00003570"         .long   MIL_IND,JON_CHA
    3658                    
    3659 0001c650 00002be0"         .long   OLA_HOU,BAK_MLW
    3660 0001c690 00003ba0"         .long   ARM_CHI,MAX_HOU
    3661 0001c6d0 00004920"         .long   MOU_CHA,RCE_MIA
    3662 0001c710 000025b0"         .long   HRD_GLD,JAC_DAL
    3663 0001c750 00002c70"         .long   PIP_CHI,MIN_MIA
    3664 0001c790 000032a0"         .long   THM_DET,WEB_GLD
    3665 0001c7d0 00004650"         .long   MAS_DAL,WOR_LAK
    3666 0001c810 00002ac0"         .long   MUL_GLD,MAN_CLP
    3667                    
    3668                    
    3669                    
    3670                            .def    player_attribs
    3671                    
    3672 0001c850           player_attribs
    3673                              
    3674                    
    3675                    
    3676                    
    3677 0001c850     0007   .word  07,07,07,02
    3678 0001c890     0006   .word  06,04,05,07     ;DANNY MANNING     6-10 Fat (medium)
    3679                    
    3680 0001c8d0     0009   .word  09,07,02,05
    3681 0001c910     0001   .word  01,04,02,05     ;STACEY AUGMON         Skinny
    3682                    
    3683 0001c950     0006   .word  06,04,06,04
    3684 0001c990     0009   .word  09,00,09,01     ;KEVIN WILLIS          Fat (medium)
    3685                    
    3686                    
    3687                    
    3688 0001c9d0     0008   .word  08,07,08,06
    3689 0001ca10     0001   .word  01,06,02,05     ;DEE BROWN        6-1     Skinny
    3690                    
    3691 0001ca50     0005   .word  05,05,05,01
    3692 0001ca90     0008   .word  08,03,09,08     ;XAVIER McDANIEL  6-7     Skinny
    3693                    
    3694 0001cad0     0003   .word  03,07,02,05
    3695 0001cb10     0005   .word  05,06,04,04     ;KEVIN GAMBLE     6-5     Skinny
    3696                    
    3697                    
    3698                    
    3699 0001cb50     0007   .word  07,07,09,03
    3700 0001cb90     0009   .word  09,03,06,07     ;LARRY JOHNSON    6-7     Fat (medium)
    3701                    
    3702 0001cbd0     0007   .word  07,07,00,05
    3703 0001cc10     0002   .word  02,04,03,06     ;HERSEY HAWKINS    6-3 Skinny  
    3704                    
    3705 0001cc50     0007   .word  07,05,08,05
    3706 0001cc90     0009   .word  09,04,09,09     ;ALONZO MOURNING  6-10 (6-11)   Skinny
    3707                    
TMS340 COFF Macro Assembler Version 6.10     Tue Dec 19 01:45:15 2023
 Copyright (c) 1985-1991  Texas Instruments Incorporated 

name & team selection                                                PAGE   81

    3708                    
    3709                    
    3710 0001ccd0     0008   .word  08,06,10,07
    3711 0001cd10     0003   .word  03,09,05,05     ;SCOTTIE PIPPEN    6-7    Skinny
    3712                    
    3713 0001cd50     0008   .word  08,09,00,05
    3714 0001cd90     0000   .word  00,04,00,09     ;BJ ARMSTRONG      6-2    Skinny
    3715                    
    3716 0001cdd0     0006   .word  06,05,02,09
    3717 0001ce10     0004   .word  04,04,07,04     ;TONI KUKOC        6-11    Skinny
    3718                    
    3719 0001ce50     0006   .word  06,01,05,02
    3720 0001ce90     0009   .word  09,02,09,04     ;HORACE GRANT      6-10    Skinny (Medium)
    3721                    
    3722                    
    3723                    
    3724 0001ced0     0008   .word  08,09,00,08
    3725 0001cf10     0002   .word  02,10,00,09     ;MARK PRICE        6-0    Skinny
    3726                    
    3727 0001cf50     0007   .word  07,03,08,04
    3728 0001cf90     0006   .word  06,03,07,06     ;BRAD DAUGHERTY    7-0    Skinny (medium)
    3729                    
    3730 0001cfd0     0003   .word  03,04,07,03
    3731 0001d010     0007   .word  07,03,09,02     ;LARRY NANCE       6-10    Fat (medium)
    3732                    
    3733                    
    3734                    
    3735                    
    3736 0001d050     0008   .word  08,06,01,09
    3737 0001d090     0005   .word  05,05,03,06     ;JIM JACKSON       6-6    Fat (medium)
    3738                    
    3739 0001d0d0     0008   .word  08,08,07,04
    3740 0001d110     0008   .word  08,03,06,06     ;JAMAL MASHBURN    6-8    Skinny (Medium)
    3741                    
    3742                    
    3743                    
    3744 0001d150     0005   .word  05,01,08,01
    3745 0001d190     0008   .word  08,02,09,02     ;DIKEMBE MUTUMBO   7-2  Skinny (medium)
    3746                    
    3747 0001d1d0     0006   .word  06,05,06,03
    3748 0001d210     0005   .word  05,02,05,03     ;LAPHONSO ELLIS    6-8  Fat (medium)
    3749                    
    3750 0001d250     0007   .word  07,05,03,04
    3751 0001d290     0007   .word  07,03,03,01     ;RODNEY ROGERS     6-7   Skinny 
    3752                    
    3753                    
    3754                    
    3755 0001d2d0     0008   .word  08,08,00,08
    3756 0001d310     0001   .word  01,07,00,09     ;ISIAH THOMAS      6-1  Skinny
    3757                    
    3758 0001d350     0008   .word  08,07,00,05
    3759 0001d390     0003   .word  03,04,02,08     ;JOE DUMARS        6-3  Skinny (medium)
    3760                    
    3761 0001d3d0     0007   .word  07,06,06,05
    3762 0001d410     0004   .word  04,05,06,05     ;SEAN ELLIOT            6-8  Skinny
TMS340 COFF Macro Assembler Version 6.10     Tue Dec 19 01:45:15 2023
 Copyright (c) 1985-1991  Texas Instruments Incorporated 

name & team selection                                                PAGE   82

    3763                    
    3764 0001d450     0009   .word  09,05,00,06
    3765 0001d490     0002   .word  02,05,00,02     ;LINDSEY HUNTER    6-2  Skinny
    3766                    
    3767                    
    3768                    
    3769                    
    3770 0001d4d0     0009   .word  09,06,00,05
    3771 0001d510     0004   .word  04,08,00,06     ;TIM HARDAWAY  6-0      Skinny
    3772                    
    3773 0001d550     0004   .word  04,10,03,05
    3774 0001d590     0005   .word  05,04,04,09     ;CHRIS MULLIN  6-7      Skinny (medium)
    3775                    
    3776 0001d5d0     0008   .word  08,04,08,07
    3777 0001d610     0009   .word  09,03,08,00     ;CHRIS WEBBER  6-9      Fat (medium)
    3778                    
    3779                    
    3780                    
    3781 0001d650     0008   .word  08,02,09,04
    3782 0001d690     0008   .word  08,03,09,08     ;HAKEEM OLAJUWON   7-0  Fat (medium)
    3783                    
    3784 0001d6d0     0007   .word  07,04,01,07
    3785 0001d710     0000   .word  00,05,03,02     ;VERNON MAXWELL    6-4  Skinny
    3786                    
    3787 0001d750     0007   .word  07,06,07,05
    3788 0001d790     0006   .word  06,04,07,04     ;ROBERT HORRY      6-10 Skinny
    3789                    
    3790 0001d7d0     0007   .word  07,08,01,07
    3791 0001d810     0002   .word  02,04,03,04     ;KENNY SMITH       6-3  Skinny
    3792                    
    3793                    
    3794                    
    3795 0001d850     0007   .word  07,09,05,06
    3796 0001d890     0004   .word  04,05,04,08     ;REGGIE MILLER     6-7  Skinny
    3797                    
    3798 0001d8d0     0006   .word  06,04,05,04
    3799 0001d910     0005   .word  05,01,06,02     ;MALIK SEALY       6-8  Skinny
    3800                    
    3801 0001d950     0002   .word  02,02,04,03
    3802 0001d990     0007   .word  07,01,08,06     ;RIK SMITS         7-4  Skinny
    3803                    
    3804                    
    3805                    
    3806 0001d9d0     0008   .word  08,06,10,02
    3807 0001da10     0003   .word  03,04,08,08     ;DOMINIQUE WILKINS     Skinny
    3808                    
    3809 0001da50     0008   .word  08,07,04,03
    3810 0001da90     0004   .word  04,08,07,06     ;RON HARPER        6-6  Skinny (medium)
    3811                    
    3812 0001dad0     0001   .word  01,04,03,03
    3813 0001db10     0009   .word  09,02,08,02     ;STANLEY ROBERTS   7-0  Fat (medium)
    3814                    
    3815                    
    3816                    
    3817 0001db50     0008   .word  08,07,04,04
TMS340 COFF Macro Assembler Version 6.10     Tue Dec 19 01:45:15 2023
 Copyright (c) 1985-1991  Texas Instruments Incorporated 

name & team selection                                                PAGE   83

    3818 0001db90     0000   .word  00,04,02,08     ;ANTHONY PEELER    6-4  Skinny
    3819                    
    3820 0001dbd0     0003   .word  03,05,07,02
    3821 0001dc10     0006   .word  06,04,07,08     ;VLADE DIVAC       7-1  Skinny (medium)
    3822                    
    3823 0001dc50     0007   .word  07,04,06,02
    3824 0001dc90     0008   .word  08,02,09,06     ;ELDON CAMPBELL    6-11 Skinny
    3825                    
    3826                    
    3827 0001dcd0     0005   .word  05,07,07,05
    3828 0001dd10     0004   .word  04,05,05,06     ;JAMES WORTHY      6-9  Fat (medium)
    3829                    
    3830                    
    3831                    
    3832 0001dd50     0007   .word  07,09,05,02
    3833 0001dd90     0003   .word  03,04,04,08     ;GLEN RICE         6-8  Fat (medium)
    3834                    
    3835 0001ddd0     0003   .word  03,03,08,04
    3836 0001de10     0006   .word  06,03,08,03     ;RONY SEIKALY      6-11 Skinny (medium)
    3837                    
    3838 0001de50     0009   .word  09,05,09,07
    3839 0001de90     0002   .word  02,07,06,08     ;HAROLD MINER      6-5  Fat (medium)
    3840                    
    3841                    
    3842                    
    3843 0001ded0     0007   .word  07,04,07,01
    3844 0001df10     0002   .word  02,02,09,02     ;VIN BAKER      6-11    Skinny
    3845                    
    3846 0001df50     0004   .word  04,04,03,05
    3847 0001df90     0005   .word  05,04,04,05     ;BLUE EDWARDS   6-4     Fat  (medium)
    3848                    
    3849 0001dfd0     0006   .word  06,04,05,06
    3850 0001e010     0004   .word  04,06,05,05     ;TODD DAY       6-6     Skinny (medium)
    3851                    
    3852 0001e050     0002   .word  02,04,02,01
    3853 0001e090     0008   .word  08,01,08,05     ;BRAD LOHAUS    6-11    Skinny  (medium)
    3854                    
    3855                    
    3856                    
    3857 0001e0d0     0005   .word  05,06,04,00
    3858 0001e110     0004   .word  04,03,06,08     ;CHRISTIAN LAETNER   6-11  Skinny  (medium)
    3859                    
    3860 0001e150     0005   .word  05,09,05,00
    3861 0001e190     0007   .word  07,04,03,09     ;CHUCK PERSON        6-8  Fat     (medium)
    3862                    
    3863 0001e1d0     0009   .word  09,04,09,05
    3864 0001e210     0006   .word  06,05,05,05     ;ISIAH J.R. RIDER    6-5 Skinny  (medium)
    3865                    
    3866                    
    3867                    
    3868 0001e250     0007   .word  07,07,08,02
    3869 0001e290     0009   .word  09,02,08,08     ;DERRICK COLEMAN      6-10   Fat
    3870                    
    3871 0001e2d0     0009   .word  09,07,00,09
    3872 0001e310     0002   .word  02,07,01,05     ;KENNY ANDERSON       6-1   Skinny
TMS340 COFF Macro Assembler Version 6.10     Tue Dec 19 01:45:15 2023
 Copyright (c) 1985-1991  Texas Instruments Incorporated 

name & team selection                                                PAGE   84

    3873                    
    3874 0001e350     0002   .word  02,04,04,04
    3875 0001e390     0009   .word  09,02,08,02     ;CHRIS MORRIS         6-8   Fat
    3876                    
    3877 0001e3d0     0002   .word  02,04,04,03
    3878 0001e410     0009   .word  09,02,06,02     ;BENOIT BENJAMIN      7-0   Fat
    3879                    
    3880                    
    3881                    
    3882 0001e450     0007   .word  07,04,09,02
    3883 0001e490     0008   .word  08,04,09,09     ;PATRICK EWING        7-0    Fat
    3884                    
    3885 0001e4d0     0004   .word  04,02,04,06
    3886 0001e510     0009   .word  09,03,07,03     ;ANTHONY MASON         6-7    Skinny (medium)
    3887                    
    3888 0001e550     0008   .word  08,06,03,06
    3889 0001e590     0002   .word  02,06,01,06     ;JOHN STARKS           6-5    Skinny
    3890                    
    3891 0001e5d0     0003   .word  03,01,05,04
    3892 0001e610     0009   .word  09,01,08,01     ;CHARLES OAKLEY        6-9    Fat
    3893                    
    3894 0001e650     0005   .word  05,05,02,05
    3895 0001e690     0005   .word  05,04,03,06     ;DEREK HARPER      6-4    Skinny
    3896                    
    3897                    
    3898                    
    3899                    
    3900 0001e6d0     0009   .word  09,08,03,08
    3901 0001e710     0002   .word  02,07,04,05     ;ANFERNEE (Penny) HARDAWAY   6-7 Skinny
    3902                    
    3903 0001e750     0007   .word  07,09,05,05
    3904 0001e790     0006   .word  06,08,06,04     ;NICK ANDERSON           6-6   Fat (medium)
    3905                    
    3906 0001e7d0     0007   .word  07,09,00,07
    3907 0001e810     0001   .word  01,08,01,06     ;SCOTT SKILES           6-1    Skinny
    3908                    
    3909                                            ;not on NBA roster
    3910                    
    3911                    
    3912                    
    3913 0001e850     0005   .word  05,06,06,02
    3914 0001e890     0008   .word  08,03,08,02     ;CLARENCE WEATHERSPOON   6-7    Fat (mediumn)
    3915                    
    3916 0001e8d0     0007   .word  07,03,09,06
    3917 0001e910     0005   .word  05,07,09,01     ;SHAWN BRADLEY  7-6     Skinny
    3918                    
    3919                    
    3920                    
    3921                    
    3922 0001e950     0007   .word  07,07,09,06                                     
    3923 0001e990     0009   .word  09,07,07,09     ;CHARLES BARKLEY      6-6  (6-4) Fat
    3924                    
    3925 0001e9d0     0005   .word  05,08,04,04
    3926 0001ea10     0005   .word  05,03,03,09     ;DAN MAJERLE          6-6  Skinny  (medium)
    3927                    
TMS340 COFF Macro Assembler Version 6.10     Tue Dec 19 01:45:15 2023
 Copyright (c) 1985-1991  Texas Instruments Incorporated 

name & team selection                                                PAGE   85

    3928 0001ea50     0008   .word  08,07,00,08
    3929 0001ea90     0001   .word  01,07,00,01     ;KEVIN JOHNSON        6-1  Skinny
    3930                    
    3931                    
    3932                    
    3933 0001ead0     0007   .word  07,06,09,05
    3934 0001eb10     0004   .word  04,05,06,06     ;CLYDE DREXLER       6-7        Skinny (medium)
    3935                    
    3936 0001eb50     0008   .word  08,08,01,08
    3937 0001eb90     0004   .word  04,08,00,03     ;TERRY PORTER        6-3        Skinny (medium)
    3938                    
    3939 0001ebd0     0005   .word  05,03,07,04
    3940 0001ec10     0009   .word  09,03,09,02     ;CLIFF ROBINSON      6-10       Skinny (medium)
    3941                    
    3942 0001ec50     0005   .word  05,04,06,04
    3943 0001ec90     0007   .word  07,03,07,06     ;HARVEY GRANT        6-9        Skinny (medium)
    3944                    
    3945                    
    3946                    
    3947 0001ecd0     0005   .word  05,01,05,06
    3948 0001ed10     0003   .word  03,06,05,04     ;LIONEL SIMMONS        6-7      Skinny  
    3949                    
    3950 0001ed50     0009   .word  09,06,00,08
    3951 0001ed90     0002   .word  02,09,00,08     ;BOBBY HURLEY          6-0      Skinny
    3952                    
    3953 0001edd0     0007   .word  07,09,03,06
    3954 0001ee10     0008   .word  08,05,02,07     ;MITCH RICHMOND        6-5      Skinny (medium)
    3955                    
    3956 0001ee50     0003   .word  03,03,08,04
    3957 0001ee90     0009   .word  09,02,05,06     ;WAYMON TISDALE         6-9     Fat
    3958                    
    3959 0001eed0     0009   .word  09,06,09,03
    3960 0001ef10     0000   .word  00,07,00,04     ;SPUDD WEBB             5-7      Skinny
    3961                    
    3962                    
    3963                    
    3964 0001ef50     0007   .word  07,03,08,05
    3965 0001ef90     0007   .word  07,03,09,07     ;DAVID ROBINSON         7-1  Skinny (medium)
    3966                    
    3967 0001efd0     0008   .word  08,02,07,05
    3968 0001f010     0009   .word  09,07,09,04     ;DENNIS RODMAN          6-8  Skinny (medium)
    3969                    
    3970 0001f050     0004   .word  04,09,02,05
    3971 0001f090     0005   .word  05,05,05,05     ;DALE ELLIS             6-7  Skinny
    3972                    
    3973                    
    3974                    
    3975 0001f0d0     0008   .word  08,05,10,03
    3976 0001f110     0008   .word  08,03,08,06     ;SHAWN KEMP             6-10 Skinny (medium)
    3977                    
    3978 0001f150     0008   .word  08,05,01,08
    3979 0001f190     0005   .word  05,07,01,04     ;GARY PAYTON            6-4   Skinny
    3980                    
    3981 0001f1d0     0007   .word  07,07,07,06
    3982 0001f210     0006   .word  06,07,07,06     ;KENDALL GILL     6-5     Skinny
TMS340 COFF Macro Assembler Version 6.10     Tue Dec 19 01:45:15 2023
 Copyright (c) 1985-1991  Texas Instruments Incorporated 

name & team selection                                                PAGE   86

    3983                    
    3984 0001f250     0003   .word  03,06,04,05
    3985 0001f290     0008   .word  08,04,06,06     ;DETLEF SCHREMPF   6-10 Skinny (medium)
    3986                    
    3987                    
    3988                    
    3989 0001f2d0     0007   .word  07,04,09,05
    3990 0001f310     0009   .word  09,03,08,08     ;KARL MALONE            6-9 Fat (medium)
    3991                    
    3992 0001f350     0008   .word  08,09,00,09
    3993 0001f390     0000   .word  00,09,00,06     ;JOHN STOCKTON          6-1 Skinny
    3994                    
    3995 0001f3d0     0005   .word  05,04,03,03
    3996 0001f410     0004   .word  04,04,06,03     ;DAVID BENOIT           6-8 Skinny
    3997                    
    3998 0001f450     0006   .word  06,08,00,07
    3999 0001f490     0003   .word  03,04,04,06     ;JEFF HORNACEK   6-4    Fat (medium)
    4000                    
    4001                    
    4002                    
    4003 0001f4d0     0007   .word  07,07,07,05
    4004 0001f510     0008   .word  08,04,05,04     ;TOM GUGLIOTTA      6-10   Skinny
    4005                    
    4006 0001f550     0005   .word  05,02,06,03
    4007 0001f590     0008   .word  08,01,09,05     ;PERVIS ELLISON     6-10   Fat (medium)
    4008                    
    4009 0001f5d0     0008   .word  08,08,03,05
    4010 0001f610     0002   .word  02,07,04,08     ;CALBERT CHEANEY    6-7    Skinny (medium)
    4011                    
    4012                    
    4013                    
    4014                    
    4015 0001f650     0007   .word  07,07,09,05
    4016 0001f690     0008   .word  08,04,05,04     ;SCORPION
    4017                    
    4018 0001f6d0     0008   .word  08,06,09,03
    4019 0001f710     0008   .word  08,01,09,05     ;RAIDEN
    4020                    
    4021 0001f750     0007   .word  07,08,09,05
    4022 0001f790     0002   .word  02,07,04,08     ;REPTILE
    4023                    
    4024 0001f7d0     0008   .word  08,08,09,05
    4025 0001f810     0005   .word  05,07,04,02     ;SUB ZERO
    4026                    
    4027 0001f850     0008   .word  08,09,03,05
    4028 0001f890     0002   .word  02,03,01,08     ;HOSKINS
    4029                    
    4030 0001f8d0     0009   .word  09,08,09,07
    4031 0001f910     0003   .word  03,08,02,08     ;OLIVIA
    4032                    
    4033 0001f950     0009   .word  09,09,09,09
    4034 0001f990     0009   .word  09,09,09,09     ;TURMELL
    4035                    
    4036 0001f9d0     0007   .word  07,07,07,07
    4037 0001fa10     0007   .word  07,07,07,07     ;TURMELL
TMS340 COFF Macro Assembler Version 6.10     Tue Dec 19 01:45:15 2023
 Copyright (c) 1985-1991  Texas Instruments Incorporated 

name & team selection                                                PAGE   87

    4038                    
    4039 0001fa50     0007   .word  07,07,07,07
    4040 0001fa90     0007   .word  07,07,07,07     ;TURMELL
    4041                    
    4042 0001fad0     0007   .word  07,07,07,07
    4043 0001fb10     0007   .word  07,07,07,07     ;TURMELL
    4044                    
    4045 0001fb50     0007   .word  07,07,07,07
    4046 0001fb90     0007   .word  07,07,07,07     ;TURMELL
    4047                    
    4048 0001fbd0     0007   .word  07,07,07,07
    4049 0001fc10     0007   .word  07,07,07,07     ;TURMELL
    4050                    
    4051 0001fc50     0007   .word  07,07,07,07
    4052 0001fc90     0007   .word  07,07,07,07     ;TURMELL
    4053                    
    4054 0001fcd0     0007   .word  07,07,07,07
    4055 0001fd10     0007   .word  07,07,07,07     ;TURMELL
    4056                    
    4057 0001fd50     0007   .word  07,07,07,07
    4058 0001fd90     0007   .word  07,07,07,07     ;TURMELL
    4059                    
    4060 0001fdd0     0007   .word  07,07,07,07
    4061 0001fe10     0007   .word  07,07,07,07     ;TURMELL
    4062                    
    4063 0001fe50     0007   .word  07,07,07,07
    4064 0001fe90     0007   .word  07,07,07,07     ;TURMELL
    4065                    
    4066 0001fed0     0007   .word  07,07,07,07
    4067 0001ff10     0007   .word  07,07,07,07     ;TURMELL
    4068                    
    4069 0001ff50     0007   .word  07,07,07,07
    4070 0001ff90     0007   .word  07,07,07,07     ;TURMELL
    4071                    
    4072 0001ffd0     0007   .word  07,07,07,07
    4073 00020010     0007   .word  07,07,07,07     ;TURMELL
    4074                    
    4075 00020050     0007   .word  07,07,07,07
    4076 00020090     0007   .word  07,07,07,07     ;TURMELL
    4077                    
    4078 000200d0     0007   .word  07,07,07,07
    4079 00020110     0007   .word  07,07,07,07     ;TURMELL
    4080                    
    4081 00020150     0007   .word  07,07,07,07
    4082 00020190     0007   .word  07,07,07,07     ;TURMELL
    4083                    
    4084 000201d0     0007   .word  07,07,07,07
    4085 00020210     0007   .word  07,07,07,07     ;TURMELL
    4086                    
    4087 00020250     0007   .word  07,07,07,07
    4088 00020290     0007   .word  07,07,07,07     ;TURMELL
    4089                    
    4090 000202d0     0007   .word  07,07,07,07
    4091 00020310     0007   .word  07,07,07,07     ;TURMELL
    4092                    
TMS340 COFF Macro Assembler Version 6.10     Tue Dec 19 01:45:15 2023
 Copyright (c) 1985-1991  Texas Instruments Incorporated 

name & team selection                                                PAGE   88

    4093 00020350     0007   .word  07,07,07,07
    4094 00020390     0007   .word  07,07,07,07     ;TURMELL
    4095                    
    4096 000203d0     0007   .word  07,07,07,07
    4097 00020410     0007   .word  07,07,07,07     ;TURMELL
    4098                    
    4099 00020450     0007   .word  07,07,07,07
    4100 00020490     0007   .word  07,07,07,07     ;TURMELL
    4101                    
    4102 000204d0     0007   .word  07,07,07,07
    4103 00020510     0007   .word  07,07,07,07     ;TURMELL
    4104                    
    4105 00020550     0007   .word  07,07,07,07
    4106 00020590     0007   .word  07,07,07,07     ;TURMELL
    4107                    
    4108 000205d0     0007   .word  07,07,07,07
    4109 00020610     0007   .word  07,07,07,07     ;TURMELL
    4110                    
    4111 00020650     0007   .word  07,07,07,07
    4112 00020690     0007   .word  07,07,07,07     ;TURMELL
    4113                    
    4114 000206d0     0007   .word  07,07,07,07
    4115 00020710     0007   .word  07,07,07,07     ;TURMELL
    4116                    
    4117 00020750     0007   .word  07,07,07,07
    4118 00020790     0007   .word  07,07,07,07     ;TURMELL
    4119                    
    4120                    
    4121                    
    4122 000207d0            SUBR   check_suckup
    4123                    
    4124 000207d0     05a0          move    @gmqrtr,a0
         000207e0 00000000! 
    4125 00020800     0b40          cmpi    2,a0
         00020810     fffd  
    4126 00020820     ca20          jrz     nfxanot_enough
    4127                    
    4128 00020830     1a40          movk    ADJFREPL,a0
    4129 00020840     0d5f          calla   GET_ADJ         ;SEE IF FREEPLAY......(Z BIT CLEAR IF SO!)
         00020850 00000000! 
    4130 00020870     cb1b          jrnz    nfxafree_play
    4131                    
    4132 00020880     0d5f          calla   CRED_P                  ;get number credits
         00020890 00000000! 
    4133 000208b0     4c03          move    a0,a3
    4134 000208c0     09c0          movi    ADJCSTRT,a0             ;# credits to start
         000208d0     000b  
    4135 000208e0     0d5f          calla   GET_ADJ
         000208f0 00000000! 
    4136 00020910     5a03          divu    a0,a3                   ;credits / credits to continue
    4137 00020920     4c63          move    a3,a3
    4138 00020930     ca0f          jrz     nfxanot_enough
    4139                    
    4140 00020940     5684          clr     a4
    4141 00020950           nfxanext
TMS340 COFF Macro Assembler Version 6.10     Tue Dec 19 01:45:15 2023
 Copyright (c) 1985-1991  Texas Instruments Incorporated 

name & team selection                                                PAGE   89

    4142 00020950     05a0          move    @PSTATUS,a0
         00020960 00000000! 
    4143 00020980     4a80          btst    a4,a0
    4144 00020990     ca05          jrz     nfxano_player
    4145                    
    4146 000209a0     05a0          move    @game_purchased,a0
         000209b0 00000000! 
    4147 000209d0     4a80          btst    a4,a0
    4148 000209e0     ca07          jrz     nfxanot_purchased
    4149                    
    4150 000209f0           nfxano_player
    4151 000209f0     1024          inc     a4
    4152 00020a00     0b44          cmpi    4,a4
         00020a10     fffb  
    4153 00020a20     c4f2          jrlt    nfxanext
    4154                    
    4155 00020a30           nfxanot_enough                  ;to continue
    4156 00020a30           nfxafree_play                   ;so no suckup required
    4157 00020a30     1820          movk    1,a0
    4158 00020a40     4c00          move    a0,a0
    4159 00020a50     0960          rets
    4160                    
    4161                    
    4162 00020a60           nfxanot_purchased
    4163 00020a60     5600          clr     a0
    4164                    
    4165 00020a70     0960          rets
    4166                    
    4167                    
    4168                            .def    attrib_off
    4169                            .def    attrib_on
    4170                            .def    update_attribs
    4171                    
    4172 00020a80           attrib_off
    4173 00020a80                   PUSH    a8
    4174 00020a90     1920          movk    9,a0
    4175 00020aa0           nfxaatlp1
    4176 00020aa0     9648          move    *a2+,a8,L
    4177 00020ab0                   PUSH    a0,a2
    4178 00020ad0     0d5f          calla   obj_off
         00020ae0 00000000! 
    4179 00020b00                   PULL    a0,a2
    4180 00020b20     3d20          dsj     a0,nfxaatlp1
    4181 00020b30                   PULL    a8
    4182 00020b40     0960          rets
    4183                    
    4184 00020b50           attrib_on
    4185 00020b50                   PUSH    a8
    4186 00020b60     1920          movk    9,a0
    4187 00020b70           nfxaatlp2
    4188 00020b70     9648          move    *a2+,a8,L
    4189 00020b80                   PUSH    a0,a2
    4190 00020ba0     0d5f          calla   obj_on
         00020bb0 00000000! 
    4191 00020bd0                   PULL    a0,a2
TMS340 COFF Macro Assembler Version 6.10     Tue Dec 19 01:45:15 2023
 Copyright (c) 1985-1991  Texas Instruments Incorporated 

name & team selection                                                PAGE   90

    4192 00020bf0     3d20          dsj     a0,nfxaatlp2
    4193 00020c00                   PULL    a8
    4194 00020c10     0960          rets
    4195                    
    4196 00020c20           update_attribs
    4197 00020c20     1900          movk    8,a0
    4198 00020c30           nfxaudlp
    4199 00020c30     9768          move    *a11+,a8,L
    4200 00020c40     9541          move    *a10+,a1
    4201 00020c50                   PUSH    a0,a10,a11
    4202                    
    4203 00020c70     4cc6          move    a6,a6
    4204 00020c80     ce01          jrn     nfxanorm
    4205 00020c90     1961          movk    11,a1
    4206 00020ca0           nfxanorm
    4207                    
    4208                    
    4209 00020ca0     4c20          move    a1,a0
    4210 00020cb0     24a0          sll     5,a0
    4211 00020cc0     0b20          addi    attrib_pals,a0
         00020cd0 00020e70' 
    4212 00020cf0     8600          move    *a0,a0,L
    4213 00020d00                   PUSH    a1
    4214 00020d10     0d5f          calla   pal_getf
         00020d20 00000000! 
    4215 00020d40                   PULL    a1
    4216 00020d50     b208          move    a0,*a8(OPAL),L          ;Set pallette & constant
         00020d60     0150  
    4217                    
    4218 00020d70     24a1          sll     5,a1                    ;x32
    4219 00020d80     0b21          addi    attrib_imgs,a1
         00020d90 00020ff0' 
    4220                    
    4221 00020db0     8620          move    *a1,a0,L
    4222 00020dc0     09e1          movi    DMAWNZ,a1               ;DMA flags
         00020dd0 00008002  
    4223 00020df0     0d5f          calla   obj_aniq                ;change object image
         00020e00 00000000! 
    4224 00020e20                   PULL    a0,a10,a11
    4225 00020e40     0d80          dsj     a0,nfxaudlp
         00020e50     ffdd  
    4226 00020e60     0960          rets
    4227                    
    4228 00020e70           attrib_pals
    4229 00020e70 00000000!         .long   scoreprd,scoreprd
    4230 00020eb0 00000000!         .long   scoreprd,scorepw
    4231 00020ef0 00000000!         .long   scorepw,scorepw
    4232 00020f30 00000000!         .long   scorepw,scorepw
    4233 00020f70 00000000!         .long   scorepg,scorepg
    4234 00020fb0 00000000!         .long   scorepg,scorepw
    4235                    
    4236 00020ff0           attrib_imgs
    4237 00020ff0 00000000!         .long   font60,font61
    4238 00021030 00000000!         .long   font62,font63
    4239 00021070 00000000!         .long   font64,font65
TMS340 COFF Macro Assembler Version 6.10     Tue Dec 19 01:45:15 2023
 Copyright (c) 1985-1991  Texas Instruments Incorporated 

name & team selection                                                PAGE   91

    4240 000210b0 00000000!         .long   font66,font67
    4241 000210f0 00000000!         .long   font68,font69
    4242 00021130 00000000!         .long   font69,font6?
    4243                    
    4244                    
    4245                    
    4246 00021170            SUBR   del_box_imgs
    4247                    
    4248 00021170     09c0          movi    CLSDEAD|123,a0
         00021180     207b  
    4249 00021190     0d5f          calla   obj_del1c               ;delete text cpu subs
         000211a0 00000000! 
    4250                    
    4251 000211c0     07a0          move    @teamset1_obj,a0,L
         000211d0 00000000! 
    4252 000211f0     0d5f          calla   DELOBJ  
         00021200 00000000! 
    4253 00021220     07a0          move    @teamset2_obj,a0,L
         00021230 00000000! 
    4254 00021250     0d5f          calla   DELOBJ  
         00021260 00000000! 
    4255 00021280     07a0          move    @name1_obj,a0,L
         00021290 00000000! 
    4256 000212b0     0d5f          calla   DELOBJ  
         000212c0 00000000! 
    4257 000212e0     07a0          move    @name2_obj,a0,L
         000212f0 00000000! 
    4258 00021310     0d5f          calla   DELOBJ  
         00021320 00000000! 
    4259 00021340     07a0          move    @name3_obj,a0,L
         00021350 00000000! 
    4260 00021370     0d5f          calla   DELOBJ  
         00021380 00000000! 
    4261 000213a0     07a0          move    @name4_obj,a0,L
         000213b0 00000000! 
    4262 000213d0     0d5f          calla   DELOBJ  
         000213e0 00000000! 
    4263                    
    4264 00021400     192b          movk    9,a11
    4265 00021410     09ea          movi    attrib1_obj,a10
         00021420 00000000! 
    4266 00021440     09e9          movi    attrib2_obj,a9
         00021450 00000000! 
    4267 00021470     09e8          movi    attrib3_obj,a8
         00021480 00000000! 
    4268 000214a0     09e7          movi    attrib4_obj,a7
         000214b0 00000000! 
    4269                    
    4270 000214d0     9740  nfxalp  move    *a10+,a0,L
    4271 000214e0     0d5f          calla   DELOBJ
         000214f0 00000000! 
    4272 00021510     9720          move    *a9+,a0,L
    4273 00021520     0d5f          calla   DELOBJ
         00021530 00000000! 
    4274 00021550     9700          move    *a8+,a0,L
TMS340 COFF Macro Assembler Version 6.10     Tue Dec 19 01:45:15 2023
 Copyright (c) 1985-1991  Texas Instruments Incorporated 

name & team selection                                                PAGE   92

    4275 00021560     0d5f          calla   DELOBJ
         00021570 00000000! 
    4276 00021590     96e0          move    *a7+,a0,L
    4277 000215a0     0d5f          calla   DELOBJ
         000215b0 00000000! 
    4278 000215d0     3e2b          dsjs    a11,nfxalp
    4279                    
    4280 000215e0     09ee          movi    BAKLST,a14
         000215f0 00000000! 
    4281                    
    4282 00021610     4dc3  nfxalp2 move    a14,a3          ;A3=*Prev
    4283 00021620     87ce          move    *a14,a14,L      ;A14=*Next
    4284 00021630     ca12          jrz     nfxax
    4285 00021640     b5c2  nfxacmp move    *a14(OZPOS),a2
         00021650     00d0  
    4286 00021660     0b42          cmpi    60,a2
         00021670     ffc3  
    4287 00021680     ca03          jrz     nfxakil
    4288 00021690     0b42          cmpi    61,a2
         000216a0     ffc2  
    4289 000216b0     cbf5          jrne    nfxalp2
    4290 000216c0           nfxakil
    4291                    
    4292 000216c0     8bc3          move    *a14,*a3,L      ;Unlink from obj list
    4293                    
    4294 000216d0     d60e          move    @OFREE,*a14+,L  ;Add to free list
         000216e0 00000000! 
    4295 00021700     140e          subk    32,a14
    4296 00021710     078e          move    a14,@OFREE,L
         00021720 00000000! 
    4297 00021740     866e          move    *a3,a14,L
    4298 00021750     cbee          jrnz    nfxacmp
    4299 00021760           nfxax
    4300 00021760     07a0          move    @credit1_obj,a0,L
         00021770 00000000! 
    4301 00021790     0d5f          calla   DELOBJ
         000217a0 00000000! 
    4302 000217c0     07a0          move    @credit2_obj,a0,L
         000217d0 00000000! 
    4303 000217f0     0d5f          calla   DELOBJ
         00021800 00000000! 
    4304 00021820     07a0          move    @credit3_obj,a0,L
         00021830 00000000! 
    4305 00021850     0d5f          calla   DELOBJ
         00021860 00000000! 
    4306                            
    4307 00021880     5600          clr     a0
    4308 00021890     0d3f          callr   create_credits
         000218a0     de75! 
    4309                    
    4310 000218b0     0960          rets
    4311                    
    4312                    
    4313 000218c0            SUBR   brown_shadow
    4314                    
TMS340 COFF Macro Assembler Version 6.10     Tue Dec 19 01:45:15 2023
 Copyright (c) 1985-1991  Texas Instruments Incorporated 

name & team selection                                                PAGE   93

    4315 000218c0     0960          rets
    4316                    
    4317 000218d0     09e0          movi    NBAPAL,a0
         000218e0 00000000! 
    4318 00021900     0d5f          calla   pal_find
         00021910 00000000! 
    4319 00021930     0b80          andi    0ff00h,a0
         00021940 ffff00ff  
    4320 00021960     4c0a          move    a0,a10
    4321                    
    4322                    
    4323                    
    4324 00021970     4d41          move    a10,a1                  ;dest pal
    4325 00021980     0ba1          ori     52,a1   ;26*16,a1       ;26
         00021990 00000034  
    4326 000219b0     09e0          movi    fepzbrown_shad,a0               ;pal data
         000219c0 00021a30' 
    4327 000219e0     1862          movk    3,a2                    ;3 colours
    4328 000219f0     0d5f          calla   pal_set
         00021a00 00000000! 
    4329 00021a20     0960          rets
    4330                    
    4331 00021a30           fepzbrown_shad
    4332 00021a30     2ca0          .word   11<<10+5<<5+0
    4333 00021a40     2460          .word   9<<10+3<<5+0
    4334 00021a50     1c40          .word   7<<10+2<<5+0
    4335                    
    4336 00021a60           obj_ckpal
    4337 00021a60     09ee          movi    OBJLST,a14
         00021a70 00000000! 
    4338 00021a90     09e2          movi    kp_ram,a2
         00021aa0 00000000! 
    4339 00021ac0     5621          clr     a1
    4340 00021ad0     8222          move    a1,*a2,L
    4341                    
    4342 00021ae0           fepzlp
    4343 00021ae0     87ce          move    *a14,a14,L      ;A14=*Next
    4344 00021af0     ca08          jrz     fepzx
    4345 00021b00     b5c1          move    *a14(OPAL),a1
         00021b10     0150  
    4346 00021b20     4801          cmp     a0,a1
    4347 00021b30     cbfa          jrne    fepzlp
    4348                    
    4349 00021b40     93c2          move    a14,*a2+,L
    4350 00021b50     5621          clr     a1
    4351 00021b60     8222          move    a1,*a2,L
    4352 00021b70     c0f6          jruc    fepzlp
    4353                    
    4354 00021b80           fepzx
    4355 00021b80     09e2          movi    kp_ram,a2
         00021b90 00000000! 
    4356 00021bb0           fepzlp2
    4357 00021bb0     9640          move    *a2+,a0,L
    4358 00021bc0     ca04          jrz     fepzxx
    4359 00021bd0     0d5f          calla   DELOBJ
TMS340 COFF Macro Assembler Version 6.10     Tue Dec 19 01:45:15 2023
 Copyright (c) 1985-1991  Texas Instruments Incorporated 

name & team selection                                                PAGE   94

         00021be0 00000000! 
    4360 00021c00     c0fa          jruc    fepzlp2
    4361 00021c10           fepzxx
    4362 00021c10     0960          rets
    4363                    
    4364                    
    4365                    
    4366 00021c20            SUBR   blue_shadow
    4367 00021c20     0960          rets
    4368 00021c30     09e0          movi    wood64b,a0              ;NBAPAL,a0
         00021c40 00000000! 
    4369 00021c60     0d5f          calla   pal_find
         00021c70 00000000! 
    4370 00021c90     4c0a          move    a0,a10
    4371                    
    4372                    
    4373 00021ca0     0d3f          callr   obj_ckpal
         00021cb0     ffda  
    4374                    
    4375 00021cc0     09e0          movi    NBAPAL,a0               ;NBAPAL,a0
         00021cd0 00000000! 
    4376 00021cf0     0d5f          calla   pal_find
         00021d00 00000000! 
    4377 00021d20     4c0a          move    a0,a10
    4378                    
    4379                    
    4380 00021d30     0d3f          callr   obj_ckpal
         00021d40     ffd1  
    4381 00021d50     0960          rets
    4382                    
    4383                    
    4384 00021d60     4d41          move    a10,a1                  ;dest pal
    4385 00021d70     0ba1          ori     52,a1   ;26*16,a1       ;26
         00021d80 00000034  
    4386 00021da0     09e0          movi    mnxgblue_shad,a0                ;pal data
         00021db0 00021e20' 
    4387 00021dd0     1862          movk    3,a2                    ;3 colours
    4388 00021de0     0d5f          calla   pal_set
         00021df0 00000000! 
    4389 00021e10     0960          rets
    4390                    
    4391 00021e20           mnxgblue_shad
    4392 00021e20     0066          .word   0<<10+3<<5+6    ;2
    4393 00021e30     0044          .word   0<<10+2<<5+4    ;6
    4394 00021e40     0000          .word   0<<10+0<<5+0    ;52
    4395                    
    4396                    
    4397                    
    4398                            .asg    115-10+NAMENT_PAGE,CHALLY
    4399                    
    4400 00021e50            SUBR   challenger
    4401                    
    4402 00021e50     4d40          move    a10,a0
    4403 00021e60     2480          sll     4,a0
    4404 00021e70     0b20          addi    jlvrchall_x,a0
TMS340 COFF Macro Assembler Version 6.10     Tue Dec 19 01:45:15 2023
 Copyright (c) 1985-1991  Texas Instruments Incorporated 

name & team selection                                                PAGE   95

         00021e80 00022700' 
    4405 00021ea0     05a1          move    @TWOPLAYERS,a1          ;0 = NO, 1 = YES 2 players
         00021eb0 00000000! 
    4406 00021ed0     ca02          jrz     jlvrnot_2p
    4407 00021ee0     0b00          addi    4*16,a0
         00021ef0     0040  
    4408 00021f00           jlvrnot_2p
    4409 00021f00     8400          move    *a0,a0
    4410 00021f10     2600          sll     16,a0                   ;x val
    4411 00021f20     09e1          movi    [CHALLY,0],a1           ;y val
         00021f30 01690000  
    4412 00021f50     05a2          move    @gmqrtr,a2
         00021f60 00000000! 
    4413 00021f80     0b42          cmpi    2,a2
         00021f90     fffd  
    4414 00021fa0     cb03          jrnz    jlvrskp
    4415 00021fb0     09e1          movi    [CHALLY+256,0],a1       ;y val
         00021fc0 02690000  
    4416 00021fe0           jlvrskp
    4417 00021fe0     09e2          movi    CHALENG,a2              ;* image
         00021ff0 00000000! 
    4418 00022010     09c3          movi    1000,a3                 ;z pos
         00022020     03e8  
    4419 00022030     09e4          movi    DMAWNZ,a4               ;DMA flags
         00022040 00008002  
    4420 00022060     56a5          clr     a5                      ;object ID
    4421 00022070     56c6          clr     a6                      ;x vel
    4422 00022080     56e7          clr     a7                      ;y vel
    4423 00022090     0d5f          calla   BEGINOBJ2
         000220a0 00000000! 
    4424                    
    4425 000220c0           jlvrisoff
    4426 000220c0     0d5f          calla   obj_off
         000220d0 00000000! 
    4427 000220f0                   SLEEPK  1
    4428 00022130     05a0          move    @PSTATUS,a0
         00022140 00000000! 
    4429 00022160     4b40          btst    a10,a0
    4430 00022170     ca05          jrz     jlvrison
    4431                    
    4432 00022180     05a0          move    @PSTATUS,a0
         00022190 00000000! 
    4433 000221b0     4b40          btst    a10,a0
    4434                    
    4435 000221c0     cbef          jrnz    jlvrisoff
    4436 000221d0           jlvrison
    4437 000221d0     05a0          move    @PSTATUS2,a0
         000221e0 00000000! 
    4438 00022200     4b40          btst    a10,a0
    4439 00022210     ca19          jrz     jlvrison2
    4440                    
    4441 00022220     09e0          movi    continue,a0             ;* image
         00022230 00000000! 
    4442 00022250     09e1          movi    DMAWNZ,a1               ;DMA flags
         00022260 00008002  
TMS340 COFF Macro Assembler Version 6.10     Tue Dec 19 01:45:15 2023
 Copyright (c) 1985-1991  Texas Instruments Incorporated 

name & team selection                                                PAGE   96

    4443 00022280     0d5f          calla   obj_aniq                ;change object image
         00022290 00000000! 
    4444 000222b0     0d5f          calla   obj_on
         000222c0 00000000! 
    4445                    
    4446 000222e0           jlvrwait
    4447 000222e0     05a0          move    @can_enter_inits,a0     ;finished initials entry?
         000222f0 00000000! 
    4448 00022310     ca38          jrz     jlvrdone
    4449 00022320                   SLEEPK  1
    4450 00022360     05a0          move    @PSTATUS,a0
         00022370 00000000! 
    4451 00022390     4b40          btst    a10,a0
    4452 000223a0     caf3          jrz     jlvrwait
    4453                    
    4454 000223b0           jlvrison2
    4455                    
    4456 000223b0     0d5f          calla   obj_on
         000223c0 00000000! 
    4457 000223e0           jlvrloop
    4458 000223e0                   SLEEPK  1
    4459                    
    4460 00022420     05a0          move    @can_enter_inits,a0     ;finished initials entry?
         00022430 00000000! 
    4461 00022450     ca24          jrz     jlvrdone
    4462                    
    4463 00022460     05a0          move    @PSTATUS,a0
         00022470 00000000! 
    4464 00022490     4b40          btst    a10,a0
    4465 000224a0     cbc1          jrnz    jlvrisoff
    4466                    
    4467 000224b0     05a0          move    @PCNT,a0                ;frame count
         000224c0 00000000! 
    4468 000224e0     1f20          btst    6,a0
    4469 000224f0     cb04          jrnz    jlvrnojoin
    4470                    
    4471 00022500     09e0          movi    join3,a0                ;* image
         00022510 00000000! 
    4472 00022530     c00f          jruc    jlvrjoin
    4473                    
    4474 00022540           jlvrnojoin
    4475                    
    4476 00022540     09e0          movi    CHALENG,a0              ;* image
         00022550 00000000! 
    4477 00022570     4d41          move    a10,a1
    4478 00022580     0bc1          xori    1,a1                    ;teammate bit
         00022590 00000001  
    4479 000225b0     05a2          move    @PSTATUS,a2
         000225c0 00000000! 
    4480 000225e0     4a22          btst    a1,a2
    4481 000225f0     ca03          jrz     jlvrischall
    4482 00022600     09e0          movi    TMATE,a0                ;* image
         00022610 00000000! 
    4483 00022630           jlvrischall
    4484 00022630           jlvrjoin
TMS340 COFF Macro Assembler Version 6.10     Tue Dec 19 01:45:15 2023
 Copyright (c) 1985-1991  Texas Instruments Incorporated 

name & team selection                                                PAGE   97

    4485 00022630     09e1          movi    DMAWNZ,a1               ;DMA flags
         00022640 00008002  
    4486 00022660     0d5f          calla   obj_aniq                ;change object image
         00022670 00000000! 
    4487                    
    4488 00022690     c0d4          jruc    jlvrloop
    4489                    
    4490 000226a0           jlvrdone
    4491 000226a0     0d5f          calla   DELOBJA8
         000226b0 00000000! 
    4492 000226d0                   DIE
    4493                    
    4494 00022700     0034  jlvrchall_x     .word   52,149,246,342  ;x val
    4495 00022740     0000                  .word   0,101,295,0     ;x val
    4496                    
    4497                    
    4498                    
    4499                            .asg    172-14+TEAMSEL_PAGE,CHALLY
    4500                    
    4501 00022780            SUBR   challenger2
    4502                    
    4503 00022780     4d40          move    a10,a0
    4504 00022790     2480          sll     4,a0
    4505 000227a0     0b20          addi    ulrschall_x,a0
         000227b0 00022b90' 
    4506 000227d0     8400          move    *a0,a0
    4507 000227e0     2600          sll     16,a0                   ;x val
    4508 000227f0     09e1          movi    [CHALLY,0],a1           ;y val
         00022800 009e0000  
    4509 00022820     09e2          movi    CHALENG,a2              ;* image
         00022830 00000000! 
    4510 00022850     09c3          movi    1000,a3                 ;z pos
         00022860     03e8  
    4511 00022870     09e4          movi    DMAWNZ,a4               ;DMA flags
         00022880 00008002  
    4512 000228a0     56a5          clr     a5                      ;object ID
    4513 000228b0     56c6          clr     a6                      ;x vel
    4514 000228c0     56e7          clr     a7                      ;y vel
    4515 000228d0     0d5f          calla   BEGINOBJ2
         000228e0 00000000! 
    4516                    
    4517 00022900     4d4b          move    a10,a11                 ;(0-1)
    4518 00022910     248b          sll     4,a11                   ;x 16 bits
    4519 00022920     0b2b          addi    team1,a11               ;team1 or team2
         00022930 00000000! 
    4520 00022950           ulrsisoff
    4521 00022950     0d5f          calla   obj_off
         00022960 00000000! 
    4522 00022980                   SLEEPK  1
    4523 000229c0     8560          move    *a11,a0
    4524 000229d0     cff7          jrnn    ulrsisoff
    4525                    
    4526 000229e0     0d5f          calla   obj_on
         000229f0 00000000! 
    4527 00022a10           ulrsloop
TMS340 COFF Macro Assembler Version 6.10     Tue Dec 19 01:45:15 2023
 Copyright (c) 1985-1991  Texas Instruments Incorporated 

name & team selection                                                PAGE   98

    4528 00022a10                   SLEEPK  1
    4529 00022a50     8560          move    *a11,a0
    4530 00022a60     cfee          jrnn    ulrsisoff
    4531                    
    4532 00022a70     09e0          movi    CHALENG,a0              ;* image
         00022a80 00000000! 
    4533 00022aa0     05a1          move    @PCNT,a1                ;frame count
         00022ab0 00000000! 
    4534 00022ad0     1f21          btst    6,a1
    4535 00022ae0     cb03          jrnz    ulrsnojoin
    4536 00022af0     09e0          movi    join3,a0                ;* image
         00022b00 00000000! 
    4537 00022b20           ulrsnojoin
    4538 00022b20     09e1          movi    DMAWNZ,a1               ;DMA flags
         00022b30 00008002  
    4539 00022b50     0d5f          calla   obj_aniq                ;change object image
         00022b60 00000000! 
    4540                    
    4541 00022b80     c0e8          jruc    ulrsloop
    4542                    
    4543 00022b90     0065  ulrschall_x     .word   101,295         ;x val
    4544                    
    4545                            .def    guyhds
    4546 00022bb0           guyhds
    4547 00022bb0 00002250"         .long   DRX_PRT
    4548 00022bd0 00002d00"         .long   POR_PRT         ;21 PORTLAND
    4549 00022bf0 00004d10"         .long   ROB_PRT         ;21 PORTLAND
    4550 00022c10 000039f0"         .long   GRT_PRT         ;21 PORTLAND
    4551 00022c30 000034e0"         .long   WOR_LAK
    4552 00022c50 000027f0"         .long   DIV_LAK         ;12 L.A. LAKERS
    4553 00022c70 00004ad0"         .long   PEE_LAK         ;12 L.A. LAKERS
    4554 00022c90 00003e70"         .long   CAM_LAK         ;12 L.A. LAKERS
    4555 00022cb0 00002010"         .long   BRK_PHX
    4556 00022cd0 000029a0"         .long   MAJ_PHX         ;20 PHOENIX
    4557 00022cf0 000044a0"         .long   JOH_PHX         ;20 PHOENIX
    4558 00022d10 00003450"         .long   WLK_ATL
    4559 00022d30 000026d0"         .long   HRP_CLP         ;11 L.A. CLIPPERS
    4560 00022d50 00004c80"         .long   ROB_CLP         ;11 L.A. CLIPPERS
    4561 00022d70 000025b0"         .long   HRD_GLD
    4562 00022d90 00002ac0"         .long   MUL_GLD         ;08 GOLDEN STATE
    4563 00022db0 00005100"         .long   WEB_GLD         ;08 GOLDEN STATE
    4564 00022dd0 00002880"         .long   KMP_SEA
    4565 00022df0 00004a40"         .long   PAY_SEA         ;24 SEATTLE
    4566 00022e10 00002490"         .long   GIL_SEA         ;24 SEATTLE
    4567 00022e30 00002fd0"         .long   SCH_SEA         ;24 SEATTLE
    4568 00022e50 00003330"         .long   TIS_SAC
    4569 00022e70 000033c0"         .long   WEB_SAC         ;22 SACRAMENTO
    4570 00022e90 00004ec0"         .long   SIM_SAC         ;22 SACRAMENTO
    4571 00022eb0 00004380"         .long   HUR_SAC         ;22 SACRAMENTO
    4572 00022ed0 00004b60"         .long   RIC_SAC         ;22 SACRAMENTO
    4573 00022ef0 00002be0"         .long   OLA_HOU
    4574 00022f10 00003180"         .long   SMT_HOU         ;09 HOUSTON
    4575 00022f30 00004770"         .long   MAX_HOU         ;09 HOUSTON
    4576 00022f50 00002370"         .long   ELL_DET         ;07 DETROIT
    4577 00022f70 00002f40"         .long   ROB_SAN
TMS340 COFF Macro Assembler Version 6.10     Tue Dec 19 01:45:15 2023
 Copyright (c) 1985-1991  Texas Instruments Incorporated 

name & team selection                                                PAGE   99

    4578 00022f90 00004020"         .long   ELS_SAN
    4579 00022fb0 00004da0"         .long   ROD_SAN         ;23 SAN ANTONIO
    4580 00022fd0 00003690"         .long   MLN_UTA
    4581 00022ff0 00003cc0"         .long   BEN_UTA
    4582 00023010 00003210"         .long   STK_UTA         ;25 UTAH
    4583 00023030 00002640"         .long   HRN_PHL         ;19 PHILADELPHIA
    4584 00023050 00004650"         .long   MAS_DAL         ;05 DALLAS
    4585 00023070 00004410"         .long   JAC_DAL
    4586 00023090 00002910"         .long   LTN_MIN
    4587 000230b0 00004bf0"         .long   RID_MIN
    4588 000230d0 00002e20"         .long   PRS_MIN         ;15 MINNESOTTA
    4589 000230f0 00002b50"         .long   MUT_DEN
    4590 00023110 000022e0"         .long   ELL_DEN         ;06 DENVER
    4591 00023130 00004e30"         .long   ROG_DEN         ;06 DENVER
    4592 00023150 00002c70"         .long   PIP_CHI
    4593 00023170 00003840"         .long   GRT_CHI         ;03 CHICAGO
    4594 00023190 00003ba0"         .long   ARM_CHI         ;03 CHICAGO
    4595 000231b0 00004530"         .long   KUK_CHI         ;03 CHICAGO
    4596 000231d0 000032a0"         .long   THM_DET
    4597 000231f0 00003f90"         .long   DUM_DET         ;07 DETROIT
    4598 00023210 000042f0"         .long   HUN_DET         ;07 DETROIT
    4599 00023230 00004260"         .long   HOR_HOU         ;09 HOUSTON
    4600 00023250 00003570"         .long   MIL_IND
    4601 00023270 00004f50"         .long   SMI_IND         ;10 INDIANA
    4602 00023290 000045c0"         .long   SEL_IND         ;10 INDIANA
    4603 000232b0 00002d90"         .long   PRC_CLE
    4604 000232d0 000049b0"         .long   NAN_CLE
    4605 000232f0 00002130"         .long   DAU_CLE         ;04 CLEVELAND
    4606 00023310 00003600"         .long   LOH_MLW
    4607 00023330 000021c0"         .long   EDW_MLW         ;14 MILWAUKEE
    4608 00023350 00003c30"         .long   BAK_MLW         ;14 MILWAUKEE
    4609 00023370 00005220"         .long   DAY_MLW         ;14 MILWAUKEE
    4610 00023390 00002a30"         .long   MAN_CLP
    4611 000233b0 00001f80"         .long   AUG_ATL         ;00 ATLANTA
    4612 000233d0 00005190"         .long   WLS_ATL         ;00 ATLANTA
    4613 000233f0 00003720"         .long   JON_CHA
    4614 00023410 00004920"         .long   MOU_CHA
    4615 00023430 00002760"         .long   HWK_CHA
    4616 00023450 00003d50"         .long   BRA_PHL         ;19 PHILADELPHIA
    4617 00023470 00005070"         .long   WEA_PHL         ;19 PHILADELPHIA
    4618 00023490 00004800"         .long   MCD_BOS
    4619 000234b0 00003de0"         .long   BRO_BOS         ;01 BOSTON
    4620 000234d0 00004140"         .long   GAM_BOS         ;01 BOSTON
    4621 000234f0 00002400"         .long   EWG_NEY
    4622 00023510 000037b0"         .long   OAK_NEY         ;17 NEW YORK
    4623 00023530 000046e0"         .long   MAS_NEY         ;17 NEW YORK
    4624 00023550 00004fe0"         .long   STA_NEY         ;17 NEW YORK
    4625 00023570 00002520"         .long   HPR_DAL         ;05 DALLAS
    4626 00023590 000020a0"         .long   COL_NEJ
    4627 000235b0 00003a80"         .long   AND_NEJ         ;16 NEW JERSEY
    4628 000235d0 000052b0"         .long   MOR_NEJ         ;16 NEW JERSEY
    4629 000235f0 00003960"         .long   BEN_NEJ         ;16 NEW JERSEY
    4630 00023610 000038d0"         .long   GUG_WAS
    4631 00023630 000040b0"         .long   ELL_WAS         ;26 WASHINGTON
    4632 00023650 00003f00"         .long   CHE_WAS         ;26 WASHINGTON
TMS340 COFF Macro Assembler Version 6.10     Tue Dec 19 01:45:15 2023
 Copyright (c) 1985-1991  Texas Instruments Incorporated 

name & team selection                                                PAGE  100

    4633 00023670 00003b10"         .long   AND_ORL
    4634 00023690 000030f0"         .long   SKL_ORL         ;18 ORLANDO
    4635 000236b0 000041d0"         .long   HAR_ORL         ;18 ORLANDO
    4636 000236d0 00002eb0"         .long   RCE_MIA
    4637 000236f0 00003060"         .long   SKL_MIA         ;13 MIAMI
    4638 00023710 00004890"         .long   MIN_MIA         ;13 MIAMI
    4639                    
    4640                            .def    our_heads
    4641                            .def    MRK_TURM,SHA_LIPM,TON_GOSM,JON_CARM,SAL_DIVM
    4642                            .def    JON_HEYM,JAM_RIVM,SCO_MK2,REP_MK2,SUB_MK2
    4643                            .def    WLK_ATL,RAD_MK2,AUG_ATL,HRD_GLD,MUL_GLD
    4644 00023730           our_heads
    4645 00023730 00001b00"         .long   TON_GOSM        ;0
    4646 00023750 00001c20"         .long   JAM_RIVM        ;1
    4647 00023770 00001b90"         .long   JON_CARM        ;2
    4648 00023790 00001d40"         .long   SAL_DIVM        ;3
    4649 000237b0 00001dd0"         .long   SHA_LIPM        ;4
    4650 000237d0 00001ef0"         .long   MRK_TURM        ;5
    4651 000237f0 00001cb0"         .long   JON_HEYM        ;6
    4652 00023810 000006c0"         .long   GEO_PET         ;7
    4653 00023830 00000b40"         .long   JON_NEW         ;8
    4654 00023850 000015f0"         .long   SHE_OUR         ;9
    4655 00023870 000014d0"         .long   AL_LASC         ;10
    4656 00023890 00001e60"         .long   WIL_WILM        ;11
    4657 000238b0 000003f0"         .long   CAR_MED         ;12
    4658 000238d0 00000480"         .long   DAN_FOR         ;13
    4659 000238f0 000005a0"         .long   ERC_KIN         ;14
    4660 00023910 00000630"         .long   EUG_JAR         ;15
    4661                    
    4662 00023930 000001b0"         .long   SUB_MK2         ;16
    4663                    
    4664 00023950 00000750"         .long   JAC_HAG         ;17
    4665 00023970 000019e0"         .long   JAK_SIM         ;18
    4666 00023990 00000900"         .long   JIM_GRN         ;19
    4667 000239b0 00000870"         .long   JIM_GEN         ;20
    4668 000239d0 00000990"         .long   JOE_DIL         ;21
    4669 000239f0 00000ab0"         .long   JON_LOW         ;22
    4670 00023a10 00000c60"         .long   JON_VOG         ;23
    4671 00023a30 00000cf0"         .long   JOS_TSU         ;24
    4672 00023a50 00000d80"         .long   LAR_DUM         ;25
    4673 00023a70 00000e10"         .long   LIN_DEL         ;26
    4674 00023a90 00000f30"         .long   MAT_BUT         ;27
    4675 00023ab0 00000fc0"         .long   MRK_LOF         ;28
    4676 00023ad0 00001050"         .long   MRK_PEN         ;29
    4677 00023af0 000013b0"         .long   PAL_BAR         ;30
    4678 00023b10 00001170"         .long   PAT_COX         ;31
    4679                    
    4680 00023b30 00000000"         .long   RAD_MK2         ;32
    4681 00023b50 00001440"         .long   REA_PER         ;33
    4682                    
    4683 00023b70 00001290"         .long   RAY_MOS         ;34
    4684 00023b90 00001320"         .long   ROG_SHR         ;35
    4685 00023bb0 00001680"         .long   STE_BER         ;36
    4686                    
    4687 00023bd0 000017a0"         .long   VIK_APE         ;38
TMS340 COFF Macro Assembler Version 6.10     Tue Dec 19 01:45:15 2023
 Copyright (c) 1985-1991  Texas Instruments Incorporated 

name & team selection                                                PAGE  101

    4688                    
    4689 00023bf0 00001830"         .long   VNC_PON         ;39
    4690                    
    4691 00023c10 000018c0"         .long   VOG_HED         ;40
    4692                    
    4693 00023c30 00001950"         .long   WAR_DAV         ;41
    4694 00023c50 00000510"         .long   ED_BOON         ;42
    4695 00023c70 00000bd0"         .long   JON_TOB         ;43
    4696 00023c90 000010e0"         .long   PAL_HEI         ;44
    4697 00023cb0 00000360"         .long   BIL_DAB         ;45
    4698 00023cd0 00000ea0"         .long   MAR_MAR         ;46
    4699 00023cf0 00001200"         .long   RAC_DAV         ;47
    4700 00023d10 000002d0"         .long   KAR_HOS         ;48
    4701 00023d30 00000240"         .long   LOR_OLI         ;49
    4702                    
    4703 00023d50 00000090"         .long   SCO_MK2         ;50
    4704 00023d70 00000120"         .long   REP_MK2         ;51
    4705                    
    4706 00023d90 00001560"         .long   CHR_GRA         ;52
    4707 00023db0 00001a70"         .long   KEN_MUG         ;53  GRIFFEY
    4708 00023dd0 000007e0"         .long   JAS_FLA         ;54
    4709 00023df0 00000a20"         .long   JOE_LIN         ;55     Linhoff
    4710                    
    4711 00023e10 00003450"         .long   WLK_ATL         ;56
    4712 00023e30 00003de0"         .long   BRO_BOS         ;57
    4713 00023e50 00004920"         .long   MOU_CHA         ;58
    4714 00023e70 00002c70"         .long   PIP_CHI         ;59
    4715 00023e90 00004a40"         .long   PAY_SEA         ;60     PAYTON
    4716 00023eb0 00005100"         .long   WEB_GLD         ;61
    4717 00023ed0 00002be0"         .long   OLA_HOU         ;62
    4718 00023ef0 000020a0"         .long   COL_NEJ         ;63
    4719 00023f10 00002400"         .long   EWG_NEY         ;64
    4720 00023f30 00002010"         .long   BRK_PHX         ;65
    4721 00023f50 00002f40"         .long   ROB_SAN         ;66
    4722 00023f70 00002880"         .long   KMP_SEA         ;67
    4723 00023f90 00003690"         .long   MLN_UTA         ;68
    4724                    
    4725                            .end

 No Errors,  No Warnings
