TMS340 COFF Macro Assembler Version 6.10     Tue Dec 19 01:45:17 2023
 Copyright (c) 1985-1991  Texas Instruments Incorporated 

                                                                     PAGE    1

       1                            .file   "speech.asm"
       3                            .width  132
       4                            .option b,d,l,t
       5                            .mnolist
       6                    
       7                    
       8                            .include        "mproc.equ"
       9                            .include        "disp.equ"
      10                            .include        "sys.equ"
      11                            .include        "gsp.equ"
      12                            .include        "mac2.asm"
      13                            .include        "imgtbl.glo"
      14                            .include        "imgtbl2.glo"
      15                            .include        "bgndtbl.glo"
      16                            .include        "game.equ"
      17                            .include        "audit.equ"
      18                            .include        "shawn.hdr"
      19                    
      20                            .asg            0,SEQT
      21                            .include        "plyr.equ"
      22                    
      23                    
      24                    
      25                            .ref    fire_flags
      26                            .ref    ballobj_p
      27                            .ref    special_heads                   ;-1 = normal player head
      28                    
      29                            .ref    brick_count
      30                            .ref    plyrproc_t
      31                            .ref    ballpnum,ballpnumshot
      32                            .ref    inbound
      33                            .ref    ballrimhitcnt,ballbbhitcnt
      34                            .ref    snd_play1,snd_play1ovrp
      35                            .ref    snd_play1ovr
      36                            .ref    rndrng0,RNDPER
      37                            .ref    game_time
      38                            .ref    gmqrtr,scores
      39                            .ref    ballptsforshot          ;Point value for current shot (1-3)
      40                            .ref    team1,team2
      41                    
      42                            .ref    ballpnumscored          ;Last plyr who scored (0-3) or neg
      43                            .ref    ballnumscored           ;# times last plyr scored
      44                            .ref    plyrnumonfire           ;plyr who is on fire
      45                    
      46                    
      47                    
      48 00000000                   BSSX    last_name,      16      ;last name called (0-3)
      49 00000000                   BSSX    last_name_time, 16      ;# ticks since name called
      50 00000000                   BSSX    shot_type,      16      ;dunk, 3ptr etc
      51 00000000                   BSSX    plyr_shot,      16      ;player who shot last
      52 00000000                   BSSX    shot_percentage,16      ;0-999
      53 00000000                   BSSX    shot_distance,  16      ;distance from hoop
      54 00000060                   .bss    ugly_stat,      16      ;0=not ugly, 1=ugly called
      55 00000000                   BSSX    score_diff,     16      ;+winning by, -losing by
      56 00000080                   .bss    blowout_called, 16      ;0=not called, 1=called
TMS340 COFF Macro Assembler Version 6.10     Tue Dec 19 01:45:17 2023
 Copyright (c) 1985-1991  Texas Instruments Incorporated 

announcer speech etc...                                              PAGE    2

      57 00000090                   .bss    needshot_called,16      ;0=not called, 1=called
      58 000000a0                   .bss    freakout,       16      ;0=no freakout
      59 00000000                   BSSX    jam_speech,     16      ;speech type to call when jammed
      60 00000000                   BSSX    next_call,      16      ;# shots before next score call
      61 000000d0                   .bss    sound_ram,      16*4*4  ;queued speech ram
      62 000001d0                   .bss    sound_ram2,     16*4*4  ;queued speech ram
      63 000002d0                   .bss    skycalled,      16      ;skyhook called (0=no)
      64 00000000                   BSSX    spch_name_ram,  32*4
      65 00000000                   BSSX    spch_pass_ram,  32*4
      66                    
      67 00000000                   .text
      68                    
      69                    
      70 00000000           STAB_START
      71                    
      72 00000000     f981  scrs0   .word   0f981H,60,08182H,0      ;and it's good
      73 00000040     f9a1  scrs1   .word   0f9a1H,60,081e0H,0      ;it's good (excited)
      74 00000080     f981  scrs2   .word   0f981H,30,08187H,0      ;got it!
      75 000000c0     f981  scrs3   .word   0f981H,30,081daH,0      ;finds the hole
      76 00000100     f981  scrs4   .word   0f981H,30,081dcH,0      ;what a shot
      77 00000140     f981  scrs5   .word   0f981H,30,081dfH,0      ;hooks it in
      78 00000180     f981  scrs6   .word   0f981H,30,081a0H,0      ;finger rolls it in
      79 000001c0     f981  scrs7   .word   0f981H,98,081eaH,0      ;oh my!
      80 00000200     f981  scrs8   .word   0f981H,30,081f5H,0      ;spectacular dunk
      81 00000240     f981  scrs9   .word   0f981H,60,0819dH,0      ;sweet touch
      82 00000280     f1a0  scrs10  .word   0f1a0H,39,081e1H,0      ;IT IS....
      83 000002c0     f9a1  scrs11  .word   0f9a1H,51,081e2H,0      ;GOOOOD!!!
      84 00000300     f981  scrs12  .word   0f981H,47,0819bH,0      ;scores
      85 00000340     f981  scrs13  .word   0f981H,87,08184H,0      ;gets a lucky bounce
      86 00000380     f990  scrs14  .word   0f990H,100,081d6H,0     ;the nail in the coffin!
      87 000003c0     f981  scrs15  .word   0f981H,30,081afH,0      ;lays it up
      88 00000400     f981  scrs16  .word   0f981H,70,0819cH,0      ;boom shakalaka
      89 00000440     f981  scrs17  .word   0f981H,86,081a8H,0      ;razzle dazzle (incredible dunk)
      90 00000480     f981  scrs18  .word   0f981H,60,081adH,0      ;is it the shoes?
      91 000004c0     f981  scrs19  .word   0f981H,51,081aeH,0      ;kaboom
      92 00000500     f981  scrs20  .word   0f981H,90,081b2H,0      ;monster jam
      93 00000540     f981  scrs22  .word   0f981H,59,081bbH,0      ;slams it
      94 00000580     f981  scrs23  .word   0f981H,49,081bcH,0      ;stuffs it
      95 000005c0     f981  scrs24  .word   0f981H,73,0812dH,0      ;the easy jam
      96 00000600     f981  scrs25  .word   0f981H,76,0812fH,0      ;fancy move
      97 00000640     f981  scrsrz  .word   0f981H,76,081a8H,0      ;razzle dazzle
      98 00000680     f981  scrs26  .word   0f981H,76,0812BH,0      ;FANTASTIC!
      99                    
     100 000006c0     f981  jamsit  .word   0f981H,74,081a4H,0      ;jams it in
     101                    
     102 00000700     f981  twopts  .word   0f981H,50,081caH,0      ;gets two (two points)
     103 00000740     f981  bookit  .word   0f981H,42,081a6H,0      ;book it
     104 00000780     f981  uncon   .word   0f981H,86,0816fH,0      ;he's unconscious
     105 000007c0     f981  cantbuy .word   0f981H,73,08175H,0      ;can't buy a bucket
     106 00000800     f981  baddec  .word   0f981H,72,081b7H,0      ;bad decision           <--change!
     107                    
     108                    
     109 00000840           blowout_snd
     110 00000840     f990          .word   0f990H,25,081feH,1      ;silence
     111 00000880     f990          .word   0f990H,67,08172H,0      ;it's a blowout
TMS340 COFF Macro Assembler Version 6.10     Tue Dec 19 01:45:17 2023
 Copyright (c) 1985-1991  Texas Instruments Incorporated 

announcer speech etc...                                              PAGE    3

     112 000008c0           blowout2_snd
     113 000008c0     f990          .word   0f990H,25,081feH,1      ;silence
     114 00000900     f990          .word   0f990H,87,081abH,0      ;Whoomp, there it is
     115 00000940           swish_snd
     116 00000940     f981          .word   0f981H,5,081feH,1               ;silence
     117 00000980     f981          .word   0f981H,43,081e8H,0      ;SWISH!
     118 000009c0           allnet_snd
     119 000009c0     f981          .word   0f981H,5,081feH,1               ;silence
     120 00000a00     f981          .word   0f981H,72,08195H,0      ;nothing but net
     121                    
     122 00000a40     f180  shts0   .word   0f180H,95,0818aH,0      ;from the 3 point line
     123 00000a80     f180  shts1   .word   0f180H,53,081e6H,0      ;shoots for 3
     124 00000ac0     f180  shts2   .word   0f180H,98,0818eH,0      ;from down town
     125 00000b00     f180  shts3   .word   0f180H,99,08190H,0      ;he shoots from the outside
     126 00000b40     f180  shtsrb  .word   0f180H,99,081f0H,0      ;rainbow
     127 00000b80     f980  shts4   .word   0f980H,67,081c1H,0      ;wild shot
     128 00000bc0     f180  shts5   .word   0f180H,81,0818bH,0      ;from long range
     129 00000c00     f980  shts6   .word   0f980H,70,081e3H,0      ;out of range (launches a shot)
     130 00000c40     f9a0  shts7   .word   0f9a0H,70,08183H,0      ;at the buzzer
     131 00000c80     f180  shts8   .word   0f180H,53,081a3H,0      ;for two
     132 00000cc0     f990  hooksht .word   0f990H,60,081bdH,0      ;takes the hook shot    <----check this
     133                    
     134 00000d00     f990  getout  .word   0f990H,86,0815dH,0      ;get that outta here
     135 00000d40     f990  getout2 .word   0f990H,86,081c9H,0      ;get that shit outta here
     136 00000d80     f981  yes     .word   0f981H,46,081c2H,0      ;YES!
     137 00000dc0     f981  greatsht .word  0f981H,62,081d8H,0      ;great shot!
     138 00000e00     f981  wideopen .word  0f981H,66,081ddH,0      ;wide open
     139 00000e40     f990  gottasht .word  0f990H,51,081d7H,0      ;they've gotta shoot it
     140 00000e80     f981  nogood  .word   0f981H,58,081f1H,0      ;NO GOOD!
     141 00000ec0     f981  hescores .word  0f981H,63,081f6H,0      ;he scores
     142                    
     143 00000f00           ugly0
     144 00000f00     f980          .word   0f980H,25,081feH,1      ;silence
     145 00000f40     f980          .word   0f980H,63,081d9H,0      ;ugly shot!
     146                    
     147 00000f80           ugly1
     148 00000f80     f980          .word   0f980H,25,081feH,1      ;silence
     149 00000fc0     f980          .word   0f980H,64,08198H,0      ;puts up a brick
     150                    
     151 00001000           ugly2
     152 00001000     f980          .word   0f980H,25,081feH,1      ;silence
     153 00001040     f980          .word   0f980H,66,0819fH,0      ;terrible shot!
     154                    
     155                    
     156                    
     157 00001080     f9ff  matchup .word   0f9ffH,66,081deH,0      ;tonight's matchup
     158 000010c0     f9ff  versus  .word   0f9ffH,42,0802fH,0      ;versus
     159                    
     160 00001100     f9ff  ovrtme .word    0f9ffH,69,08180H,0      ;overtime!
     161 00001140     f9ff  wingame .word   0f9ffH,75,08173H,0      ;win the game
     162 00001180     f9ff  arewinrs .word  0f9ffH,69,08174H,0      ;are the winners
     163                    
     164                    
     165 000011c0     f990  munged  .word   0f990H,49,0812eH,0      ;munged
     166 00001200     f990  ambushed .word  0f990H,47,081c4H,0      ;ugly knockdown (ambushed)
TMS340 COFF Macro Assembler Version 6.10     Tue Dec 19 01:45:17 2023
 Copyright (c) 1985-1991  Texas Instruments Incorporated 

announcer speech etc...                                              PAGE    4

     167 00001240     f990  takethat .word  0f990H,46,08189H,0      ;take that!
     168 00001280     f990  flagrant .word  0f990H,50,08178H,0      ;flagrant
     169 000012c0     f990  tofloor .word   0f990H,81,081ceH,0      ;knocked to the floor
     170 00001300     f990  hello   .word   0f990H,47,081c8H,0      ;hello!
     171 00001340     f990  excuse  .word   0f990H,57,081c0H,0      ;excuse me!
     172                    
     173 00001380     f990  reject  .word   0f990H,79,081b6H,0      ;rejected!
     174 000013c0     f990  rejects .word   0f990H,93,081f2H,0      ;rejects the shot
     175 00001400     f990  greatd  .word   0f990H,70,08188H,0      ;great defense
     176 00001440     f990  noway   .word   0f990H,68,081b4H,0      ;no way!
     177 00001480     f990  grabreb .word   0f990H,84,081efH,0      ;grabs the rebound
     178 000014c0     f990  intrcpt .word   0f990H,59,081a9H,0      ;intercepted!
     179 00001500     f990  turnovr .word   0f990H,51,081bfH,0      ;the turnover!
     180 00001540     f990  stolen  .word   0f990H,47,081f3H,0      ;steals the ball
     181                    
     182 00001580     f990  downby  .word   0f990H,41,081cdH,0      ;down by
     183 000015c0     f990  upby    .word   0f990H,34,081cfH,0      ;up by
     184 00001600     f990  scrtied .word   0f990H,83,081baH,0      ;the score is tied
     185                    
     186 00001640     f990  snd_1   .word   0f990H,45,081d0H,0      ;
     187 00001680     f990  snd_2   .word   0f990H,42,081d1H,0      ;
     188 000016c0     f990  snd_3   .word   0f990H,46,081d2H,0      ;
     189 00001700     f990  snd_4   .word   0f990H,44,081d3H,0      ;
     190 00001740     f990  snd_5   .word   0f990H,41,081d4H,0      ;
     191 00001780     f990  snd_6   .word   0f990H,38,081d5H,0      ;
     192 000017c0     f990  snd_7   .word   0f990H,47,081f7H,0      ;
     193 00001800     f990  snd_8   .word   0f990H,38,081f8H,0      ;
     194 00001840     f990  snd_9   .word   0f990H,46,081f9H,0      ;
     195 00001880     f990  snd_10  .word   0f990H,43,081faH,0      ;
     196 000018c0     f990  snd_15  .word   0f990H,57,081fbH,0      ;
     197 00001900     f990  snd_20  .word   0f990H,50,081fcH,0      ;
     198                    
     199                    
     200 00001940     f9f1  heatup_snd      .word   0f9f1H,60,08168H,0      ;He's heating up
     201 00001980     f9a1  onfire_snd      .word   0f9a1H,83,08169H,0      ;He's on fire
     202 000019c0     f990  hothand         .word   0f990H,87,081fdH,0      ;He's got a hot hand
     203 00001a00     f3ff  organ1_snd      .word   0f3ffH,08H,080aeH,0
     204 00001a40     f3ff  organ2_snd      .word   0f3ffH,08H,080afH,0
     205                    
     206 00001a80     f981  needshot        .word   0f981H,55,081feH,1      ;silence
     207 00001ac0     f998                  .word   0f998H,71,081e9H,0      ;They need a shot here
     208                    
     209 00001b00     f981  silence55       .word   0f981H,55,081feH,1      ;silence
     210                    
     211 00001b40     f990  runout          .word   0f990H,8,081feH,1               ;silence
     212 00001b80     f990                  .word   0f990H,90,08186H,0      ;running out of time
     213                    
     214                            .def    pass_speech
     215                    
     216 00001bc0           pass_speech
     217                    
     218 00001bc0     f980   .word  0f980H,32,08050H,0      ;TO MANNING
     219 00001c00     f980   .word  0f980H,31,080efH,0      ;TO AUGMON      ( ATLANTA )
     220 00001c40     f980   .word  0f980H,40,08162H,0      ;TO WILLIS
     221                    
TMS340 COFF Macro Assembler Version 6.10     Tue Dec 19 01:45:17 2023
 Copyright (c) 1985-1991  Texas Instruments Incorporated 

announcer speech etc...                                              PAGE    5

     222 00001c80     f980   .word  0f980H,43,080f8H,0      ;TO BROWN       ( BOSTON )
     223 00001cc0     f980   .word  0f980H,28,080f7H,0      ;TO MCDAN
     224 00001d00     f980   .word  0f980H,30,08145H,0      ;TO GAMBLE
     225                    
     226 00001d40     f980   .word  0f980H,50,080e9H,0      ;TO JOHNSN_L    ( CHARLOTTE )
     227 00001d80     f980   .word  0f980H,43,08061H,0      ;TO HAWKINS
     228 00001dc0     f980   .word  0f980H,45,08121H,0      ;TO MOURNING
     229                    
     230 00001e00     f980   .word  0f980H,29,080e7H,0      ;TO PIPPEN
     231 00001e40     f980   .word  0f980H,49,08130H,0      ;TO ARMSTRNG
     232 00001e80     f980   .word  0f980H,40,0817cH,0      ;TO KUKOC
     233 00001ec0     f980   .word  0f980H,34,080e6H,0      ;TO GRANT_HC    ( CHICAGO )
     234                    
     235 00001f00     f980   .word  0f980H,33,08055H,0      ;TO PRICE
     236 00001f40     f980   .word  0f980H,34,08056H,0      ;TO DAUGHRTY    ( CLEVELAND )
     237 00001f80     f980   .word  0f980H,34,08122H,0      ;TO NANCE
     238                    
     239 00001fc0     f980   .word  0f980H,34,0817bH,0      ;TO JACKSON
     240 00002000     f980   .word  0f980H,34,0817dH,0      ;TO MASHBURN
     241                    
     242 00002040     f980   .word  0f980H,46,08059H,0      ;TO MUTUMBO
     243 00002080     f980   .word  0f980H,29,0805aH,0      ;TO ELLIS       ( DENVER )
     244 000020c0     f980   .word  0f980H,34,08137H,0      ;TO ROGERS
     245                    
     246 00002100     f980   .word  0f980H,42,080feH,0      ;TO THOMAS
     247 00002140     f980   .word  0f980H,34,08141H,0      ;TO DUMARS
     248 00002180     f980   .word  0f980H,37,080f6H,0      ;TO ELLIOT
     249 000021c0     f980   .word  0f980H,34,08147H,0      ;TO HUNTER
     250                    
     251 00002200     f980   .word  0f980H,37,080fbH,0      ;TO HARDAWAY
     252 00002240     f980   .word  0f980H,30,080fcH,0      ;TO MULLIN      ( GOLDEN STATE )
     253 00002280     f980   .word  0f980H,34,08161H,0      ;TO WEBBER
     254                    
     255 000022c0     f980   .word  0f980H,43,08058H,0      ;TO OLAJUWON
     256 00002300     f980   .word  0f980H,34,0817fH,0      ;TO MAXWELL
     257 00002340     f980   .word  0f980H,34,08146H,0      ;TO HORRY
     258 00002380     f980   .word  0f980H,25,08057H,0      ;TO SMITH       ( HOUSTON )
     259                    
     260 000023c0     f980   .word  0f980H,22,0804dH,0      ;TO MILLER
     261 00002400     f980   .word  0f980H,34,08149H,0      ;TO SEALY
     262 00002440     f980   .word  0f980H,34,0814fH,0      ;TO SMITS
     263                    
     264 00002480     f980   .word  0f980H,37,080f0H,0      ;TO WILKINS
     265 000024c0     f980   .word  0f980H,28,08051H,0      ;TO HARPER_R    ( L.A. CLIPPERS )
     266 00002500     f980   .word  0f980H,40,0802bH,0      ;TO ROBERTS
     267                    
     268 00002540     f980   .word  0f980H,34,08125H,0      ;TO PEELER
     269 00002580     f980   .word  0f980H,37,0804eH,0      ;TO DIVAC       ( L.A. LAKERS )
     270 000025c0     f980   .word  0f980H,34,0813eH,0      ;TO CAMPBELL
     271 00002600     f980   .word  0f980H,31,0804fH,0      ;TO WORTHY
     272                    
     273 00002640     f980   .word  0f980H,27,08054H,0      ;TO RICE
     274 00002680     f980   .word  0f980H,33,08053H,0      ;TO SEIKALY     ( MIAMI )
     275 000026c0     f980   .word  0f980H,34,0811cH,0      ;TO MINER
     276                    
TMS340 COFF Macro Assembler Version 6.10     Tue Dec 19 01:45:17 2023
 Copyright (c) 1985-1991  Texas Instruments Incorporated 

announcer speech etc...                                              PAGE    6

     277 00002700     f980   .word  0f980H,34,08131H,0      ;TO BAKER
     278 00002740     f980   .word  0f980H,29,0804bH,0      ;TO EDWARDS     ( MILWAUKEE )
     279 00002780     f980   .word  0f980H,34,08140H,0      ;TO DAY
     280 000027c0     f980   .word  0f980H,32,080ffH,0      ;TO LOHAUS
     281                    
     282 00002800     f980   .word  0f980H,37,0805eH,0      ;TO LAETNER
     283 00002840     f980   .word  0f980H,30,0805dH,0      ;TO PERSON      ( MINNESOTTA )
     284 00002880     f980   .word  0f980H,34,0812aH,0      ;TO RIDER
     285                    
     286 000028c0     f980   .word  0f980H,31,08060H,0      ;TO COLEMAN
     287 00002900     f980   .word  0f980H,50,0805fH,0      ;TO KANDERSON   ( NEW JERSEY )
     288 00002940     f980   .word  0f980H,34,0811eH,0      ;TO CMORRIS
     289 00002980     f980   .word  0f980H,40,080f2H,0      ;TO BENJAMIN    ( SEATTLE )
     290                    
     291 000029c0     f980   .word  0f980H,37,080eeH,0      ;TO EWING
     292 00002a00     f980   .word  0f980H,34,0817eH,0      ;TO MASON
     293 00002a40     f980   .word  0f980H,34,08151H,0      ;TO STARKS
     294 00002a80     f980   .word  0f980H,38,080edH,0      ;TO OAKLEY      ( NEW YORK )
     295 00002ac0     f980   .word  0f980H,28,08051H,0      ;TO HARPER_D
     296                    
     297                    
     298 00002b00     f980   .word  0f980H,37,080fbH,0      ;TO AHARDAWAY
     299 00002b40     f980   .word  0f980H,50,0805fH,0      ;TO NANDERSON
     300 00002b80     f980   .word  0f980H,40,080e4H,0      ;TO SKILES      ( ORLANDO )
     301                    
     302 00002bc0     f980   .word  0f980H,34,08152H,0      ;TO WEATHERSPOON
     303 00002c00     f980   .word  0f980H,34,08133H,0      ;TO BRADLEY
     304                    
     305 00002c40     f980   .word  0f980H,36,080ecH,0      ;TO BARKLEY
     306 00002c80     f980   .word  0f980H,38,080ebH,0      ;TO MAJERLE     ( PHOENIX )
     307 00002cc0     f980   .word  0f980H,50,080e9H,0      ;TO KJOHNSON
     308                    
     309 00002d00     f980   .word  0f980H,33,080f4H,0      ;TO DREXLER
     310 00002d40     f980   .word  0f980H,24,080f3H,0      ;TO PORTER      ( PORTLAND )
     311 00002d80     f980   .word  0f980H,46,080f5H,0      ;TO CROBINSON
     312 00002dc0     f980   .word  0f980H,34,080e6H,0      ;TO GRANT_HV
     313                    
     314 00002e00     f980   .word  0f980H,34,0814cH,0      ;TO SIMMONS
     315 00002e40     f980   .word  0f980H,34,0817aH,0      ;TO HURLEY
     316 00002e80     f980   .word  0f980H,34,08127H,0      ;TO RICHMOND
     317 00002ec0     f980   .word  0f980H,43,0805bH,0      ;TO TISDALE
     318 00002f00     f980   .word  0f980H,46,0805cH,0      ;TO WEBB        ( SACRAMENTO )
     319                    
     320 00002f40     f980   .word  0f980H,46,080f5H,0      ;TO ROBINSON    ( SAN ANTONIO )
     321 00002f80     f980   .word  0f980H,34,08135H,0      ;TO RODMAN
     322 00002fc0     f980   .word  0f980H,29,0805aH,0      ;TO DELLIS 
     323                    
     324 00003000     f980   .word  0f980H,31,080f1H,0      ;TO KEMP
     325 00003040     f980   .word  0f980H,40,08126H,0      ;TO PAYTON      ( SEATTLE )
     326 00003080     f980   .word  0f980H,28,080eaH,0      ;TO GILL
     327 000030c0     f980   .word  0f980H,26,0804cH,0      ;TO SCHREMPF    ( INDIANA )
     328                    
     329 00003100     f980   .word  0f980H,37,080faH,0      ;TO MALONE_K
     330 00003140     f980   .word  0f980H,31,080f9H,0      ;TO STOCKTON    ( UTAH )
     331 00003180     f980   .word  0f980H,40,08132H,0      ;TO BENOIT
TMS340 COFF Macro Assembler Version 6.10     Tue Dec 19 01:45:17 2023
 Copyright (c) 1985-1991  Texas Instruments Incorporated 

announcer speech etc...                                              PAGE    7

     332 000031c0     f980   .word  0f980H,36,08062H,0      ;TO HORNACEK    ( PHILADELPHIA )
     333                    
     334 00003200     f980   .word  0f980H,36,080e8H,0      ;TO GUGLIOTA    ( WASHINGTON )
     335 00003240     f980   .word  0f980H,40,08142H,0      ;TO ELLISON
     336 00003280     f980   .word  0f980H,40,0813fH,0      ;TO CHEANEY
     337                    
     338 000032c0     f980   .word  0f980H,37,080faH,0      ;TO MALONE_K
     339 00003300     f980   .word  0f980H,31,080f1H,0      ;TO KEMP
     340 00003340     f980   .word  0f980H,46,080f5H,0      ;TO ROBINSON    ( SAN ANTONIO )
     341 00003380     f980   .word  0f980H,36,080ecH,0      ;TO barkley
     342 000033c0     f980   .word  0f980H,33,080f4H,0      ;TO DREXLER
     343 00003400     f980   .word  0f980H,37,080fbH,0      ;TO AHARDAWAY
     344 00003440     f980   .word  0f980H,37,080eeH,0      ;TO EWING
     345 00003480     f980   .word  0f980H,50,0805fH,0      ;TO KANDERSON   ( NEW JERSEY )
     346 000034c0     f980   .word  0f980H,31,08060H,0      ;TO COLEMAN
     347 00003500     f980   .word  0f980H,50,0805fH,0      ;TO NANDERSON
     348 00003540     f980   .word  0f980H,31,080f9H,0      ;TO STOCKTON    ( UTAH )
     349 00003580     f980   .word  0f980H,50,080e9H,0      ;TO KJOHNSON
     350 000035c0     f980   .word  0f980H,28,080eaH,0      ;TO GILL
     351 00003600     f980   .word  0f980H,34,08127H,0      ;TO RICHMOND
     352 00003640     f980   .word  0f980H,34,08133H,0      ;TO BRADLEY
     353 00003680     f980   .word  0f980H,46,0805cH,0      ;TO WEBB        ( SACRAMENTO )
     354 000036c0     f980   .word  0f980H,34,08141H,0      ;TO DUMARS
     355 00003700     f980   .word  0f980H,34,08151H,0      ;TO STARKS
     356 00003740     f980   .word  0f980H,46,08059H,0      ;TO MUTUMBO
     357 00003780     f980   .word  0f980H,37,080f0H,0      ;TO WILKINS
     358 000037c0     f980   .word  0f980H,28,08051H,0      ;TO HARPER_R    ( L.A. CLIPPERS )
     359 00003800     f980   .word  0f980H,34,0812aH,0      ;TO RIDER
     360 00003840     f980   .word  0f980H,22,0804dH,0      ;TO MILLER
     361 00003880     f980   .word  0f980H,50,080e9H,0      ;TO JOHNSN_L    ( CHARLOTTE )
     362 000038c0     f980   .word  0f980H,43,08058H,0      ;TO OLAJUWON
     363 00003900     f980   .word  0f980H,34,08131H,0      ;TO BAKER
     364 00003940     f980   .word  0f980H,49,08130H,0      ;TO ARMSTRNG
     365 00003980     f980   .word  0f980H,45,08121H,0      ;TO MOURNING
     366 000039c0     f980   .word  0f980H,27,08054H,0      ;TO RICE
     367 00003a00     f980   .word  0f980H,37,080fbH,0      ;TO HARDAWAY
     368 00003a40     f980   .word  0f980H,34,0817bH,0      ;TO JACKSON
     369 00003a80     f980   .word  0f980H,29,080e7H,0      ;TO PIPPEN
     370 00003ac0     f980   .word  0f980H,34,0811cH,0      ;TO MINER
     371 00003b00     f980   .word  0f980H,42,080feH,0      ;TO THOMAS
     372 00003b40     f980   .word  0f980H,34,08161H,0      ;TO WEBBER
     373 00003b80     f980   .word  0f980H,34,0817dH,0      ;TO MASHBURN
     374 00003bc0     f980   .word  0f980H,31,0804fH,0      ;TO WORTHY
     375 00003c00     f980   .word  0f980H,30,080fcH,0      ;TO MULLIN      ( GOLDEN STATE )
     376 00003c40     f980   .word  0f980H,32,08050H,0      ;TO MANNING
     377                    
     378                    
     379                    
     380 00003c80     f990   .word  0f990H,8,081feH,1               ;silence
     381 00003cc0     f990   .word  0f990H,8,081feH,1               ;silence
     382 00003d00     f990   .word  0f990H,8,081feH,1               ;silence
     383 00003d40     f990   .word  0f990H,8,081feH,1               ;silence
     384 00003d80     f990   .word  0f990H,8,081feH,1               ;silence
     385                    
     386                    
TMS340 COFF Macro Assembler Version 6.10     Tue Dec 19 01:45:17 2023
 Copyright (c) 1985-1991  Texas Instruments Incorporated 

announcer speech etc...                                              PAGE    8

     387                            .def    name_speech
     388                    
     389 00003dc0           name_speech
     390                    
     391                    
     392 00003dc0     f980   .word  0f980H,32,080d2H,0      ;MANNING        ( L.A. CLIPPERS )
     393 00003e00     f980   .word  0f980H,31,080bcH,0      ;AUGMON
     394 00003e40     f980   .word  0f980H,35,0806aH,0      ;WILLIS
     395                    
     396 00003e80     f980   .word  0f980H,43,080c3H,0      ;BROWN          ( BOSTON )
     397 00003ec0     f980   .word  0f980H,28,080c4H,0      ;MCDAN
     398 00003f00     f980   .word  0f980H,40,08019H,0      ;GAMBLE
     399                    
     400 00003f40     f980   .word  0f980H,50,080b6H,0      ;JOHNSN_L       ( CHARLOTTE )
     401 00003f80     f980   .word  0f980H,43,080e3H,0      ;HAWKINS
     402 00003fc0     f980   .word  0f980H,43,08025H,0      ;MOURNING
     403                    
     404 00004000     f980   .word  0f980H,29,080b2H,0      ;PIPPEN         ( CHICAGO )
     405 00004040     f980   .word  0f980H,40,08010H,0      ;ARMSTRNG
     406 00004080     f980   .word  0f980H,35,0801eH,0      ;KUKOC
     407 000040c0     f980   .word  0f980H,34,080b3H,0      ;GRANT_HC
     408                    
     409 00004100     f980   .word  0f980H,33,080d7H,0      ;PRICE          ( CLEVELAND )
     410 00004140     f980   .word  0f980H,34,080d6H,0      ;DAUGHRTY
     411 00004180     f980   .word  0f980H,34,08026H,0      ;NANCE
     412                    
     413 000041c0     f980   .word  0f980H,34,0801dH,0      ;JACKSON
     414 00004200     f980   .word  0f980H,44,0801fH,0      ;MASHBURN
     415                    
     416 00004240     f980   .word  0f980H,46,080dbH,0      ;MUTUMBO        ( DENVER )
     417 00004280     f980   .word  0f980H,29,080daH,0      ;ELLIS
     418 000042c0     f980   .word  0f980H,34,08063H,0      ;ROGERS
     419                    
     420 00004300     f980   .word  0f980H,42,080c9H,0      ;THOMAS         ( DETROIT )
     421 00004340     f980   .word  0f980H,40,08017H,0      ;DUMARS
     422 00004380     f980   .word  0f980H,37,080c1H,0      ;ELLIOT
     423 000043c0     f980   .word  0f980H,40,0801bH,0      ;HUNTER
     424                    
     425 00004400     f980   .word  0f980H,37,080c8H,0      ;HARDAWAY       ( GOLDEN STATE )
     426 00004440     f980   .word  0f980H,30,080c7H,0      ;MULLIN
     427 00004480     f980   .word  0f980H,40,08069H,0      ;WEBBER
     428                    
     429 000044c0     f980   .word  0f980H,43,080d8H,0      ;OLAJUWON       ( HOUSTON )
     430 00004500     f980   .word  0f980H,40,08021H,0      ;MAXWELL
     431 00004540     f980   .word  0f980H,34,0801aH,0      ;HORRY
     432 00004580     f980   .word  0f980H,25,080d9H,0      ;SMITH
     433                    
     434 000045c0     f980   .word  0f980H,22,080cdH,0      ;MILLER         ( INDIANA )
     435 00004600     f980   .word  0f980H,34,08064H,0      ;SEALY
     436 00004640     f980   .word  0f980H,34,08066H,0      ;SMITS
     437                    
     438 00004680     f980   .word  0f980H,37,080bbH,0      ;WILKINS        ( ATLANTA )
     439 000046c0     f980   .word  0f980H,28,080d1H,0      ;HARPER_R
     440 00004700     f980   .word  0f980H,34,0802bH,0      ;ROBERTS
     441                    
TMS340 COFF Macro Assembler Version 6.10     Tue Dec 19 01:45:17 2023
 Copyright (c) 1985-1991  Texas Instruments Incorporated 

announcer speech etc...                                              PAGE    9

     442 00004740     f980   .word  0f980H,34,08027H,0      ;PEELER
     443 00004780     f980   .word  0f980H,37,080d0H,0      ;DIVAC
     444 000047c0     f980   .word  0f980H,45,08014H,0      ;CAMPBELL
     445 00004800     f980   .word  0f980H,31,080cfH,0      ;WORTHY         ( L.A. LAKERS )
     446                    
     447 00004840     f980   .word  0f980H,27,080d4H,0      ;RICE           ( MIAMI )
     448 00004880     f980   .word  0f980H,33,080d5H,0      ;SEIKALY
     449 000048c0     f980   .word  0f980H,34,08023H,0      ;MINER
     450                    
     451 00004900     f980   .word  0f980H,37,08011H,0      ;BAKER
     452 00004940     f980   .word  0f980H,29,080cbH,0      ;EDWARDS
     453 00004980     f980   .word  0f980H,34,08016H,0      ;DAY
     454 000049c0     f980   .word  0f980H,32,080ccH,0      ;LOHAUS         ( MILWAUKEE )
     455                    
     456 00004a00     f980   .word  0f980H,37,080deH,0      ;LAETNER        ( MINNESOTTA )
     457 00004a40     f980   .word  0f980H,30,080dfH,0      ;PERSON
     458 00004a80     f980   .word  0f980H,34,0802aH,0      ;RIDER
     459                    
     460 00004ac0     f980   .word  0f980H,31,080e0H,0      ;COLEMAN        ( NEW JERSEY )
     461 00004b00     f980   .word  0f980H,45,080e1H,0      ;KANDERSON
     462 00004b40     f980   .word  0f980H,34,08024H,0      ;CMORRIS
     463 00004b80     f980   .word  0f980H,40,080bdH,0      ;BENJAMIN
     464                    
     465 00004bc0     f980   .word  0f980H,37,080b9H,0      ;EWING          ( NEW YORK )
     466 00004c00     f980   .word  0f980H,34,08020H,0      ;MASON
     467 00004c40     f980   .word  0f980H,34,08067H,0      ;STARKS
     468 00004c80     f980   .word  0f980H,38,080baH,0      ;OAKLEY
     469 00004cc0     f980   .word  0f980H,28,080d1H,0      ;HARPER_D       ( DALLAS )
     470                    
     471 00004d00     f980   .word  0f980H,37,080c8H,0      ;AHARDAWAY
     472 00004d40     f980   .word  0f980H,45,080e1H,0      ;NANDERSON
     473 00004d80     f980   .word  0f980H,40,080b1H,0      ;SKILES
     474                    
     475 00004dc0     f980   .word  0f980H,44,08068H,0      ;WEATHERSPOON   ( PHILADELPHIA )
     476 00004e00     f980   .word  0f980H,40,08013H,0      ;BRADLEY
     477                    
     478 00004e40     f980   .word  0f980H,36,080b7H,0      ;BARKLEY        ( PHOENIX )
     479 00004e80     f980   .word  0f980H,38,080b8H,0      ;MAJERLE
     480 00004ec0     f980   .word  0f980H,50,080b6H,0      ;KJOHNSON
     481                    
     482 00004f00     f980   .word  0f980H,33,080bfH,0      ;DREXLER        ( PORTLAND )
     483 00004f40     f980   .word  0f980H,24,080c0H,0      ;PORTER
     484 00004f80     f980   .word  0f980H,46,080c2H,0      ;CROBINSON
     485 00004fc0     f980   .word  0f980H,34,080b3H,0      ;GRANT_HV
     486                    
     487 00005000     f980   .word  0f980H,34,08065H,0      ;SIMMONS
     488 00005040     f980   .word  0f980H,34,0801cH,0      ;HURLEY
     489 00005080     f980   .word  0f980H,43,08029H,0      ;RICHMOND
     490 000050c0     f980   .word  0f980H,43,080ddH,0      ;TISDALE        ( SACRAMENTO )
     491 00005100     f980   .word  0f980H,46,080dcH,0      ;WEBB
     492                    
     493 00005140     f980   .word  0f980H,46,080c2H,0      ;ROBINSON       ( SAN ANTONIO )
     494 00005180     f980   .word  0f980H,34,0802cH,0      ;RODMAN
     495 000051c0     f980   .word  0f980H,29,080daH,0      ;DELLIS 
     496                    
TMS340 COFF Macro Assembler Version 6.10     Tue Dec 19 01:45:17 2023
 Copyright (c) 1985-1991  Texas Instruments Incorporated 

announcer speech etc...                                              PAGE   10

     497 00005200     f980   .word  0f980H,31,080beH,0      ;KEMP           ( SEATTLE )
     498 00005240     f980   .word  0f980H,40,08028H,0      ;PAYTON
     499 00005280     f980   .word  0f980H,28,080eaH,0      ;GILL
     500 000052c0     f980   .word  0f980H,26,080ceH,0      ;SCHREMPF
     501                    
     502 00005300     f980   .word  0f980H,37,080c5H,0      ;MALONE_K       ( UTAH )
     503 00005340     f980   .word  0f980H,31,080c6H,0      ;STOCKTON
     504 00005380     f980   .word  0f980H,40,08012H,0      ;BENOIT
     505 000053c0     f980   .word  0f980H,36,080e2H,0      ;HORNACEK
     506                    
     507 00005400     f980   .word  0f980H,36,080b4H,0      ;GUGLIOTTA      ( WASHINGTON )
     508 00005440     f980   .word  0f980H,47,08018H,0      ;ELLISON
     509 00005480     f980   .word  0f980H,40,08015H,0      ;CHEANEY
     510                    
     511 000054c0     f980   .word  0f980H,37,080c5H,0      ;MALONE_K       ( UTAH )
     512 00005500     f980   .word  0f980H,31,080beH,0      ;KEMP           ( SEATTLE )
     513 00005540     f980   .word  0f980H,46,080c2H,0      ;ROBINSON       ( SAN ANTONIO )
     514 00005580     f980   .word  0f980H,36,080b7H,0      ;Barkley
     515 000055c0     f980   .word  0f980H,33,080bfH,0      ;DREXLER        ( PORTLAND )
     516 00005600     f980   .word  0f980H,37,080c8H,0      ;AHARDAWAY
     517 00005640     f980   .word  0f980H,37,080b9H,0      ;EWING          ( NEW YORK )
     518 00005680     f980   .word  0f980H,45,080e1H,0      ;KANDERSON
     519 000056c0     f980   .word  0f980H,31,080e0H,0      ;COLEMAN        ( NEW JERSEY )
     520 00005700     f980   .word  0f980H,45,080e1H,0      ;NANDERSON
     521 00005740     f980   .word  0f980H,31,080c6H,0      ;STOCKTON
     522 00005780     f980   .word  0f980H,50,080b6H,0      ;KJOHNSON
     523 000057c0     f980   .word  0f980H,28,080eaH,0      ;GILL
     524 00005800     f980   .word  0f980H,43,08029H,0      ;RICHMOND
     525 00005840     f980   .word  0f980H,40,08013H,0      ;BRADLEY
     526 00005880     f980   .word  0f980H,46,080dcH,0      ;WEBB
     527 000058c0     f980   .word  0f980H,40,08017H,0      ;DUMARS
     528 00005900     f980   .word  0f980H,34,08067H,0      ;STARKS
     529 00005940     f980   .word  0f980H,46,080dbH,0      ;MUTUMBO        ( DENVER )
     530 00005980     f980   .word  0f980H,37,080bbH,0      ;WILKINS        ( ATLANTA )
     531 000059c0     f980   .word  0f980H,28,080d1H,0      ;HARPER_R
     532 00005a00     f980   .word  0f980H,34,0802aH,0      ;RIDER
     533 00005a40     f980   .word  0f980H,22,080cdH,0      ;MILLER         ( INDIANA )
     534 00005a80     f980   .word  0f980H,50,080b6H,0      ;JOHNSN_L       ( CHARLOTTE )
     535 00005ac0     f980   .word  0f980H,43,080d8H,0      ;OLAJUWON       ( HOUSTON )
     536 00005b00     f980   .word  0f980H,37,08011H,0      ;BAKER
     537 00005b40     f980   .word  0f980H,40,08010H,0      ;ARMSTRNG
     538 00005b80     f980   .word  0f980H,40,08021H,0      ;MAXWELL
     539 00005bc0     f980   .word  0f980H,43,08025H,0      ;MOURNING
     540 00005c00     f980   .word  0f980H,27,080d4H,0      ;RICE           ( MIAMI )
     541 00005c40     f980   .word  0f980H,37,080c8H,0      ;HARDAWAY       ( GOLDEN STATE )
     542 00005c80     f980   .word  0f980H,34,0801dH,0      ;JACKSON
     543 00005cc0     f980   .word  0f980H,29,080b2H,0      ;PIPPEN         ( CHICAGO )
     544 00005d00     f980   .word  0f980H,34,08023H,0      ;MINER
     545 00005d40     f980   .word  0f980H,42,080c9H,0      ;THOMAS         ( DETROIT )
     546 00005d80     f980   .word  0f980H,40,08069H,0      ;WEBBER
     547 00005dc0     f980   .word  0f980H,44,0801fH,0      ;MASHBURN
     548 00005e00     f980   .word  0f980H,31,080cfH,0      ;WORTHY         ( L.A. LAKERS )
     549 00005e40     f980   .word  0f980H,30,080c7H,0      ;MULLIN
     550 00005e80     f980   .word  0f980H,32,080d2H,0      ;MANNING        ( L.A. CLIPPERS )
     551                    
TMS340 COFF Macro Assembler Version 6.10     Tue Dec 19 01:45:17 2023
 Copyright (c) 1985-1991  Texas Instruments Incorporated 

announcer speech etc...                                              PAGE   11

     552                    
     553                    
     554 00005ec0     f990   .word  0f990H,8,081feH,1               ;silence
     555 00005f00     f990   .word  0f990H,8,081feH,1               ;silence
     556 00005f40     f990   .word  0f990H,8,081feH,1               ;silence
     557                    
     558 00005f80           name_blank
     559 00005f80           pass_blank
     560 00005f80     f980   .word  0f980H,1,081feH,0               ;blank
     561                    
     562                    
     563 00005fc0           special_name_speech
     564                    
     565 00005fc0     f980          .word   0f980H,1,081feH,0               ;0  GOSKIE      
     566 00006000     f980          .word   0f980H,1,081feH,0               ;1  RIVETT              
     567 00006040     f980          .word   0f980H,1,081feH,0               ;2  CARLTON
     568 00006080     f980          .word   0f980H,1,081feH,0               ;3  DIVITA
     569 000060c0     f980          .word   0f980H,1,081feH,0               ;4  LIPTAK
     570 00006100     f980          .word   0f980H,1,081feH,0               ;5  TURMELL
     571 00006140     f980          .word   0f980H,1,081feH,0               ;6  HEY
     572 00006180     f980          .word   0f980H,1,081feH,0               ;7  PETRO
     573 000061c0     f980          .word   0f980H,1,081feH,0               ;8  NEWCOMER
     574 00006200     f980          .word   0f980H,1,081feH,0               ;9  OURSLER
     575 00006240     f980          .word   0f980H,1,081feH,0               ;10 LASCO
     576 00006280     f980          .word   0f980H,1,081feH,0               ;11 MORRIS
     577 000062c0     f980          .word   0f980H,1,081feH,0               ;12 MEDNICK
     578 00006300     f980          .word   0f980H,1,081feH,0               ;13 FORDEN      
     579 00006340     f980          .word   0f980H,1,081feH,0               ;14 KINKEAD
     580 00006380     f980          .word   0f980H,1,081feH,0               ;15 JARVIS      
     581                    
     582 000063c0     f980          .word   0f980H,50,08196H,0      ;16 SUBZ        
     583                    
     584 00006400     f980          .word   0f980H,1,081feH,0               ;17 HAEGER      
     585 00006440     f980          .word   0f980H,1,081feH,0               ;18 SIMPSON
     586 00006480     f980          .word   0f980H,1,081feH,0               ;19 GREEN       
     587 000064c0     f980          .word   0f980H,1,081feH,0               ;20 GENTILE
     588 00006500     f980          .word   0f980H,1,081feH,0               ;21 DILLON      
     589 00006540     f980          .word   0f980H,1,081feH,0               ;22 LOWES       
     590 00006580     f980          .word   0f980H,1,081feH,0               ;23 VOGEL       
     591 000065c0     f980          .word   0f980H,1,081feH,0               ;24 TSUI        
     592 00006600     f980          .word   0f980H,1,081feH,0               ;25 KAM         
     593 00006640     f980          .word   0f980H,1,081feH,0               ;26 DEAL                
     594 00006680     f980          .word   0f980H,1,081feH,0               ;27 BOOTY               
     595 000066c0     f980          .word   0f980H,1,081feH,0               ;28 LOFFRE              
     596 00006700     f980          .word   0f980H,1,081feH,0               ;29 PENACHO     
     597 00006740     f980          .word   0f980H,1,081feH,0               ;30 BARKER              
     598 00006780     f980          .word   0f980H,1,081feH,0               ;31 COX
     599                                            
     600 000067c0     f980          .word   0f980H,43,080b0H,0      ;32 RAIDEN
     601 00006800     f980          .word   0f980H,1,081feH,0               ;33 REAPER              
     602                    
     603 00006840     f980          .word   0f980H,1,081feH,0               ;34 MACIKA              
     604 00006880     f980          .word   0f980H,1,081feH,0               ;35 SHARPE              
     605 000068c0     f980          .word   0f980H,1,081feH,0               ;36 BERAN               
     606                    
TMS340 COFF Macro Assembler Version 6.10     Tue Dec 19 01:45:17 2023
 Copyright (c) 1985-1991  Texas Instruments Incorporated 

announcer speech etc...                                              PAGE   12

     607 00006900     f980          .word   0f980H,1,081feH,0               ;38 KONGO       
     608                    
     609 00006940     f980          .word   0f980H,1,081feH,0               ;39 PONTAREL    
     610                    
     611 00006980     f980          .word   0f980H,1,081feH,0               ;40 ELVIS               
     612                    
     613 000069c0     f980          .word   0f980H,1,081feH,0               ;41 DAVIS               
     614 00006a00     f980          .word   0f980H,1,081feH,0               ;42 BOON                
     615 00006a40     f980          .word   0f980H,1,081feH,0               ;43 TOBIAS              
     616 00006a80     f980          .word   0f980H,1,081feH,0               ;44 HEITSCH     
     617 00006ac0     f980          .word   0f980H,1,081feH,0               ;45 DABEL               
     618 00006b00     f980          .word   0f980H,1,081feH,0               ;46 MARTINEZ    
     619 00006b40     f980          .word   0f980H,1,081feH,0               ;47 DAVIES              
     620 00006b80     f980          .word   0f980H,1,081feH,0               ;48 HOSK                
     621 00006bc0     f980          .word   0f980H,1,081feH,0               ;49 OLIV                
     622                    
     623 00006c00     f980          .word   0f980H,50,08197H,0      ;50 SCORP               
     624 00006c40     f980          .word   0f980H,50,081a5H,0      ;51 REPT   
     625                                    
     626 00006c80     f980          .word   0f980H,1,081feH,0               ;52 GRANNER
     627 00006cc0     f980          .word   0f980H,40,08199H,0      ;53 GRIFFEY
     628 00006d00     f980          .word   0f980H,40,080B1H,0      ;54 SKILES
     629 00006d40     f980          .word   0f980H,1,081feH,0               ;55 LINHOFF
     630                    
     631                    
     632 00006d80     f980          .word   0f980H,37,080bbH,0      ;56 WILKINS
     633 00006dc0     f980          .word   0f980H,43,080c3H,0      ;57 BROWN
     634 00006e00     f980          .word   0f980H,43,08025H,0      ;58 MOURNING
     635 00006e40     f980          .word   0f980H,29,080b2H,0      ;59 PIPPEN  
     636                    
     637 00006e80     f980          .word   0f980H,42,08028H,0      ;60 PAYTON
     638                    
     639 00006ec0     f980          .word   0f980H,40,08069H,0      ;61 WEBBER
     640 00006f00     f980          .word   0f980H,43,080d8H,0      ;62 OLAJUWON
     641 00006f40     f980          .word   0f980H,31,080e0H,0      ;63 COLEMAN
     642 00006f80     f980          .word   0f980H,37,080b9H,0      ;64 EWING
     643 00006fc0     f980          .word   0f980H,36,080b7H,0      ;65 BARKLEY
     644 00007000     f980          .word   0f980H,46,080c2H,0      ;66 ROBINSON
     645 00007040     f980          .word   0f980H,31,080beH,0      ;67 KEMP
     646 00007080     f980          .word   0f980H,37,080c5H,0      ;68 MALONE
     647                    
     648                    
     649 000070c0           special_pass_speech
     650                    
     651 000070c0     f980          .word   0f980H,1,081feH,0               ;0  GOSKIE      
     652 00007100     f980          .word   0f980H,1,081feH,0               ;1  RIVETT              
     653 00007140     f980          .word   0f980H,1,081feH,0               ;2  CARLTON
     654 00007180     f980          .word   0f980H,1,081feH,0               ;3  DIVITA
     655 000071c0     f980          .word   0f980H,1,081feH,0               ;4  LIPTAK
     656 00007200     f980          .word   0f980H,1,081feH,0               ;5  TURMELL
     657 00007240     f980          .word   0f980H,1,081feH,0               ;6  HEY
     658 00007280     f980          .word   0f980H,1,081feH,0               ;7  PETRO
     659 000072c0     f980          .word   0f980H,1,081feH,0               ;8  NEWCOMER
     660 00007300     f980          .word   0f980H,1,081feH,0               ;9  OURSLER
     661 00007340     f980          .word   0f980H,1,081feH,0               ;10 LASCO
TMS340 COFF Macro Assembler Version 6.10     Tue Dec 19 01:45:17 2023
 Copyright (c) 1985-1991  Texas Instruments Incorporated 

announcer speech etc...                                              PAGE   13

     662 00007380     f980          .word   0f980H,1,081feH,0               ;11 MORRIS
     663 000073c0     f980          .word   0f980H,1,081feH,0               ;12 MEDNICK
     664 00007400     f980          .word   0f980H,1,081feH,0               ;13 FORDEN      
     665 00007440     f980          .word   0f980H,1,081feH,0               ;14 KINKEAD
     666 00007480     f980          .word   0f980H,1,081feH,0               ;15 JARVIS      
     667                    
     668 000074c0     f980          .word   0f980H,50,081a1H,0      ;16 SUBZ        
     669                    
     670 00007500     f980          .word   0f980H,1,081feH,0               ;17 HAEGER      
     671 00007540     f980          .word   0f980H,1,081feH,0               ;18 SIMPSON
     672 00007580     f980          .word   0f980H,1,081feH,0               ;19 GREEN       
     673 000075c0     f980          .word   0f980H,1,081feH,0               ;20 GENTILE
     674 00007600     f980          .word   0f980H,1,081feH,0               ;21 DILLON      
     675 00007640     f980          .word   0f980H,1,081feH,0               ;22 LOWES       
     676 00007680     f980          .word   0f980H,1,081feH,0               ;23 VOGEL       
     677 000076c0     f980          .word   0f980H,1,081feH,0               ;24 TSUI        
     678 00007700     f980          .word   0f980H,1,081feH,0               ;25 KAM         
     679 00007740     f980          .word   0f980H,1,081feH,0               ;26 DEAL                
     680 00007780     f980          .word   0f980H,1,081feH,0               ;27 BOOTY               
     681 000077c0     f980          .word   0f980H,1,081feH,0               ;28 LOFFRE              
     682 00007800     f980          .word   0f980H,1,081feH,0               ;29 PENACHO     
     683 00007840     f980          .word   0f980H,1,081feH,0               ;30 BARKER              
     684 00007880     f980          .word   0f980H,1,081feH,0               ;31 COX                 
     685                    
     686 000078c0     f980          .word   0f980H,50,080e5H,0      ;32 RAIDEN
     687 00007900     f980          .word   0f980H,1,081feH,0               ;33 REAPER              
     688                    
     689 00007940     f980          .word   0f980H,1,081feH,0               ;34 MACIKA              
     690 00007980     f980          .word   0f980H,1,081feH,0               ;35 SHARPE              
     691 000079c0     f980          .word   0f980H,1,081feH,0               ;36 BERAN 
     692                                    
     693 00007a00     f980          .word   0f980H,1,081feH,0               ;38 KONGO       
     694                    
     695 00007a40     f980          .word   0f980H,1,081feH,0               ;39 PONTAREL    
     696                    
     697 00007a80     f980          .word   0f980H,1,081feH,0               ;40 ELVIS               
     698                    
     699 00007ac0     f980          .word   0f980H,1,081feH,0               ;41 DAVIS               
     700 00007b00     f980          .word   0f980H,1,081feH,0               ;42 BOON                
     701 00007b40     f980          .word   0f980H,1,081feH,0               ;43 TOBIAS              
     702 00007b80     f980          .word   0f980H,1,081feH,0               ;44 HEITSCH     
     703 00007bc0     f980          .word   0f980H,1,081feH,0               ;45 DABEL               
     704 00007c00     f980          .word   0f980H,1,081feH,0               ;46 MARTINEZ    
     705 00007c40     f980          .word   0f980H,1,081feH,0               ;47 DAVIES              
     706 00007c80     f980          .word   0f980H,1,081feH,0               ;48 HOSK                
     707 00007cc0     f980          .word   0f980H,1,081feH,0               ;49 OLIV                
     708                    
     709 00007d00     f980          .word   0f980H,50,081a2H,0      ;50 SCORP               
     710 00007d40     f980          .word   0f980H,50,081a6H,0      ;51 REPT                
     711                    
     712 00007d80     f980          .word   0f980H,1,081feH,0               ;52 GRANNER
     713                    
     714 00007dc0     f980          .word   0f980H,40,0819AH,0      ;53 TO GRIFFEY
     715                    
     716 00007e00     f980          .word   0f980H,40,080e4H,0      ;54 SKILES
TMS340 COFF Macro Assembler Version 6.10     Tue Dec 19 01:45:17 2023
 Copyright (c) 1985-1991  Texas Instruments Incorporated 

announcer speech etc...                                              PAGE   14

     717 00007e40     f980          .word   0f980H,1,081feH,0               ;55 LINHOFF
     718                    
     719                    
     720                    
     721 00007e80     f980          .word   0f980H,37,080f0H,0      ;56 TO WILKINS
     722 00007ec0     f980          .word   0f980H,43,080f8H,0      ;57 TO BROWN
     723 00007f00     f980          .word   0f980H,45,08121H,0      ;58 TO MOURNING
     724 00007f40     f980          .word   0f980H,29,080e7H,0      ;59 TO PIPPEN  
     725                    
     726 00007f80     f980           .word  0f980H,40,08126H,0      ;60 TO PAYTON   ( SEATTLE )
     727                    
     728 00007fc0     f980          .word   0f980H,45,08161H,0      ;61 TO WEBBER
     729 00008000     f980          .word   0f980H,43,08058H,0      ;62 TO OLAJUWON
     730 00008040     f980          .word   0f980H,40,08060H,0      ;63 TO COLEMAN
     731 00008080     f980          .word   0f980H,40,080eeH,0      ;64 TO EWING
     732 000080c0     f980          .word   0f980H,40,080ecH,0      ;65 TO BARKLEY
     733 00008100     f980          .word   0f980H,40,080f5H,0      ;66 TO ROBINSON
     734 00008140     f980          .word   0f980H,40,080f1H,0      ;67 TO KEMP
     735 00008180     f980          .word   0f980H,40,080faH,0      ;68 TO MALONE
     736                    
     737                    
     738                    
     739 000081c0           team_speech
     740 000081c0     f981   .word  0f981H,50,08035H,0      ;00 ATLANTA             "Hawks"
     741 00008200     f981   .word  0f981H,55,08033H,0      ;01 BOSTON              "Celtics"
     742 00008240     f981   .word  0f981H,37,08036H,0      ;02 CHARLOTTE           "Hornets"
     743 00008280     f981   .word  0f981H,43,08031H,0      ;03 CHICAGO             "Bulls"
     744 000082c0     f981   .word  0f981H,65,08032H,0      ;04 CLEVELAND           "Cavaliers"
     745 00008300     f981   .word  0f981H,45,0803cH,0      ;05 DALLAS              "Maverick"
     746 00008340     f981   .word  0f981H,40,0803eH,0      ;06 DENVER              "Nuggets"
     747 00008380     f981   .word  0f981H,40,08040H,0      ;07 DETROIT             "Pistons"
     748 000083c0     f981   .word  0f981H,48,08048H,0      ;08 GOLDEN STATE        "Warriors"
     749 00008400     f981   .word  0f981H,43,08041H,0      ;09 HOUSTON             "Rockets"
     750 00008440     f981   .word  0f981H,46,0803fH,0      ;10 INDIANA             "Pacers"
     751 00008480     f981   .word  0f981H,43,08034H,0      ;11 L.A. CLIPPERS       "Clippers"
     752 000084c0     f981   .word  0f981H,42,0803aH,0      ;12 L.A. LAKERS         "Lakers"
     753 00008500     f981   .word  0f981H,37,08046H,0      ;13 MIAMI               "Heat"
     754 00008540     f981   .word  0f981H,26,0804aH,0      ;14 MILWAUKEE           "Bucks"
     755 00008580     f981   .word  0f981H,51,08047H,0      ;15 MINNESOTTA          "Timberwolves"
     756 000085c0     f981   .word  0f981H,40,0803dH,0      ;16 NEW JERSEY          "Nets"
     757 00008600     f981   .word  0f981H,43,08039H,0      ;17 NEW YORK            "Knicks"
     758 00008640     f981   .word  0f981H,38,0803bH,0      ;18 ORLANDO             "Magic"
     759 00008680     f981   .word  0f981H,47,08042H,0      ;19 PHILADELPHIA        "Sixers"
     760 000086c0     f981   .word  0f981H,42,08044H,0      ;20 PHOENIX             "Suns"
     761 00008700     f981   .word  0f981H,48,08049H,0      ;21 PORTLAND            "Blazers"
     762 00008740     f981   .word  0f981H,49,08038H,0      ;22 SACRAMENTO          "Kings"
     763 00008780     f981   .word  0f981H,46,08043H,0      ;23 SAN ANTONIO         "Spurs"
     764 000087c0     f981   .word  0f981H,59,08045H,0      ;24 SEATTLE             "Supersonics"
     765 00008800     f981   .word  0f981H,42,08037H,0      ;25 UTAH                "Jazz"
     766 00008840     f981   .word  0f981H,39,08030H,0      ;26 WASHINGTON          "Bullets"
     767 00008880     f981   .word  0f981H,51,081e2H,0      ;GOOOOD!!!
     768                    
     769                    
     770                    
     771 000088c0           STAB_END
TMS340 COFF Macro Assembler Version 6.10     Tue Dec 19 01:45:17 2023
 Copyright (c) 1985-1991  Texas Instruments Incorporated 

announcer speech etc...                                              PAGE   15

     772                    
     773                    
     774                    
     775 000088c0            SUBRP  speech_play
     776                    
     777 000088c0     0d5f          calla   snd_play1
         000088d0 00000000! 
     778 000088f0     0960          rets
     779                    
     780                    
     781 00008900            SUBR   speech_playovrp
     782                    
     783 00008900     0d5f          calla   snd_play1ovrp
         00008910 00000000! 
     784 00008930     0960          rets
     785                    
     786                    
     787                    
     788 00008940            SUBR   shoots_speech
     789                    
     790 00008940                   PUSH    a1,a2
     791                    
     792 00008960     0580          move    a0,@plyr_shot
         00008970 00000030- 
     793 00008990     0d3f          callr   calc_score_diff
         000089a0     0411  
     794                    
     795 000089b0     5600          clr     a0
     796 000089c0     0580          move    a0,@ugly_stat           ;not ugly
         000089d0 00000060- 
     797 000089f0     0580          move    a0,@freakout            ;no freakout on score
         00008a00 000000a0- 
     798                    
     799 00008a20     0d3f          callr   at_buzzer
         00008a30     0346  
     800 00008a40     c909          jrnc    ucnkxshtspeech
     801                    
     802 00008a50     05a0          move    @shot_type,a0
         00008a60 00000020- 
     803 00008a80     24a0          sll     5,a0                    ;x 32 bits
     804 00008a90     0b20          addi    ucnkshoots_table,a0
         00008aa0 00008b10' 
     805 00008ac0     8600          move    *a0,a0,L
     806 00008ad0     0920          call    a0
     807                    
     808 00008ae0           ucnkxshtspeech
     809 00008ae0                   PULL    a1,a2
     810 00008b00     0960          rets
     811                    
     812 00008b10           ucnkshoots_table
     813 00008b10 00008c50'         .long   ucnkdesperation
     814 00008b30 00008d90'         .long   ucnklong_range
     815 00008b50 00008eb0'         .long   ucnk2_points
     816 00008b70 00009040'         .long   ucnk3_points
     817 00008b90 00009310'         .long   ucnkhook_shot
TMS340 COFF Macro Assembler Version 6.10     Tue Dec 19 01:45:17 2023
 Copyright (c) 1985-1991  Texas Instruments Incorporated 

announcer speech etc...                                              PAGE   16

     818 00008bb0 000095b0'         .long   ucnklay_up
     819 00008bd0 00009620'         .long   ucnkfinger_roll
     820 00008bf0 00009680'         .long   ucnkdunk_short
     821 00008c10 000096e0'         .long   ucnkdunk_med
     822 00008c30 00009740'         .long   ucnkdunk_long
     823                    
     824 00008c50           ucnkdesperation
     825                    
     826 00008c50     09c0          movi    2,a0
         00008c60     0002  
     827 00008c70     0d5f          calla   rndrng0
         00008c80 00000000! 
     828 00008ca0     24a0          sll     5,a0            ;x 32 bits
     829 00008cb0     0b20          addi    ucnkdesptab,a0
         00008cc0 00008d30' 
     830 00008ce0     8600          move    *a0,a0,L
     831 00008cf0     0d5f          calla   speech_play
         00008d00 000088c0' 
     832 00008d20     0960          rets
     833                    
     834 00008d30           ucnkdesptab
     835 00008d30 00000bc0'         .long   shts5   ;from long range
     836 00008d50 00000c00'         .long   shts6   ;launches a shot
     837 00008d70 00000b80'         .long   shts4   ;wild shot
     838                    
     839 00008d90           ucnklong_range
     840                    
     841 00008d90     09c0          movi    1,a0
         00008da0     0001  
     842 00008db0     0d5f          calla   rndrng0
         00008dc0 00000000! 
     843 00008de0     24a0          sll     5,a0            ;x 32 bits
     844 00008df0     0b20          addi    ucnklongtab,a0
         00008e00 00008e70' 
     845 00008e20     8600          move    *a0,a0,L
     846 00008e30     0d5f          calla   speech_play
         00008e40 000088c0' 
     847 00008e60     0960          rets
     848                    
     849 00008e70           ucnklongtab
     850 00008e70 00000bc0'         .long   shts5   ;from long range
     851 00008e90 00000c00'         .long   shts6   ;launches a shot
     852                    
     853 00008eb0           ucnk2_points
     854                    
     855 00008eb0     0d3f          callr   ugly_shot
         00008ec0     0355  
     856 00008ed0     c915          jrnc    ucnkugly_2pts
     857                    
     858 00008ee0     0d3f          callr   wideopen_speech
         00008ef0     0641  
     859 00008f00     c912          jrnc    ucnkx2pts
     860                    
     861 00008f10     09c0          movi    100,a0                  ;call for two 10% time
         00008f20     0064  
TMS340 COFF Macro Assembler Version 6.10     Tue Dec 19 01:45:17 2023
 Copyright (c) 1985-1991  Texas Instruments Incorporated 

announcer speech etc...                                              PAGE   17

     862 00008f30     0d5f          calla   RNDPER
         00008f40 00000000! 
     863 00008f60     c306          jrhi    ucnkdo_for2
     864                    
     865 00008f70     05a0          move    @plyr_shot,a0
         00008f80 00000030- 
     866 00008fa0     0d3f          callr   call_player_name
         00008fb0     0203  
     867 00008fc0     c906          jrnc    ucnkx2pts                       ;nc = name called
     868                    
     869 00008fd0           ucnkdo_for2
     870 00008fd0     09e0          movi    shts8,a0        ;for two
         00008fe0 00000c80' 
     871 00009000     0d5f          calla   speech_play
         00009010 000088c0' 
     872 00009030           ucnkx2pts
     873 00009030           ucnkugly_2pts
     874 00009030     0960          rets
     875                    
     876                    
     877 00009040           ucnk3_points
     878                    
     879 00009040     0d3f          callr   ugly_shot
         00009050     033c  
     880 00009060     c91d          jrnc    ucnkx3pts
     881                    
     882 00009070     0d3f          callr   wideopen_speech
         00009080     0628  
     883 00009090     c91a          jrnc    ucnkx3pts
     884                    
     885 000090a0     09c0          movi    300,a0                  ;call name 30% time
         000090b0     012c  
     886 000090c0     0d5f          calla   RNDPER
         000090d0 00000000! 
     887 000090f0     c206          jrls    ucnkno_name3p
     888                    
     889 00009100     05a0          move    @plyr_shot,a0
         00009110 00000030- 
     890 00009130     0d3f          callr   call_player_name
         00009140     01ea  
     891 00009150     c90e          jrnc    ucnkx3pts                       ;nc = name called
     892                    
     893 00009160           ucnkno_name3p
     894 00009160     09c0          movi    4,a0
         00009170     0004  
     895 00009180     0d5f          calla   rndrng0
         00009190 00000000! 
     896 000091b0     24a0          sll     5,a0    ;x 32 bits
     897 000091c0     0b20          addi    ucnk3ptab,a0
         000091d0 00009250' 
     898 000091f0     8600          move    *a0,a0,L
     899 00009200     ca03          jrz     ucnkx3pts
     900 00009210     0d5f          calla   speech_play
         00009220 000088c0' 
     901 00009240           ucnkx3pts
TMS340 COFF Macro Assembler Version 6.10     Tue Dec 19 01:45:17 2023
 Copyright (c) 1985-1991  Texas Instruments Incorporated 

announcer speech etc...                                              PAGE   18

     902 00009240     0960          rets
     903                    
     904 00009250           ucnk3ptab
     905 00009250 00000a40'         .long   shts0           ;from the 3 point line
     906 00009270 00000a80'         .long   shts1           ;shoots for 3
     907 00009290 00000a80'         .long   shts1           ;shoots for 3
     908 000092b0 00000ac0'         .long   shts2           ;from down town
     909 000092d0 00000b00'         .long   shts3           ;he shoots from the outside
     910 000092f0 00000b40'         .long   shtsrb          ;rainbow
     911                    
     912 00009310           ucnkhook_shot
     913                    
     914 00009310     5600          clr     a0
     915 00009320     0580          move    a0,@skycalled
         00009330 000002d0- 
     916                    
     917 00009350     0d3f          callr   ugly_shot
         00009360     030b  
     918 00009370     c91e          jrnc    ucnkxhook
     919                    
     920 00009380     05a0          move    @shot_distance,a0       ;distance from hoop
         00009390 00000050- 
     921 000093b0     0b40          cmpi    130,a0
         000093c0     ff7d  
     922 000093d0     c413          jrlt    ucnktoo_close
     923                    
     924 000093e0     09c0          movi    1,a0
         000093f0     0001  
     925 00009400     0d5f          calla   rndrng0
         00009410 00000000! 
     926 00009430     24a0          sll     5,a0            ;x 32 bits
     927 00009440     0b20          addi    ucnkhooktab,a0
         00009450 00009570' 
     928 00009470     8600          move    *a0,a0,L
     929 00009480     0d5f          calla   speech_play
         00009490 000088c0' 
     930 000094b0     c805          jrc     ucnkfailed
     931                    
     932 000094c0     1820          movk    1,a0
     933 000094d0     0580          move    a0,@skycalled
         000094e0 000002d0- 
     934 00009500     0960          rets
     935                    
     936 00009510           ucnkfailed
     937 00009510           ucnktoo_close
     938 00009510     05a0          move    @plyr_shot,a0
         00009520 00000030- 
     939 00009540     0d3f          callr   call_player_name
         00009550     01a9  
     940                    
     941 00009560           ucnkxhook
     942 00009560     0960          rets
     943                    
     944 00009570           ucnkhooktab
     945 00009570 00000cc0'         .long   hooksht         ;1 takes the hook shot
TMS340 COFF Macro Assembler Version 6.10     Tue Dec 19 01:45:17 2023
 Copyright (c) 1985-1991  Texas Instruments Incorporated 

announcer speech etc...                                              PAGE   19

     946 00009590 00000cc0'         .long   hooksht         ;1 takes the hook shot
     947                    
     948 000095b0           ucnklay_up
     949                    
     950 000095b0     0960          rets
     951                    
     952 000095c0     05a0          move    @plyr_shot,a0
         000095d0 00000030- 
     953 000095f0     0d3f          callr   call_player_name
         00009600     019e  
     954                    
     955 00009610           ucnkxlay
     956 00009610     0960          rets
     957                    
     958 00009620           ucnkfinger_roll
     959                    
     960 00009620     05a0          move    @plyr_shot,a0
         00009630 00000030- 
     961 00009650     0d3f          callr   call_player_name
         00009660     0198  
     962                    
     963 00009670           ucnkxfing
     964 00009670     0960          rets
     965                    
     966 00009680           ucnkdunk_short
     967                    
     968 00009680     05a0          move    @plyr_shot,a0
         00009690 00000030- 
     969 000096b0     0d3f          callr   call_player_name
         000096c0     0192  
     970                    
     971 000096d0     0960          rets
     972                    
     973 000096e0           ucnkdunk_med
     974                    
     975 000096e0     05a0          move    @plyr_shot,a0
         000096f0 00000030- 
     976 00009710     0d3f          callr   call_player_name
         00009720     018c  
     977                    
     978 00009730     0960          rets
     979                    
     980 00009740           ucnkdunk_long
     981                    
     982 00009740     09c0          movi    400,a0                  ;call name 40% time
         00009750     0190  
     983 00009760     0d5f          calla   RNDPER
         00009770 00000000! 
     984 00009790     c206          jrls    ucnknoname_dnkl
     985                    
     986 000097a0     05a0          move    @plyr_shot,a0
         000097b0 00000030- 
     987 000097d0     0d3f          callr   call_player_name
         000097e0     0180  
     988 000097f0     c90e          jrnc    ucnkxdnkl                       ;nc = name called
TMS340 COFF Macro Assembler Version 6.10     Tue Dec 19 01:45:17 2023
 Copyright (c) 1985-1991  Texas Instruments Incorporated 

announcer speech etc...                                              PAGE   20

     989                    
     990 00009800           ucnknoname_dnkl
     991 00009800     09c0          movi    1,a0
         00009810     0001  
     992 00009820     0d5f          calla   rndrng0
         00009830 00000000! 
     993 00009850     24a0          sll     5,a0    ;x 32 bits
     994 00009860     0b20          addi    ucnkdnktab,a0
         00009870 000098f0' 
     995 00009890     8600          move    *a0,a0,L
     996 000098a0     ca03          jrz     ucnkxdnkl
     997 000098b0     0d5f          calla   speech_play
         000098c0 000088c0' 
     998 000098e0           ucnkxdnkl
     999 000098e0     0960          rets
    1000                    
    1001 000098f0           ucnkdnktab
    1002 000098f0 000001c0'         .long   scrs7           ;oh my!
    1003 00009910 00000200'         .long   scrs8           ;spectacular dunk
    1004                    
    1005                    
    1006 00009930            SUBR   scored_speech
    1007                    
    1008 00009930                   PUSH    a1,a2
    1009                    
    1010 00009950     0d3f          callr   blowout
         00009960     01ac  
    1011 00009970     c90f          jrnc    tmuxxscrdspeech
    1012                    
    1013 00009980     0d3f          callr   onfire_speech
         00009990     0559  
    1014 000099a0     c90c          jrnc    tmuxxscrdspeech
    1015                    
    1016 000099b0     0d3f          callr   lucky_bounce
         000099c0     0290  
    1017 000099d0     c909          jrnc    tmuxxscrdspeech
    1018                    
    1019 000099e0     05a0          move    @shot_type,a0
         000099f0 00000020- 
    1020 00009a10     24a0          sll     5,a0                    ;x 32 bits
    1021 00009a20     0b20          addi    tmuxscored_table,a0
         00009a30 00009aa0' 
    1022 00009a50     8600          move    *a0,a0,L
    1023 00009a60     0920          call    a0
    1024                    
    1025 00009a70           tmuxxscrdspeech
    1026 00009a70                   PULL    a1,a2
    1027 00009a90     0960          rets
    1028                    
    1029                    
    1030 00009aa0           tmuxscored_table
    1031 00009aa0 00009be0'         .long   tmuxdesperation
    1032 00009ac0 00009db0'         .long   tmuxlong_range
    1033 00009ae0 00009f40'         .long   tmux2_points
    1034 00009b00 0000a1b0'         .long   tmux3_points
TMS340 COFF Macro Assembler Version 6.10     Tue Dec 19 01:45:17 2023
 Copyright (c) 1985-1991  Texas Instruments Incorporated 

announcer speech etc...                                              PAGE   21

    1035 00009b20 0000a400'         .long   tmuxhook_shot
    1036 00009b40 0000a530'         .long   tmuxlay_up
    1037 00009b60 0000a680'         .long   tmuxfinger_roll
    1038 00009b80 0000a820'         .long   tmuxdunk_short
    1039 00009ba0 0000a820'         .long   tmuxdunk_med
    1040 00009bc0 0000a820'         .long   tmuxdunk_long
    1041                    
    1042 00009be0           tmuxdesperation
    1043 00009be0           hotscored
    1044                    
    1045 00009be0     0d3f          callr   itsgood
         00009bf0     03e6  
    1046 00009c00     c90d          jrnc    tmuxxdesp
    1047                    
    1048 00009c10     09c0          movi    5,a0
         00009c20     0005  
    1049 00009c30     0d5f          calla   rndrng0
         00009c40 00000000! 
    1050 00009c60     24a0          sll     5,a0            ;x 32 bits
    1051 00009c70     0b20          addi    tmuxdesptab,a0
         00009c80 00009cf0' 
    1052 00009ca0     8600          move    *a0,a0,L
    1053 00009cb0     0d5f          calla   speech_play
         00009cc0 000088c0' 
    1054 00009ce0           tmuxxdesp
    1055 00009ce0     0960          rets
    1056                    
    1057 00009cf0           tmuxdesptab
    1058 00009cf0 000001c0'         .long   scrs7           ;0 oh my!
    1059 00009d10 000001c0'         .long   scrs7           ;1 oh my!
    1060 00009d30 000001c0'         .long   scrs7           ;2 oh my!
    1061 00009d50 000001c0'         .long   scrs7           ;3 oh my!
    1062 00009d70 00001240'         .long   takethat        ;4 take that!
    1063 00009d90 00001300'         .long   hello           ;5 hello!
    1064                    
    1065 00009db0           tmuxlong_range
    1066                    
    1067 00009db0     0d3f          callr   itsgood
         00009dc0     03c9  
    1068 00009dd0     c90d          jrnc    tmuxxlong
    1069                    
    1070 00009de0     09c0          movi    3,a0
         00009df0     0003  
    1071 00009e00     0d5f          calla   rndrng0
         00009e10 00000000! 
    1072 00009e30     24a0          sll     5,a0            ;x 32 bits
    1073 00009e40     0b20          addi    tmuxlongtab,a0
         00009e50 00009ec0' 
    1074 00009e70     8600          move    *a0,a0,L
    1075 00009e80     0d5f          calla   speech_play
         00009e90 000088c0' 
    1076 00009eb0           tmuxxlong
    1077 00009eb0     0960          rets
    1078                    
    1079 00009ec0           tmuxlongtab
TMS340 COFF Macro Assembler Version 6.10     Tue Dec 19 01:45:17 2023
 Copyright (c) 1985-1991  Texas Instruments Incorporated 

announcer speech etc...                                              PAGE   22

    1080 00009ec0 00000100'         .long   scrs4           ;0 what a shot
    1081 00009ee0 00000000'         .long   scrs0           ;1 and it's good
    1082 00009f00 00000dc0'         .long   greatsht        ;2 great shot!
    1083 00009f20 00000ec0'         .long   hescores        ;4 he scores
    1084                    
    1085 00009f40           tmux2_points
    1086                    
    1087 00009f40     09c0          movi    500,a0          ;call 50% swishes
         00009f50     01f4  
    1088 00009f60     0d3f          callr   swish_speech
         00009f70     03c9  
    1089 00009f80     c913          jrnc    tmuxx2pts
    1090                    
    1091 00009f90     09c0          movi    300,a0          ;call scores 20% time
         00009fa0     012c  
    1092 00009fb0     0d5f          calla   RNDPER
         00009fc0 00000000! 
    1093 00009fe0     c20d          jrls    tmuxx2pts
    1094                    
    1095 00009ff0     09c0          movi    6,a0
         0000a000     0006  
    1096 0000a010     0d5f          calla   rndrng0
         0000a020 00000000! 
    1097 0000a040     24a0          sll     5,a0            ;x 32 bits
    1098 0000a050     0b20          addi    tmux2tab,a0
         0000a060 0000a0d0' 
    1099 0000a080     8600          move    *a0,a0,L
    1100 0000a090     0d5f          calla   speech_play
         0000a0a0 000088c0' 
    1101 0000a0c0           tmuxx2pts
    1102                    
    1103 0000a0c0     0960          rets
    1104                    
    1105 0000a0d0           tmux2tab
    1106 0000a0d0 00000300'         .long   scrs12          ;0 count it (scores)
    1107 0000a0f0 00000300'         .long   scrs12          ;1 count it (scores)
    1108 0000a110 00000ec0'         .long   hescores        ;2 he scores
    1109 0000a130 00000ec0'         .long   hescores        ;3 he scores
    1110 0000a150 00000ec0'         .long   hescores        ;5 he scores
    1111 0000a170 00000700'         .long   twopts          ;6 two points
    1112 0000a190 00000700'         .long   twopts          ;7 two points
    1113                    
    1114                    
    1115                    
    1116 0000a1b0           tmux3_points
    1117                    
    1118 0000a1b0     0d3f          callr   itsgood
         0000a1c0     0389  
    1119 0000a1d0     c913          jrnc    tmuxx3p
    1120                    
    1121 0000a1e0     09c0          movi    350,a0          ;call 35% swishes
         0000a1f0     015e  
    1122 0000a200     0d3f          callr   swish_speech
         0000a210     039f  
    1123 0000a220     c90e          jrnc    tmuxx3p
TMS340 COFF Macro Assembler Version 6.10     Tue Dec 19 01:45:17 2023
 Copyright (c) 1985-1991  Texas Instruments Incorporated 

announcer speech etc...                                              PAGE   23

    1124                    
    1125 0000a230     09c0          movi    6,a0
         0000a240     0006  
    1126 0000a250     0d5f          calla   rndrng0
         0000a260 00000000! 
    1127 0000a280     24a0          sll     5,a0    ;x 32 bits
    1128 0000a290     0b20          addi    tmux3ptab,a0
         0000a2a0 0000a320' 
    1129 0000a2c0     8600          move    *a0,a0,L
    1130 0000a2d0     ca03          jrz     tmuxx3p
    1131 0000a2e0     0d5f          calla   speech_play
         0000a2f0 000088c0' 
    1132 0000a310           tmuxx3p
    1133 0000a310     0960          rets
    1134                    
    1135 0000a320           tmux3ptab
    1136 0000a320 00000000'         .long   scrs0           ;0 and it's good
    1137 0000a340 00000000'         .long   scrs0           ;1 and it's good
    1138 0000a360 00000080'         .long   scrs2           ;2 got it!
    1139 0000a380 00000100'         .long   scrs4           ;3 what a shot
    1140 0000a3a0 00000dc0'         .long   greatsht        ;4 great shot!
    1141 0000a3c0 00000d80'         .long   yes             ;5 yes!
    1142 0000a3e0 00000ec0'         .long   hescores        ;6 he scores
    1143                    
    1144                    
    1145 0000a400           tmuxhook_shot
    1146                    
    1147 0000a400     0d3f          callr   itsgood
         0000a410     0364  
    1148 0000a420     c90f          jrnc    tmuxxhook
    1149                    
    1150 0000a430     05a0          move    @skycalled,a0   ;sky hook called?
         0000a440 000002d0- 
    1151 0000a460     ca05          jrz     tmuxnosky
    1152                    
    1153 0000a470     c0ac          jruc    tmux2_points    ;call like regular 2 pointer
    1154 0000a480     0d5f          calla   speech_play
         0000a490 000088c0' 
    1155 0000a4b0     0960          rets
    1156                    
    1157 0000a4c0           tmuxnosky
    1158 0000a4c0     09e0          movi    scrs5,a0        ;hooks it in
         0000a4d0 00000140' 
    1159 0000a4f0     0d5f          calla   speech_play
         0000a500 000088c0' 
    1160                    
    1161 0000a520           tmuxxhook
    1162 0000a520     0960          rets
    1163                    
    1164                    
    1165 0000a530           tmuxlay_up
    1166                    
    1167 0000a530     1860          movk    3,a0
    1168 0000a540     0d5f          calla   rndrng0
         0000a550 00000000! 
TMS340 COFF Macro Assembler Version 6.10     Tue Dec 19 01:45:17 2023
 Copyright (c) 1985-1991  Texas Instruments Incorporated 

announcer speech etc...                                              PAGE   24

    1169 0000a570     24a0          sll     5,a0            ;x 32 bits
    1170 0000a580     0b20          addi    tmuxlaytab,a0
         0000a590 0000a600' 
    1171 0000a5b0     8600          move    *a0,a0,L
    1172 0000a5c0     0d5f          calla   speech_play
         0000a5d0 000088c0' 
    1173 0000a5f0     0960          rets
    1174                    
    1175 0000a600           tmuxlaytab
    1176 0000a600 00000240'         .long   scrs9   ;0 sweet touch
    1177 0000a620 00000600'         .long   scrs25  ;1 fancy move
    1178 0000a640 00000640'         .long   scrsrz  ;2 razzle dazzle
    1179 0000a660 00000680'         .long   scrs26  ;3 fantastic
    1180                    
    1181 0000a680           tmuxfinger_roll
    1182                    
    1183 0000a680     09c0          movi    5,a0
         0000a690     0005  
    1184 0000a6a0     0d5f          calla   rndrng0
         0000a6b0 00000000! 
    1185 0000a6d0     24a0          sll     5,a0            ;x 32 bits
    1186 0000a6e0     0b20          addi    tmuxfingtab,a0
         0000a6f0 0000a760' 
    1187 0000a710     8600          move    *a0,a0,L
    1188 0000a720     0d5f          calla   speech_play
         0000a730 000088c0' 
    1189 0000a750     0960          rets
    1190                    
    1191 0000a760           tmuxfingtab
    1192 0000a760 00000240'         .long   scrs9   ;0 sweet touch
    1193 0000a780 000000c0'         .long   scrs3   ;1 finds the hole
    1194 0000a7a0 00000180'         .long   scrs6   ;2 finger rolls it in
    1195 0000a7c0 00000600'         .long   scrs25  ;3 fancy move
    1196 0000a7e0 00000640'         .long   scrsrz  ;4 razzle dazzle
    1197 0000a800 00000680'         .long   scrs26  ;5 fantastic
    1198                    
    1199                    
    1200 0000a820           tmuxdunk_short
    1201 0000a820           tmuxdunk_med
    1202 0000a820           tmuxdunk_long
    1203                    
    1204                    
    1205 0000a820     05a0          move    @jam_speech,a0          ;speech type to call when jammed
         0000a830 000000b0- 
    1206 0000a850     ca06          jrz     tmuxno_speech
    1207 0000a860     24a0          sll     5,a0                    ;x 32 bits
    1208 0000a870     0b20          addi    tmuxjam_jump,a0
         0000a880 0000a8d0' 
    1209 0000a8a0     8600          move    *a0,a0,L
    1210 0000a8b0     0920          call    a0
    1211 0000a8c0           tmuxno_speech
    1212 0000a8c0     0960          rets
    1213                    
    1214                    
    1215 0000a8d0           tmuxjam_jump
TMS340 COFF Macro Assembler Version 6.10     Tue Dec 19 01:45:17 2023
 Copyright (c) 1985-1991  Texas Instruments Incorporated 

announcer speech etc...                                              PAGE   25

    1216 0000a8d0 00000000          .long   0
    1217 0000a8f0 0000a970'         .long   tmuxeasy_jam
    1218 0000a910 0000ab10'         .long   tmuxmed_jam
    1219 0000a930 0000acd0'         .long   tmuxgood_jam
    1220 0000a950 0000ae10'         .long   tmuxgreat_jam
    1221                    
    1222 0000a970           tmuxeasy_jam
    1223                    
    1224 0000a970     09c0          movi    5,a0
         0000a980     0005  
    1225 0000a990     0d5f          calla   rndrng0
         0000a9a0 00000000! 
    1226 0000a9c0     24a0          sll     5,a0            ;x 32 bits
    1227 0000a9d0     0b20          addi    tmuxeasy_tab,a0
         0000a9e0 0000aa50' 
    1228 0000aa00     8600          move    *a0,a0,L
    1229 0000aa10     0d5f          calla   speech_play
         0000aa20 000088c0' 
    1230 0000aa40     0960          rets
    1231                    
    1232 0000aa50           tmuxeasy_tab
    1233 0000aa50 000004c0'         .long   scrs19  ;0 kaboom
    1234 0000aa70 00000540'         .long   scrs22  ;1 slams it
    1235 0000aa90 00000580'         .long   scrs23  ;2 stuffs it
    1236 0000aab0 000005c0'         .long   scrs24  ;3 the easy jam
    1237 0000aad0 000006c0'         .long   jamsit  ;4 jams it in
    1238 0000aaf0 00000680'         .long   scrs26  ;5 fantastic
    1239                    
    1240                    
    1241 0000ab10           tmuxmed_jam
    1242                    
    1243 0000ab10     09c0          movi    6,a0
         0000ab20     0006  
    1244 0000ab30     0d5f          calla   rndrng0
         0000ab40 00000000! 
    1245 0000ab60     24a0          sll     5,a0            ;x 32 bits
    1246 0000ab70     0b20          addi    tmuxmed_tab,a0
         0000ab80 0000abf0' 
    1247 0000aba0     8600          move    *a0,a0,L
    1248 0000abb0     0d5f          calla   speech_play
         0000abc0 000088c0' 
    1249 0000abe0     0960          rets
    1250                    
    1251 0000abf0           tmuxmed_tab
    1252 0000abf0 00000400'         .long   scrs16          ;0 boom shakalaka
    1253 0000ac10 000004c0'         .long   scrs19          ;1 kaboom
    1254 0000ac30 00000500'         .long   scrs20          ;2 monster jam
    1255 0000ac50 000006c0'         .long   jamsit          ;3 jams it in
    1256 0000ac70 00000540'         .long   scrs22          ;4 slams it
    1257 0000ac90 00000580'         .long   scrs23          ;5 stuffs it
    1258 0000acb0 00000680'         .long   scrs26          ;6 fantastic
    1259                    
    1260                    
    1261 0000acd0           tmuxgood_jam
    1262                    
TMS340 COFF Macro Assembler Version 6.10     Tue Dec 19 01:45:17 2023
 Copyright (c) 1985-1991  Texas Instruments Incorporated 

announcer speech etc...                                              PAGE   26

    1263 0000acd0     09c0          movi    2,a0
         0000ace0     0002  
    1264 0000acf0     0d5f          calla   rndrng0
         0000ad00 00000000! 
    1265 0000ad20     24a0          sll     5,a0            ;x 32 bits
    1266 0000ad30     0b20          addi    tmuxgood_tab,a0
         0000ad40 0000adb0' 
    1267 0000ad60     8600          move    *a0,a0,L
    1268 0000ad70     0d5f          calla   speech_play
         0000ad80 000088c0' 
    1269 0000ada0     0960          rets
    1270                    
    1271 0000adb0           tmuxgood_tab
    1272 0000adb0 00000400'         .long   scrs16  ;0 boom shakalaka
    1273 0000add0 000004c0'         .long   scrs19  ;1 kaboom
    1274 0000adf0 000006c0'         .long   jamsit  ;2 jams it in
    1275                    
    1276                    
    1277 0000ae10           tmuxgreat_jam
    1278                    
    1279 0000ae10     18a0          movk    5,a0
    1280 0000ae20     0d5f          calla   rndrng0
         0000ae30 00000000! 
    1281 0000ae50     24a0          sll     5,a0            ;x 32 bits
    1282 0000ae60     0b20          addi    tmuxgreat_tab,a0
         0000ae70 0000aee0' 
    1283 0000ae90     8600          move    *a0,a0,L
    1284 0000aea0     0d5f          calla   speech_play
         0000aeb0 000088c0' 
    1285 0000aed0     0960          rets
    1286                    
    1287 0000aee0           tmuxgreat_tab
    1288 0000aee0 00000200'         .long   scrs8           ;0 spectacular dunk
    1289 0000af00 00000400'         .long   scrs16          ;1 boom shakalaka
    1290 0000af20 00000440'         .long   scrs17          ;2 razzle dazzle
    1291 0000af40 000004c0'         .long   scrs19          ;4 kaboom
    1292 0000af60 00000500'         .long   scrs20          ;5 monster jam
    1293 0000af80 00001240'         .long   takethat        ;6 take that
    1294                    
    1295                    
    1296 0000afa0            SUBR   seq_call_name
    1297                    
    1298 0000afa0     b5a0          move    *a13(plyr_num),a0       ;(0-3)
         0000afb0     0100  
    1299 0000afc0     0d3f          callr   call_player_name
         0000afd0     0001  
    1300 0000afe0     0960          rets
    1301                    
    1302                    
    1303                    
    1304 0000aff0            SUBRP  call_player_name
    1305                    
    1306                    
    1307                    
    1308 0000aff0     05a1          move    @last_name_time,a1      ;# ticks since name called
TMS340 COFF Macro Assembler Version 6.10     Tue Dec 19 01:45:17 2023
 Copyright (c) 1985-1991  Texas Instruments Incorporated 

announcer speech etc...                                              PAGE   27

         0000b000 00000010- 
    1309 0000b020     0b41          cmpi    TSEC*2,a1
         0000b030     ff95  
    1310 0000b040     c905          jrhs    chbtplayit
    1311                    
    1312 0000b050     05a1          move    @last_name,a1           ;if name called in last 3 secs
         0000b060 00000000- 
    1313 0000b080     4801          cmp     a0,a1                   ;then don't call it again
    1314 0000b090     ca15          jreq    chbtsnd_fail
    1315                    
    1316 0000b0a0           chbtplayit
    1317 0000b0a0                   PUSH    a0
    1318                    
    1319 0000b0b0     4c01          move    a0,a1
    1320 0000b0c0     24a1          sll     5,a1
    1321 0000b0d0     0b21          addi    spch_name_ram,a1
         0000b0e0 000002e0- 
    1322 0000b100     8620          move    *a1,a0,L
    1323                    
    1324                    
    1325                    
    1326 0000b110     0d5f          calla   speech_play
         0000b120 000088c0' 
    1327 0000b140                   PULL    a0
    1328 0000b150     c809          jrc     chbtsnd_fail
    1329 0000b160     0580          move    a0,@last_name           ;last player name called
         0000b170 00000000- 
    1330 0000b190     5600          clr     a0
    1331 0000b1a0     0580          move    a0,@last_name_time      ;# ticks since name called
         0000b1b0 00000010- 
    1332 0000b1d0     0320          clrc
    1333 0000b1e0     0960          rets
    1334                    
    1335 0000b1f0           chbtsnd_fail
    1336 0000b1f0     0de0          setc
    1337 0000b200     0960          rets
    1338                    
    1339                    
    1340                    
    1341 0000b210            SUBR   pass_to_speech
    1342                    
    1343 0000b210     05a0          move    @last_name_time,a0      ;# ticks since name called
         0000b220 00000010- 
    1344 0000b240     0b40          cmpi    TSEC*3,a0
         0000b250     ff60  
    1345 0000b260     c21a          jrls    cdwisnd_fail
    1346                    
    1347                    
    1348 0000b270     4c20          move    a1,a0
    1349                    
    1350 0000b280                   PUSH    a1
    1351                    
    1352 0000b290     4c01          move    a0,a1
    1353 0000b2a0     24a1          sll     5,a1
    1354 0000b2b0     0b21          addi    spch_pass_ram,a1
TMS340 COFF Macro Assembler Version 6.10     Tue Dec 19 01:45:17 2023
 Copyright (c) 1985-1991  Texas Instruments Incorporated 

announcer speech etc...                                              PAGE   28

         0000b2c0 00000360- 
    1355 0000b2e0     8620          move    *a1,a0,L
    1356                    
    1357                    
    1358                    
    1359                    
    1360 0000b2f0     0d5f          calla   speech_play
         0000b300 000088c0' 
    1361 0000b320                   PULL    a1
    1362 0000b330     c80d          jrc     cdwisnd_fail
    1363 0000b340     4c20          move    a1,a0
    1364 0000b350     0bc0          xori    1,a0
         0000b360 00000001  
    1365 0000b380     0580          move    a0,@last_name           ;last player name called
         0000b390 00000000- 
    1366 0000b3b0     5600          clr     a0
    1367 0000b3c0     0580          move    a0,@last_name_time      ;# ticks since name called
         0000b3d0 00000010- 
    1368 0000b3f0     0320          clrc
    1369 0000b400     0960          rets
    1370                    
    1371 0000b410           cdwisnd_fail
    1372 0000b410     0de0          setc
    1373 0000b420     0960          rets
    1374                    
    1375                    
    1376                            .asg    040500h,MAX_TIME        ;45 seconds
    1377                            .asg    020500h,MAX_TIME2       ;25 seconds
    1378                            .asg    000200h,MIN_TIME        ;2 seconds
    1379                    
    1380 0000b430            SUBRP  blowout
    1381                    
    1382 0000b430     05a1          move    @freakout,a1            ;no freakout on score
         0000b440 000000a0- 
    1383 0000b460     ca15          jrz     namino_freakout
    1384                    
    1385 0000b470     09e0          movi    scrs1,a0                ;it's good (excited)
         0000b480 00000040' 
    1386 0000b4a0     1421          dec     a1
    1387 0000b4b0     cb0b          jrnz    namiok
    1388 0000b4c0     07a0          move    @game_time,a0,L
         0000b4d0 00000000! 
    1389 0000b4f0     0b60          cmpi    MAX_TIME,a0
         0000b500 fffbfaff  
    1390 0000b520     c300          jrhi    namisnd_fail
         0000b530     0094  
    1391 0000b540     09e0          movi    scrs11,a0               ;GOOOOD!!!
         0000b550 000002c0' 
    1392 0000b570           namiok
    1393 0000b570     0d3f          callr   speech_playovrp
         0000b580     fd37  
    1394 0000b590     c800          jrc     namisnd_fail
         0000b5a0     008d  
    1395 0000b5b0     0960          rets
    1396                    
TMS340 COFF Macro Assembler Version 6.10     Tue Dec 19 01:45:17 2023
 Copyright (c) 1985-1991  Texas Instruments Incorporated 

announcer speech etc...                                              PAGE   29

    1397                    
    1398 0000b5c0           namino_freakout
    1399 0000b5c0     05a0          move    @gmqrtr,a0
         0000b5d0 00000000! 
    1400 0000b5f0     0b40          cmpi    3,a0
         0000b600     fffc  
    1401 0000b610     c47f          jrlt    naminot_last_qtr
    1402                    
    1403 0000b620     07a0          move    @game_time,a0,L
         0000b630 00000000! 
    1404 0000b650     0b60          cmpi    MAX_TIME,a0
         0000b660 fffbfaff  
    1405 0000b680     c37f          jrhi    namisnd_fail
    1406 0000b690     0b40          cmpi    MIN_TIME,a0
         0000b6a0     fdff  
    1407 0000b6b0     c87c          jrlo    namisnd_fail
    1408                    
    1409 0000b6c0     05a0          move    @blowout_called,a0
         0000b6d0 00000080- 
    1410 0000b6f0     cb78          jrnz    namisnd_fail
    1411                    
    1412 0000b700     05a0          move    @ballpnumscored,a0      ;Last plyr who scored (0-3) or neg
         0000b710 00000000! 
    1413 0000b730     0d3f          callr   calc_score_diff
         0000b740     0137  
    1414                    
    1415 0000b750     05a1          move    @score_diff,a1
         0000b760 00000070- 
    1416 0000b780     0b41          cmpi    6,a1
         0000b790     fff9  
    1417 0000b7a0     c54b          jrge    namiisblow
    1418                    
    1419 0000b7b0     0b41          cmpi    3,a1
         0000b7c0     fffc  
    1420 0000b7d0     c46a          jrlt    namisnd_fail
    1421                    
    1422 0000b7e0     05a0          move    @needshot_called,a0
         0000b7f0 00000090- 
    1423 0000b810     cb66          jrnz    namisnd_fail
    1424                    
    1425 0000b820     07a0          move    @game_time,a0,L
         0000b830 00000000! 
    1426 0000b850     0b60          cmpi    MAX_TIME2,a0
         0000b860 fffdfaff  
    1427 0000b880     c35f          jrhi    namisnd_fail
    1428                    
    1429                    
    1430 0000b890     09c0          movi    1,a0
         0000b8a0     0001  
    1431 0000b8b0     0d5f          calla   rndrng0
         0000b8c0 00000000! 
    1432 0000b8e0     4c00          move    a0,a0
    1433 0000b8f0     ca2a          jrz     namido_needshot
    1434                    
    1435                    
TMS340 COFF Macro Assembler Version 6.10     Tue Dec 19 01:45:17 2023
 Copyright (c) 1985-1991  Texas Instruments Incorporated 

announcer speech etc...                                              PAGE   30

    1436 0000b900     05a0          move    @ballpnumscored,a0      ;Last plyr who scored (0-3) or neg
         0000b910 00000000! 
    1437 0000b930     ce26          jrn     namierror
    1438                    
    1439 0000b940     09e2          movi    silence55,a2
         0000b950 00001b00' 
    1440 0000b970     09e4          movi    sound_ram2,a4
         0000b980 000001d0- 
    1441 0000b9a0     9a44          move    *a2+,*a4+,L
    1442 0000b9b0     9a44          move    *a2+,*a4+,L
    1443                    
    1444 0000b9c0     05a2          move    @team1,a2
         0000b9d0 00000000! 
    1445 0000b9f0     2fe0          srl     1,a0                    ;0-1
    1446 0000ba00     cb03          jrnz    namitm1_scored
    1447 0000ba10     05a2          move    @team2,a2
         0000ba20 00000000! 
    1448 0000ba40           namitm1_scored
    1449 0000ba40     24c2          sll     6,a2                    ;x 16bits x 4
    1450 0000ba50     0b22          addi    team_speech,a2
         0000ba60 000081c0' 
    1451 0000ba80     9a44          move    *a2+,*a4+,L
    1452 0000ba90     9a44          move    *a2+,*a4+,L
    1453 0000baa0     1820          movk    1,a0
    1454 0000bab0     0580          move    a0,@sound_ram2+40h+30h
         0000bac0 00000240- 
    1455                    
    1456 0000bae0     09e2          movi    runout,a2
         0000baf0 00001b40' 
    1457 0000bb10     9a44          move    *a2+,*a4+,L
    1458 0000bb20     9a44          move    *a2+,*a4+,L
    1459 0000bb30     9a44          move    *a2+,*a4+,L
    1460 0000bb40     9a44          move    *a2+,*a4+,L
    1461                    
    1462 0000bb50     09e0          movi    sound_ram2,a0
         0000bb60 000001d0- 
    1463 0000bb80     c004          jruc    namiplayit
    1464 0000bb90     0960          rets
    1465                    
    1466 0000bba0           namierror
    1467 0000bba0           namido_needshot
    1468 0000bba0     09e0          movi    needshot,a0             ;They need a shot here
         0000bbb0 00001a80' 
    1469 0000bbd0           namiplayit
    1470 0000bbd0     0d5f          calla   speech_play
         0000bbe0 000088c0' 
    1471 0000bc00     c827          jrc     namisnd_fail
    1472 0000bc10     1820          movk    1,a0
    1473 0000bc20     0580          move    a0,@needshot_called
         0000bc30 00000090- 
    1474 0000bc50     0960          rets
    1475                    
    1476                    
    1477 0000bc60           namiisblow
    1478 0000bc60     09e0          movi    blowout_snd,a0          ;it's a blowout
TMS340 COFF Macro Assembler Version 6.10     Tue Dec 19 01:45:17 2023
 Copyright (c) 1985-1991  Texas Instruments Incorporated 

announcer speech etc...                                              PAGE   31

         0000bc70 00000840' 
    1479 0000bc90     0b41          cmpi    9,a1
         0000bca0     fff6  
    1480 0000bcb0     c50b          jrge    namiblowout
    1481                    
    1482 0000bcc0     09e0          movi    blowout2_snd,a0         ;Whoomp
         0000bcd0 000008c0' 
    1483 0000bcf0     05ae          move    @HCOUNT,a14
         0000bd00 c00001c0  
    1484 0000bd20     1fee          btst    0,a14
    1485 0000bd30     ca03          jrz     namiwhoomp
    1486 0000bd40     09e0          movi    scrs14,a0               ;the nail in the coffin!
         0000bd50 00000380' 
    1487 0000bd70           namiwhoomp
    1488 0000bd70           namiblowout
    1489 0000bd70     0d5f          calla   speech_play
         0000bd80 000088c0' 
    1490 0000bda0     c80d          jrc     namisnd_fail
    1491                    
    1492 0000bdb0     1820          movk    1,a0
    1493 0000bdc0     0580          move    a0,@blowout_called
         0000bdd0 00000080- 
    1494                    
    1495 0000bdf0     0320          clrc
    1496 0000be00     0960          rets
    1497                    
    1498                    
    1499 0000be10           naminot_last_qtr
    1500 0000be10     5600          clr     a0
    1501 0000be20     0580          move    a0,@blowout_called
         0000be30 00000080- 
    1502 0000be50     0580          move    a0,@needshot_called
         0000be60 00000090- 
    1503                    
    1504 0000be80           namisnd_fail
    1505 0000be80     0de0          setc
    1506 0000be90     0960          rets
    1507                    
    1508                    
    1509 0000bea0            SUBRP  at_buzzer
    1510                    
    1511 0000bea0     05a0          move    @shot_type,a0           ;don't call on dunks
         0000beb0 00000020- 
    1512 0000bed0     0b40          cmpi    DUNK_SHORT,a0
         0000bee0     fff8  
    1513 0000bef0     c92e          jrhs    npwxcheck_buzzer
    1514                    
    1515 0000bf00     07a0          move    @game_time,a0,L
         0000bf10 00000000! 
    1516 0000bf30     0b40          cmpi    400h,a0                 ;less than 4 seconds left
         0000bf40     fbff  
    1517 0000bf50     c735          jrgt    npwxsnd_fail
    1518                    
    1519 0000bf60     05a0          move    @gmqrtr,a0
         0000bf70 00000000! 
TMS340 COFF Macro Assembler Version 6.10     Tue Dec 19 01:45:17 2023
 Copyright (c) 1985-1991  Texas Instruments Incorporated 

announcer speech etc...                                              PAGE   32

    1520 0000bf90     0b40          cmpi    3,a0                    ;last quarter?
         0000bfa0     fffc  
    1521 0000bfb0     c422          jrlt    npwxnot_last_qtr
    1522                    
    1523 0000bfc0     05a0          move    @score_diff,a0
         0000bfd0 00000070- 
    1524 0000bff0     c11e          jrp     npwxin_front            ;already in front
    1525 0000c000     05a1          move    @ballptsforshot,a1      ;Point value for current shot (1-3)
         0000c010 00000000! 
    1526 0000c030     4020          add     a1,a0
    1527 0000c040     ca0d          jrz     npwxties_it
    1528 0000c050     ce18          jrn     npwxbehind
    1529 0000c060           npwxwins_it
    1530 0000c060     09e0          movi    scrs10,a0               ;IT IS....
         0000c070 00000280' 
    1531 0000c090     0d5f          calla   speech_play
         0000c0a0 000088c0' 
    1532 0000c0c0     c81e          jrc     npwxsnd_fail
    1533 0000c0d0     1820          movk    1,a0
    1534 0000c0e0     0580          move    a0,@freakout            ;freak out if it scores
         0000c0f0 000000a0- 
    1535 0000c110     0960          rets
    1536                    
    1537 0000c120           npwxties_it
    1538 0000c120     09e0          movi    shts6,a0                ;launches a shot
         0000c130 00000c00' 
    1539 0000c150     0d5f          calla   speech_play
         0000c160 000088c0' 
    1540 0000c180     c812          jrc     npwxsnd_fail
    1541                    
    1542 0000c190     1840          movk    2,a0
    1543 0000c1a0     0580          move    a0,@freakout            ;freak out if it scores
         0000c1b0 000000a0- 
    1544 0000c1d0     0960          rets
    1545                    
    1546                    
    1547 0000c1e0           npwxbehind
    1548 0000c1e0           npwxin_front
    1549 0000c1e0           npwxnot_last_qtr
    1550 0000c1e0           npwxcheck_buzzer
    1551 0000c1e0     07a0          move    @game_time,a0,L
         0000c1f0 00000000! 
    1552 0000c210     0b40          cmpi    200h,a0
         0000c220     fdff  
    1553 0000c230     c707          jrgt    npwxsnd_fail
    1554                    
    1555 0000c240     09e0          movi    shts7,a0                ;at the buzzer
         0000c250 00000c40' 
    1556 0000c270     0d3f          callr   speech_playovrp
         0000c280     fc67  
    1557 0000c290     c801          jrc     npwxsnd_fail
    1558 0000c2a0     0960          rets
    1559                    
    1560 0000c2b0           npwxsnd_fail
    1561 0000c2b0     0de0          setc
TMS340 COFF Macro Assembler Version 6.10     Tue Dec 19 01:45:17 2023
 Copyright (c) 1985-1991  Texas Instruments Incorporated 

announcer speech etc...                                              PAGE   33

    1562 0000c2c0     0960          rets
    1563                    
    1564                    
    1565 0000c2d0            SUBRP  lucky_bounce
    1566                    
    1567 0000c2d0     05a0          move    @shot_type,a0
         0000c2e0 00000020- 
    1568 0000c300     0b40          cmpi    DUNK_SHORT,a0           ;no lucky bounce on dunks!
         0000c310     fff8  
    1569 0000c320     c50d          jrge    ywpfsnd_fail
    1570                    
    1571 0000c330     05a0          move    @ugly_stat,a0
         0000c340 00000060- 
    1572 0000c360     ca09          jrz     ywpfsnd_fail            ;ugly not called
    1573                    
    1574 0000c370     09e0          movi    scrs13,a0               ;gets a lucky bounce
         0000c380 00000340' 
    1575 0000c3a0     0d5f          calla   speech_play
         0000c3b0 000088c0' 
    1576 0000c3d0     c802          jrc     ywpfsnd_fail
    1577 0000c3e0     0320          clrc
    1578 0000c3f0     0960          rets
    1579                    
    1580 0000c400           ywpfsnd_fail
    1581 0000c400     0de0          setc
    1582 0000c410     0960          rets
    1583                    
    1584                    
    1585 0000c420            SUBRP  ugly_shot
    1586                    
    1587 0000c420     05a0          move    @shot_percentage,a0     ;0=ugly, 1=ok
         0000c430 00000040- 
    1588 0000c450     ce07          jrn     ucdkdoit
    1589 0000c460     cb1a          jrnz    ucdksnd_fail
    1590                    
    1591 0000c470     09c0          movi    100,a0                  ;call ugly 20% time
         0000c480     0064  
    1592 0000c490     0d5f          calla   RNDPER
         0000c4a0 00000000! 
    1593 0000c4c0     c214          jrls    ucdksnd_fail
    1594                    
    1595 0000c4d0           ucdkdoit
    1596 0000c4d0     09c0          movi    2,a0
         0000c4e0     0002  
    1597 0000c4f0     0d5f          calla   rndrng0
         0000c500 00000000! 
    1598 0000c520     24a0          sll     5,a0            ;x 32 bits
    1599 0000c530     0b20          addi    ucdkuglytab,a0
         0000c540 0000c630' 
    1600 0000c560     8600          move    *a0,a0,L
    1601 0000c570     0d5f          calla   speech_play
         0000c580 000088c0' 
    1602 0000c5a0     c806          jrc     ucdksnd_fail
    1603                    
    1604 0000c5b0     1820          movk    1,a0
TMS340 COFF Macro Assembler Version 6.10     Tue Dec 19 01:45:17 2023
 Copyright (c) 1985-1991  Texas Instruments Incorporated 

announcer speech etc...                                              PAGE   34

    1605 0000c5c0     0580          move    a0,@ugly_stat           ;ugly called
         0000c5d0 00000060- 
    1606                    
    1607 0000c5f0     0320          clrc
    1608 0000c600     0960          rets
    1609                    
    1610 0000c610           ucdksnd_fail
    1611 0000c610     0de0          setc
    1612 0000c620     0960          rets
    1613                    
    1614 0000c630           ucdkuglytab
    1615 0000c630 00000f00'         .long   ugly0   ;ugly shot!
    1616 0000c650 00000f80'         .long   ugly1   ;puts up a brick
    1617 0000c670 00001000'         .long   ugly2   ;terrible shot!
    1618                    
    1619                    
    1620                    
    1621 0000c690            SUBR   call_team_name
    1622                    
    1623 0000c690     24c0          sll     6,a0                    ;x 16bits x 4
    1624 0000c6a0     0b20          addi    team_speech,a0
         0000c6b0 000081c0' 
    1625 0000c6d0     0d5f          calla   speech_play
         0000c6e0 000088c0' 
    1626 0000c700     0960          rets
    1627                    
    1628                    
    1629                    
    1630 0000c710            SUBR   call_matchup
    1631                    
    1632 0000c710                   SLEEP   20
    1633                    
    1634 0000c760     09e0          movi    matchup,a0
         0000c770 00001080' 
    1635 0000c790     0d5f          calla   snd_play1
         0000c7a0 00000000! 
    1636                    
    1637 0000c7c0                   SLEEP   1*TSEC+20
    1638                    
    1639 0000c810     05a2          move    @team1,a2
         0000c820 00000000! 
    1640 0000c840     24c2          sll     6,a2                    ;x 16bits x 4
    1641 0000c850     0b22          addi    team_speech,a2
         0000c860 000081c0' 
    1642 0000c880     09e4          movi    sound_ram,a4
         0000c890 000000d0- 
    1643 0000c8b0     9a44          move    *a2+,*a4+,L
    1644 0000c8c0     9a44          move    *a2+,*a4+,L
    1645 0000c8d0     1820          movk    1,a0
    1646 0000c8e0     0580          move    a0,@sound_ram+30h
         0000c8f0 00000100- 
    1647                    
    1648 0000c910     09e2          movi    versus,a2
         0000c920 000010c0' 
    1649 0000c940     9a44          move    *a2+,*a4+,L
TMS340 COFF Macro Assembler Version 6.10     Tue Dec 19 01:45:17 2023
 Copyright (c) 1985-1991  Texas Instruments Incorporated 

announcer speech etc...                                              PAGE   35

    1650 0000c950     9a44          move    *a2+,*a4+,L
    1651 0000c960     1820          movk    1,a0
    1652 0000c970     0580          move    a0,@sound_ram+40h+30h
         0000c980 00000140- 
    1653                    
    1654 0000c9a0     05a2          move    @team2,a2
         0000c9b0 00000000! 
    1655 0000c9d0     24c2          sll     6,a2                    ;x 16bits x 4
    1656 0000c9e0     0b22          addi    team_speech,a2
         0000c9f0 000081c0' 
    1657 0000ca10     9a44          move    *a2+,*a4+,L
    1658 0000ca20     9a44          move    *a2+,*a4+,L
    1659                    
    1660 0000ca30     09e0          movi    sound_ram,a0
         0000ca40 000000d0- 
    1661 0000ca60     0d5f          calla   snd_play1
         0000ca70 00000000! 
    1662                    
    1663 0000ca90                   DIE
    1664                    
    1665                    
    1666                    
    1667 0000cac0           calc_score_diff
    1668                    
    1669 0000cac0                   PUSH    a0,a1,a2
    1670                    
    1671 0000cae0     05a1          move    @scores,a1
         0000caf0 00000000! 
    1672 0000cb10     05a2          move    @scores+10h,a2
         0000cb20 00000010! 
    1673 0000cb40     4441          sub     a2,a1
    1674 0000cb50     2fe0          srl     1,a0
    1675 0000cb60     ca01          jrz     jwpnteam1
    1676 0000cb70     03a1          neg     a1                      ;team2, so negate
    1677 0000cb80           jwpnteam1
    1678 0000cb80     0581          move    a1,@score_diff
         0000cb90 00000070- 
    1679 0000cbb0                   PULL    a0,a1,a2
    1680 0000cbd0     0960          rets
    1681                    
    1682                    
    1683 0000cbe0            SUBR   pushed_speech
    1684                    
    1685 0000cbe0     09c0          movi    4,a0
         0000cbf0     0004  
    1686 0000cc00     0d5f          calla   rndrng0
         0000cc10 00000000! 
    1687 0000cc30     24a0          sll     5,a0            ;x 32 bits
    1688 0000cc40     0b20          addi    tlthpushtab,a0
         0000cc50 0000cce0' 
    1689 0000cc70     8600          move    *a0,a0,L
    1690 0000cc80     ca03          jrz     tlthsnd_fail
    1691 0000cc90     0d5f          calla   speech_play
         0000cca0 000088c0' 
    1692                    
TMS340 COFF Macro Assembler Version 6.10     Tue Dec 19 01:45:17 2023
 Copyright (c) 1985-1991  Texas Instruments Incorporated 

announcer speech etc...                                              PAGE   36

    1693 0000ccc0           tlthsnd_fail
    1694 0000ccc0     0de0          setc
    1695 0000ccd0     0960          rets
    1696                    
    1697 0000cce0           tlthpushtab
    1698 0000cce0 000011c0'         .long   munged          ;0 munged
    1699 0000cd00 00001200'         .long   ambushed        ;1 ambushed
    1700 0000cd20 00001340'         .long   excuse          ;2 excuse me
    1701 0000cd40 000012c0'         .long   tofloor         ;3 knocked to the floor
    1702 0000cd60 00001240'         .long   takethat        ;4 take that
    1703                    
    1704                    
    1705 0000cd80            SUBR   rejected_speech
    1706                    
    1707 0000cd80     07a1          move    @ballobj_p,a1,L
         0000cd90 00000000! 
    1708 0000cdb0     b420          move    *a1(OYPOS),a0
         0000cdc0     00b0  
    1709 0000cdd0     0b40          cmpi    -28,a0
         0000cde0     001b  
    1710 0000cdf0     c70c          jrgt    hkliyes         ;Br=near ground
    1711                    
    1712 0000ce00     1960          movk    11,a0
    1713 0000ce10     0d5f          calla   rndrng0
         0000ce20 00000000! 
    1714 0000ce40     24a0          sll     5,a0            ;x 32 bits
    1715 0000ce50     0b20          addi    hkliregtab,a0
         0000ce60 0000ced0' 
    1716 0000ce80     8600          move    *a0,a0,L
    1717 0000ce90     0d5f          calla   speech_playovrp
         0000cea0 00008900' 
    1718 0000cec0           hkliyes
    1719 0000cec0     0960          rets
    1720                    
    1721 0000ced0           hkliregtab
    1722 0000ced0 00001380'         .long   reject          ;0 rejected!
    1723 0000cef0 00001380'         .long   reject          ;1 rejected!
    1724 0000cf10 000013c0'         .long   rejects         ;2 rejects the shot
    1725 0000cf30 000013c0'         .long   rejects         ;2 rejects the shot
    1726 0000cf50 00001400'         .long   greatd          ;3 great defense
    1727 0000cf70 00001400'         .long   greatd          ;4 great defense
    1728 0000cf90 00001440'         .long   noway           ;5 no way!
    1729 0000cfb0 00000d00'         .long   getout          ;6 get that outta here!
    1730 0000cfd0 00000d00'         .long   getout          ;6 get that outta here!
    1731 0000cff0 00000d00'         .long   getout          ;8 get that outta here!
    1732 0000d010 00000d00'         .long   getout          ;8 get that outta here!
    1733 0000d030 00000d40'         .long   getout2         ;8 get that outta here!
    1734                    
    1735                    
    1736 0000d050            SUBR   rejected_dnk_speech
    1737                    
    1738 0000d050     07a1          move    @ballobj_p,a1,L
         0000d060 00000000! 
    1739 0000d080     b420          move    *a1(OYPOS),a0
         0000d090     00b0  
TMS340 COFF Macro Assembler Version 6.10     Tue Dec 19 01:45:17 2023
 Copyright (c) 1985-1991  Texas Instruments Incorporated 

announcer speech etc...                                              PAGE   37

    1740 0000d0a0     0b40          cmpi    -28,a0
         0000d0b0     001b  
    1741 0000d0c0     c70c          jrgt    ggomyes         ;Br=near ground
    1742                    
    1743 0000d0d0     18e0          movk    7,a0
    1744 0000d0e0     0d5f          calla   rndrng0
         0000d0f0 00000000! 
    1745 0000d110     24a0          sll     5,a0            ;x 32 bits
    1746 0000d120     0b20          addi    ggomregdnktab,a0
         0000d130 0000d1a0' 
    1747 0000d150     8600          move    *a0,a0,L
    1748 0000d160     0d5f          calla   speech_playovrp
         0000d170 00008900' 
    1749 0000d190           ggomyes
    1750 0000d190     0960          rets
    1751                    
    1752 0000d1a0           ggomregdnktab
    1753 0000d1a0 00001380'         .long   reject          ;0 rejected!
    1754 0000d1c0 00001380'         .long   reject          ;1 rejected!
    1755 0000d1e0 00001380'         .long   reject          ;1 rejected!
    1756 0000d200 00001440'         .long   noway           ;2 no way!
    1757 0000d220 00001440'         .long   noway           ;2 no way!
    1758 0000d240 00000d00'         .long   getout          ;3 get that outta here!
    1759 0000d260 00000d00'         .long   getout          ;3 get that outta here!
    1760 0000d280 00000d40'         .long   getout2         ;3 get that outta here!
    1761                    
    1762                    
    1763 0000d2a0            SUBR   rebound_speech
    1764                    
    1765 0000d2a0                   PUSH    a1,a2
    1766                    
    1767 0000d2c0     07a0          move    @game_time,a0,L ;don't call if clock run down
         0000d2d0 00000000! 
    1768 0000d2f0     ca4a          jrz     czkjsnd_fail
    1769                    
    1770 0000d300     09c0          movi    1,a0
         0000d310     0001  
    1771 0000d320     0d5f          calla   rndrng0
         0000d330 00000000! 
    1772 0000d350     24a0          sll     5,a0            ;x 32 bits
    1773 0000d360     0b20          addi    czkjrebtab,a0
         0000d370 0000d7e0' 
    1774 0000d390     8600          move    *a0,a0,L
    1775                    
    1776 0000d3a0     05a1          move    @ballpnum,a1
         0000d3b0 00000000! 
    1777 0000d3d0     ce3c          jrn     czkjsnd_fail
    1778                    
    1779 0000d3e0     2481          sll     4,a1                    ;x16
    1780 0000d3f0     0b21          addi    special_heads,a1        ;-1 = normal player head
         0000d400 00000000! 
    1781 0000d420     8421          move    *a1,a1
    1782                    
    1783 0000d430     05a2          move    @last_name,a2
         0000d440 00000000- 
TMS340 COFF Macro Assembler Version 6.10     Tue Dec 19 01:45:17 2023
 Copyright (c) 1985-1991  Texas Instruments Incorporated 

announcer speech etc...                                              PAGE   38

    1784 0000d460     4822          cmp     a1,a2
    1785 0000d470     cb07          jrne    czkjcall_name
    1786                    
    1787 0000d480           czkjno_name
    1788 0000d480     0d5f          calla   speech_play
         0000d490 000088c0' 
    1789 0000d4b0     c82e          jrc     czkjsnd_fail
    1790 0000d4c0                   PULL    a1,a2
    1791 0000d4e0     0960          rets
    1792                    
    1793 0000d4f0           czkjcall_name
    1794 0000d4f0     09e2          movi    sound_ram+40h,a2
         0000d500 00000110- 
    1795 0000d520     9a02          move    *a0+,*a2+,L
    1796 0000d530     9a02          move    *a0+,*a2+,L
    1797                    
    1798 0000d540     05a0          move    @ballpnum,a0
         0000d550 00000000! 
    1799                    
    1800                    
    1801                    
    1802 0000d570     4c01          move    a0,a1
    1803 0000d580     24a1          sll     5,a1
    1804 0000d590     0b21          addi    spch_name_ram,a1
         0000d5a0 000002e0- 
    1805 0000d5c0     8620          move    *a1,a0,L
    1806                    
    1807                    
    1808                     
    1809                    
    1810 0000d5d0     09e2          movi    sound_ram,a2
         0000d5e0 000000d0- 
    1811 0000d600     9a02          move    *a0+,*a2+,L
    1812 0000d610     9a02          move    *a0+,*a2+,L
    1813 0000d620     1820          movk    1,a0
    1814 0000d630     0580          move    a0,@sound_ram+30h
         0000d640 00000100- 
    1815 0000d660     09e0          movi    sound_ram,a0
         0000d670 000000d0- 
    1816 0000d690     0d5f          calla   speech_play
         0000d6a0 000088c0' 
    1817 0000d6c0     c80d          jrc     czkjsnd_fail
    1818                    
    1819 0000d6d0     05a0          move    @ballpnum,a0
         0000d6e0 00000000! 
    1820 0000d700     0580          move    a0,@last_name           ;last player name called
         0000d710 00000000- 
    1821 0000d730     5600          clr     a0
    1822 0000d740     0580          move    a0,@last_name_time      ;# ticks since name called
         0000d750 00000010- 
    1823                    
    1824 0000d770                   PULL    a1,a2
    1825 0000d790     0960          rets
    1826                    
    1827                    
TMS340 COFF Macro Assembler Version 6.10     Tue Dec 19 01:45:17 2023
 Copyright (c) 1985-1991  Texas Instruments Incorporated 

announcer speech etc...                                              PAGE   39

    1828 0000d7a0           czkjsnd_fail
    1829 0000d7a0     0de0          setc
    1830 0000d7b0                   PULL    a1,a2
    1831 0000d7d0     0960          rets
    1832                    
    1833 0000d7e0           czkjrebtab
    1834 0000d7e0 00001480'         .long   grabreb         ;0 grabs the rebound
    1835 0000d800 00001480'         .long   grabreb         ;0 grabs the rebound
    1836                    
    1837                    
    1838                    
    1839 0000d820            SUBR   intercepted_speech
    1840                    
    1841 0000d820     09c0          movi    1,a0
         0000d830     0001  
    1842 0000d840     0d5f          calla   rndrng0
         0000d850 00000000! 
    1843 0000d870     24a0          sll     5,a0            ;x 32 bits
    1844 0000d880     0b20          addi    wkfxintcptab,a0
         0000d890 0000d900' 
    1845 0000d8b0     8600          move    *a0,a0,L
    1846 0000d8c0     0d5f          calla   speech_playovrp
         0000d8d0 00008900' 
    1847 0000d8f0     0960          rets
    1848                    
    1849 0000d900           wkfxintcptab
    1850 0000d900 000014c0'         .long   intrcpt         ;intercepted!
    1851 0000d920 00001500'         .long   turnovr         ;the turnover!
    1852                    
    1853                    
    1854 0000d940            SUBR   stolen_speech
    1855                    
    1856 0000d940     09c0          movi    1,a0
         0000d950     0001  
    1857 0000d960     0d5f          calla   rndrng0
         0000d970 00000000! 
    1858 0000d990     24a0          sll     5,a0            ;x 32 bits
    1859 0000d9a0     0b20          addi    wbdxstealstab,a0
         0000d9b0 0000da20' 
    1860 0000d9d0     8600          move    *a0,a0,L
    1861 0000d9e0     0d5f          calla   speech_playovrp
         0000d9f0 00008900' 
    1862 0000da10     0960          rets
    1863                    
    1864 0000da20           wbdxstealstab
    1865 0000da20 00001500'         .long   turnovr         ;the turnover!
    1866 0000da40 00001540'         .long   stolen          ;stolen!
    1867                    
    1868                    
    1869                    
    1870 0000da60            SUBRP  itsgood
    1871                    
    1872 0000da60     07a0          move    @game_time,a0,L
         0000da70 00000000! 
    1873 0000da90     cb08          jrnz    hbqwsnd_fail
TMS340 COFF Macro Assembler Version 6.10     Tue Dec 19 01:45:17 2023
 Copyright (c) 1985-1991  Texas Instruments Incorporated 

announcer speech etc...                                              PAGE   40

    1874                    
    1875 0000daa0     09e0          movi    scrs1,a0        ;it's good (excited)
         0000dab0 00000040' 
    1876 0000dad0     0d5f          calla   speech_play
         0000dae0 000088c0' 
    1877 0000db00     c801          jrc     hbqwsnd_fail
    1878 0000db10     0960          rets
    1879                    
    1880 0000db20           hbqwsnd_fail
    1881 0000db20     0de0          setc
    1882 0000db30     0960          rets
    1883                    
    1884                    
    1885                    
    1886 0000db40            SUBR   seq_lay_up_start
    1887                    
    1888 0000db40     09e0          movi    scrs15,a0       ;lays it up
         0000db50 000003c0' 
    1889 0000db70     0d5f          calla   speech_play
         0000db80 000088c0' 
    1890 0000dba0     0960          rets
    1891                    
    1892                    
    1893 0000dbb0            SUBR   seq_jam_speech
    1894                    
    1895 0000dbb0     9490          move    *b4+,b0
    1896 0000dbc0     4e10          move    b0,a0           ;jam speech type
    1897 0000dbd0     0580          move    a0,@jam_speech  ;speech type to call when jammed
         0000dbe0 000000b0- 
    1898 0000dc00     0960          rets
    1899                    
    1900                    
    1901 0000dc10            SUBRP  swish_speech
    1902                    
    1903 0000dc10     05a1          move    @ballrimhitcnt,a1
         0000dc20 00000000! 
    1904 0000dc40     cb18          jrnz    lcyhnoswish
    1905                    
    1906 0000dc50     05a1          move    @ballbbhitcnt,a1
         0000dc60 00000000! 
    1907 0000dc80     cb12          jrnz    lcyhsnd_fail
    1908                    
    1909 0000dc90     0d5f          calla   RNDPER
         0000dca0 00000000! 
    1910 0000dcc0     c20e          jrls    lcyhsnd_fail
    1911                    
    1912 0000dcd0           lcyhdoit
    1913 0000dcd0     09c0          movi    2,a0
         0000dce0     0002  
    1914 0000dcf0     0d5f          calla   rndrng0
         0000dd00 00000000! 
    1915 0000dd20     24a0          sll     5,a0            ;x 32 bits
    1916 0000dd30     0b20          addi    lcyhswishtab,a0
         0000dd40 0000de70' 
    1917 0000dd60     8600          move    *a0,a0,L
TMS340 COFF Macro Assembler Version 6.10     Tue Dec 19 01:45:17 2023
 Copyright (c) 1985-1991  Texas Instruments Incorporated 

announcer speech etc...                                              PAGE   41

    1918 0000dd70     0d5f          calla   speech_play
         0000dd80 000088c0' 
    1919 0000dda0     0960          rets
    1920 0000ddb0           lcyhsnd_fail
    1921 0000ddb0     0de0          setc
    1922 0000ddc0     0960          rets
    1923                    
    1924 0000ddd0           lcyhnoswish
    1925 0000ddd0     0b41          cmpi    9,a1
         0000dde0     fff6  
    1926 0000ddf0     c4fb          jrlt    lcyhsnd_fail
    1927                    
    1928 0000de00     09e0          movi    scrs13,a0       ;gets a lucky bounce
         0000de10 00000340' 
    1929 0000de30     0d5f          calla   speech_play
         0000de40 000088c0' 
    1930                    
    1931 0000de60     0960          rets
    1932                    
    1933                    
    1934 0000de70           lcyhswishtab
    1935 0000de70 00000940'         .long   swish_snd       ;0 SWISH!
    1936 0000de90 000009c0'         .long   allnet_snd      ;1 nothing but net
    1937 0000deb0 00000940'         .long   swish_snd       ;2 SWISH!
    1938                    
    1939                    
    1940                    
    1941 0000ded0            SUBR   call_scores
    1942                    
    1943 0000ded0                   PUSH    a0,a1,a7,a14
    1944 0000def0                   PUSH    b0,b1
    1945                    
    1946 0000df10     07a0          move    @game_time,a0,L
         0000df20 00000000! 
    1947 0000df40     ca14          jrz     zgtuno_call0
    1948                    
    1949 0000df50     0b60          cmpi    010000h,a0              ;10 seconds
         0000df60 fffeffff  
    1950 0000df80     c410          jrlt    zgtuno_call0
    1951                    
    1952                    
    1953 0000df90           zgtunot_last_qtr
    1954                    
    1955 0000df90     05a0          move    @next_call,a0
         0000dfa0 000000c0- 
    1956 0000dfc0     ca05          jrz     zgtudo_call
    1957 0000dfd0     1420          dec     a0
    1958 0000dfe0     0580          move    a0,@next_call
         0000dff0 000000c0- 
    1959 0000e010     c007          jruc    zgtuno_call0
    1960                    
    1961 0000e020           zgtudo_call
    1962 0000e020                   CREATE0 call_scores_proc
    1963                    
    1964 0000e090           zgtuno_call0
TMS340 COFF Macro Assembler Version 6.10     Tue Dec 19 01:45:17 2023
 Copyright (c) 1985-1991  Texas Instruments Incorporated 

announcer speech etc...                                              PAGE   42

    1965 0000e090                   PULL    b0,b1
    1966 0000e0b0                   PULL    a0,a1,a7,a14
    1967 0000e0d0     0960          rets
    1968                    
    1969                    
    1970 0000e0e0            SUBRP  call_scores_proc
    1971                    
    1972 0000e0e0                   SLEEP   TSEC+30
    1973                    
    1974 0000e130     07a0          move    @game_time,a0,L
         0000e140 00000000! 
    1975 0000e160     ca50          jrz     zgtuno_call
    1976                    
    1977 0000e170     05a1          move    @scores,a1
         0000e180 00000000! 
    1978 0000e1a0     05a0          move    @scores+10h,a0
         0000e1b0 00000010! 
    1979 0000e1d0     4401          sub     a0,a1
    1980                    
    1981 0000e1e0     4d6b          move    a11,a11
    1982 0000e1f0     cb05          jrnz    zgtutm1_scored
    1983 0000e200           zgtutm2_scored
    1984 0000e200     05a2          move    @team2,a2
         0000e210 00000000! 
    1985 0000e230     03a1          neg     a1
    1986 0000e240     c003          jruc    zgtucnt
    1987                    
    1988 0000e250           zgtutm1_scored
    1989 0000e250     05a2          move    @team1,a2
         0000e260 00000000! 
    1990 0000e280           zgtucnt
    1991 0000e280     24c2          sll     6,a2                    ;x 16bits x 4
    1992 0000e290     0b22          addi    team_speech,a2
         0000e2a0 000081c0' 
    1993 0000e2c0     09e4          movi    sound_ram,a4
         0000e2d0 000000d0- 
    1994 0000e2f0     9a44          move    *a2+,*a4+,L
    1995 0000e300     9a44          move    *a2+,*a4+,L
    1996 0000e310     1820          movk    1,a0
    1997 0000e320     0580          move    a0,@sound_ram+30h
         0000e330 00000100- 
    1998                    
    1999 0000e350     09e2          movi    upby,a2
         0000e360 000015c0' 
    2000 0000e380     4c21          move    a1,a1
    2001 0000e390     ca30          jrz     zgtutied
    2002 0000e3a0     c104          jrp     zgtupos
    2003                    
    2004 0000e3b0     09e2          movi    downby,a2
         0000e3c0 00001580' 
    2005 0000e3e0     03a1          neg     a1
    2006 0000e3f0           zgtupos
    2007 0000e3f0     0b41          cmpi    20,a1
         0000e400     ffeb  
    2008 0000e410     ca06          jreq    zgtuok
TMS340 COFF Macro Assembler Version 6.10     Tue Dec 19 01:45:17 2023
 Copyright (c) 1985-1991  Texas Instruments Incorporated 

announcer speech etc...                                              PAGE   43

    2009 0000e420     0b41          cmpi    15,a1
         0000e430     fff0  
    2010 0000e440     ca03          jreq    zgtuok
    2011 0000e450     0b41          cmpi    10,a1
         0000e460     fff5  
    2012 0000e470     c71f          jrgt    zgtuoutrange
    2013                    
    2014                    
    2015 0000e480           zgtuok
    2016 0000e480     09e4          movi    sound_ram+40h,a4
         0000e490 00000110- 
    2017 0000e4b0     9a44          move    *a2+,*a4+,L
    2018 0000e4c0     9a44          move    *a2+,*a4+,L
    2019 0000e4d0     1820          movk    1,a0
    2020 0000e4e0     0580          move    a0,@sound_ram+40h+30h
         0000e4f0 00000140- 
    2021                    
    2022 0000e510     24a1          sll     5,a1                    ;x 32 bits
    2023 0000e520     0b21          addi    zgtunumtab-20h,a1
         0000e530 0000e990' 
    2024 0000e550     8622          move    *a1,a2,L
    2025 0000e560     09e4          movi    sound_ram+80h,a4
         0000e570 00000150- 
    2026 0000e590     9a44          move    *a2+,*a4+,L
    2027 0000e5a0     9a44          move    *a2+,*a4+,L
    2028                    
    2029 0000e5b0     09e0          movi    sound_ram,a0
         0000e5c0 000000d0- 
    2030 0000e5e0     0d5f          calla   speech_play
         0000e5f0 000088c0' 
    2031 0000e610     c805          jrc     zgtusnd_fail            ;so try again
    2032                    
    2033 0000e620     09c0          movi    2,a0
         0000e630     0002  
    2034 0000e640     0580          move    a0,@next_call
         0000e650 000000c0- 
    2035                    
    2036 0000e670           zgtusnd_fail
    2037 0000e670           zgtuoutrange
    2038 0000e670           zgtuno_call
    2039 0000e670                   DIE
    2040                    
    2041                    
    2042 0000e6a0           zgtutied
    2043 0000e6a0     09e0          movi    scrtied,a0              ;the score is tied
         0000e6b0 00001600' 
    2044 0000e6d0     0d5f          calla   speech_play
         0000e6e0 000088c0' 
    2045 0000e700     c8f6          jrc     zgtusnd_fail            ;so try again
    2046                    
    2047 0000e710     09c0          movi    2,a0
         0000e720     0002  
    2048 0000e730     0580          move    a0,@next_call
         0000e740 000000c0- 
    2049                    
TMS340 COFF Macro Assembler Version 6.10     Tue Dec 19 01:45:17 2023
 Copyright (c) 1985-1991  Texas Instruments Incorporated 

announcer speech etc...                                              PAGE   44

    2050 0000e760     05a0          move    @gmqrtr,a0
         0000e770 00000000! 
    2051 0000e790     ca1e          jrz     zgtunoorg
    2052 0000e7a0     09c0          movi    150,a0
         0000e7b0     0096  
    2053 0000e7c0     0d5f          calla   RNDPER
         0000e7d0 00000000! 
    2054 0000e7f0     c218          jrls    zgtunoorg
    2055                    
    2056 0000e800     07a1          move    @game_time,a1,L
         0000e810 00000000! 
    2057 0000e830     0b61          cmpi    020000h,a1
         0000e840 fffdffff  
    2058 0000e860     c411          jrlt    zgtunoorg
    2059                    
    2060 0000e870                   SLEEP   3*60
    2061                    
    2062 0000e8c0     09e1          movi    organ1_snd,a1
         0000e8d0 00001a00' 
    2063 0000e8f0     1fe0          btst    0,a0
    2064 0000e900     ca03          jrz     zgtuorg1
    2065 0000e910     09e1          movi    organ2_snd,a1
         0000e920 00001a40' 
    2066 0000e940     4c20  zgtuorg1        move    a1,a0
    2067 0000e950     0d5f          calla   snd_play1ovr
         0000e960 00000000! 
    2068                    
    2069 0000e980           zgtunoorg
    2070                    
    2071 0000e980                   DIE
    2072                    
    2073 0000e9b0           zgtunumtab
    2074 0000e9b0 00001640'         .long   snd_1
    2075 0000e9d0 00001680'         .long   snd_2
    2076 0000e9f0 000016c0'         .long   snd_3
    2077 0000ea10 00001700'         .long   snd_4
    2078 0000ea30 00001740'         .long   snd_5
    2079 0000ea50 00001780'         .long   snd_6
    2080 0000ea70 000017c0'         .long   snd_7
    2081 0000ea90 00001800'         .long   snd_8
    2082 0000eab0 00001840'         .long   snd_9
    2083 0000ead0 00001880'         .long   snd_10
    2084 0000eaf0 00000000          .long   0,0,0,0
    2085 0000eb70 000018c0'         .long   snd_15
    2086 0000eb90 00000000          .long   0,0,0,0
    2087 0000ec10 00001900'         .long   snd_20
    2088                    
    2089                    
    2090 0000ec30     09e0          movi    needshot,a0             ;They need a shot here
         0000ec40 00001a80' 
    2091                    
    2092                    
    2093                    
    2094 0000ec60            SUBR   name_call
    2095                    
TMS340 COFF Macro Assembler Version 6.10     Tue Dec 19 01:45:17 2023
 Copyright (c) 1985-1991  Texas Instruments Incorporated 

announcer speech etc...                                              PAGE   45

    2096 0000ec60           nzflrestart
    2097 0000ec60     09ca          movi    TSEC*2,a10
         0000ec70     006a  
    2098 0000ec80           nzflloop
    2099 0000ec80                   SLEEPK  1
    2100                    
    2101 0000ecc0     07a0          move    @game_time,a0,L
         0000ecd0 00000000! 
    2102 0000ecf0     caf6          jrz     nzflrestart
    2103                    
    2104 0000ed00     05a0          move    @inbound,a0
         0000ed10 00000000! 
    2105 0000ed30     cff2          jrnn    nzflrestart
    2106                    
    2107 0000ed40     05a0          move    @ballpnum,a0
         0000ed50 00000000! 
    2108 0000ed70     ceee          jrn     nzflrestart             ;ball free
    2109                    
    2110                    
    2111 0000ed80     4c01          move    a0,a1
    2112 0000ed90     24a1          sll     5,a1                    ;*32
    2113 0000eda0     0b21          addi    plyrproc_t,a1
         0000edb0 00000000! 
    2114 0000edd0     8621          move    *a1,a1,L
    2115 0000ede0     b421          move    *a1(plyr_seqflgs),a1
         0000edf0     0180  
    2116 0000ee00     1fc1          btst    DUNK_B,a1
    2117 0000ee10     cbe4          jrnz    nzflrestart
    2118                    
    2119 0000ee20     3f6a          dsj     a10,nzflloop
    2120                    
    2121 0000ee30     05a1          move    @last_name,a1           ;if name called in last 3 secs
         0000ee40 00000000- 
    2122 0000ee60     4801          cmp     a0,a1
    2123 0000ee70     cb06          jrne    nzfldiff_name
    2124                    
    2125 0000ee80     05a1          move    @last_name_time,a1      ;# ticks since name called
         0000ee90 00000010- 
    2126 0000eeb0     0b41          cmpi    TSEC*2,a1
         0000eec0     ff95  
    2127 0000eed0     c4d8          jrlt    nzflrestart
    2128                    
    2129 0000eee0           nzfldiff_name
    2130 0000eee0     0d3f          callr   call_player_name
         0000eef0     fc0f  
    2131                    
    2132 0000ef00     09ca          movi    TSEC*4,a10
         0000ef10     00d4  
    2133 0000ef20     c0d5          jruc    nzflloop
    2134                    
    2135                    
    2136                    
    2137 0000ef30            SUBRP  onfire_speech
    2138                    
    2139 0000ef30     07a0          move    @game_time,a0,L
TMS340 COFF Macro Assembler Version 6.10     Tue Dec 19 01:45:17 2023
 Copyright (c) 1985-1991  Texas Instruments Incorporated 

announcer speech etc...                                              PAGE   46

         0000ef40 00000000! 
    2140 0000ef60     ca30          jrz     kezusnd_fail
    2141                    
    2142                    
    2143 0000ef70     05a0          move    @ballpnumscored,a0      ;Last plyr who scored (0-3) or neg
         0000ef80 00000000! 
    2144                    
    2145 0000efa0     05a0          move    @ballnumscored,a0       ;# times last plyr scored
         0000efb0 00000000! 
    2146 0000efd0     0b40          cmpi    3,a0
         0000efe0     fffc  
    2147 0000eff0     c507          jrge    kezuonfire
    2148 0000f000     0b40          cmpi    2,a0
         0000f010     fffd  
    2149 0000f020     cb24          jrne    kezusnd_fail            ;is cold
    2150                    
    2151 0000f030     09e0          movi    heatup_snd,a0
         0000f040 00001940' 
    2152 0000f060     c01d          jruc    kezuheatup
    2153                    
    2154 0000f070           kezuonfire
    2155 0000f070     05a0          move    @plyrnumonfire,a0       ;plyr who is on fire
         0000f080 00000000! 
    2156 0000f0a0     05a1          move    @ballpnumscored,a1      ;Last plyr who scored (0-3) or neg
         0000f0b0 00000000! 
    2157 0000f0d0     4801          cmp     a0,a1
    2158 0000f0e0     cb18          jrne    kezuwas_teammate
    2159                    
    2160 0000f0f0     05a0          move    @shot_type,a0
         0000f100 00000020- 
    2161 0000f120     cb07          jrnz    kezunot_desp
    2162                    
    2163 0000f130     09c0          movi    400,a0                  ;call desp speech 40% time
         0000f140     0190  
    2164 0000f150     0d5f          calla   RNDPER
         0000f160 00000000! 
    2165 0000f180     c300          jrhi    hotscored
         0000f190     faa4  
    2166                    
    2167 0000f1a0           kezunot_desp
    2168 0000f1a0     09c0          movi    3,a0
         0000f1b0     0003  
    2169 0000f1c0     0d5f          calla   rndrng0
         0000f1d0 00000000! 
    2170 0000f1f0     24a0          sll     5,a0            ;x 32 bits
    2171 0000f200     0b20          addi    kezuonfiretab,a0
         0000f210 0000f290' 
    2172 0000f230     8600          move    *a0,a0,L
    2173 0000f240           kezuheatup
    2174 0000f240     0d3f          callr   speech_playovrp
         0000f250     f96a  
    2175 0000f260     0960          rets
    2176                    
    2177 0000f270           kezuwas_teammate
    2178 0000f270           kezusnd_fail
TMS340 COFF Macro Assembler Version 6.10     Tue Dec 19 01:45:17 2023
 Copyright (c) 1985-1991  Texas Instruments Incorporated 

announcer speech etc...                                              PAGE   47

    2179 0000f270     0de0          setc
    2180 0000f280     0960          rets
    2181                    
    2182 0000f290           kezuonfiretab
    2183 0000f290 00001980'         .long   onfire_snd              ;0 he's on fire
    2184 0000f2b0 000019c0'         .long   hothand                 ;1 he's got a hot hand
    2185 0000f2d0 00001240'         .long   takethat                ;2 take that!
    2186 0000f2f0 00000780'         .long   uncon                   ;3 he's unconscious
    2187                    
    2188                    
    2189                            .asg    140,RANGE
    2190                    
    2191 0000f310            SUBRP   wideopen_speech
    2192                    
    2193 0000f310     05a0          move    @plyr_shot,a0           ;player who shot last (0-3)
         0000f320 00000030- 
    2194 0000f340     24a0          sll     5,a0                    ;*32
    2195 0000f350     0b20          addi    plyrproc_t,a0
         0000f360 00000000! 
    2196 0000f380     8600          move    *a0,a0,L
    2197 0000f390     b401          move    *a0(plyr_o1dist),a1     ;opponent 1 dist
         0000f3a0     0310  
    2198 0000f3b0     0b41          cmpi    RANGE,a1
         0000f3c0     ff73  
    2199 0000f3d0     c40c          jrlt    ycrtnot_open
    2200 0000f3e0     b401          move    *a0(plyr_o2dist),a1     ;opponent 2 dist
         0000f3f0     0330  
    2201 0000f400     0b41          cmpi    RANGE,a1
         0000f410     ff73  
    2202 0000f420     c407          jrlt    ycrtnot_open
    2203                    
    2204 0000f430     09e0          movi    wideopen,a0
         0000f440 00000e00' 
    2205 0000f460     0d5f          calla   speech_play
         0000f470 000088c0' 
    2206                    
    2207 0000f490     0960          rets
    2208                    
    2209 0000f4a0           ycrtnot_open
    2210 0000f4a0     0de0          setc
    2211 0000f4b0     0960          rets
    2212                    
    2213                    
    2214                    
    2215                            .asg    3,BRICK_MAX
    2216                    
    2217 0000f4c0            SUBR   nogood_speech
    2218                    
    2219 0000f4c0                   PUSH    a10
    2220                    
    2221 0000f4d0     05aa          move    @ballpnumshot,a10
         0000f4e0 00000000! 
    2222 0000f500     248a          sll     4,a10                   ;x 16
    2223 0000f510     0b2a          addi    brick_count,a10
         0000f520 00000000! 
TMS340 COFF Macro Assembler Version 6.10     Tue Dec 19 01:45:17 2023
 Copyright (c) 1985-1991  Texas Instruments Incorporated 

announcer speech etc...                                              PAGE   48

    2224 0000f540     8541          move    *a10,a1                 ;brick_count
    2225 0000f550     0b41          cmpi    BRICK_MAX,a1
         0000f560     fffc  
    2226 0000f570     c408          jrlt    tswzno_good
    2227 0000f580     09e0          movi    cantbuy,a0              ;can't buy a bucket
         0000f590 000007c0' 
    2228 0000f5b0     0d3f          callr   speech_play
         0000f5c0     f92f  
    2229 0000f5d0     c811          jrc     tswzfailed
    2230 0000f5e0     5600          clr     a0
    2231 0000f5f0     800a          move    a0,*a10                 ;played, now clear it
    2232                    
    2233 0000f600           tswzno_good
    2234 0000f600     07a0          move    @game_time,a0,L         ;always call if clock at zero
         0000f610 00000000! 
    2235 0000f630     ca06          jrz     tswzdoit_baby
    2236                    
    2237 0000f640     09c0          movi    400,a0                  ;don't call 40% of no goods
         0000f650     0190  
    2238 0000f660     0d5f          calla   RNDPER
         0000f670 00000000! 
    2239 0000f690     c205          jrls    tswzfailed
    2240                    
    2241 0000f6a0           tswzdoit_baby
    2242 0000f6a0     09e0          movi    nogood,a0               ;NO GOOD!
         0000f6b0 00000e80' 
    2243 0000f6d0     0d3f          callr   speech_play
         0000f6e0     f91d  
    2244                    
    2245 0000f6f0           tswzfailed
    2246 0000f6f0                   PULL    a10
    2247 0000f700     0960          rets
    2248                    
    2249                    
    2250 0000f710            SUBR   victory_speech
    2251                    
    2252 0000f710     05a0          move    @team1,a0
         0000f720 00000000! 
    2253 0000f740     05a1          move    @scores,a1
         0000f750 00000000! 
    2254 0000f770     05a2          move    @scores+10h,a2
         0000f780 00000010! 
    2255 0000f7a0     4822          cmp     a1,a2
    2256 0000f7b0     c403          jrlt    zxldt1_wins
    2257 0000f7c0     05a0          move    @team2,a0
         0000f7d0 00000000! 
    2258 0000f7f0           zxldt1_wins
    2259 0000f7f0     24c0          sll     6,a0                    ;x 16bits x 4
    2260 0000f800     0b20          addi    team_speech,a0
         0000f810 000081c0' 
    2261                    
    2262 0000f830     09e4          movi    sound_ram2,a4
         0000f840 000001d0- 
    2263 0000f860     9a04          move    *a0+,*a4+,L
    2264 0000f870     9a04          move    *a0+,*a4+,L
TMS340 COFF Macro Assembler Version 6.10     Tue Dec 19 01:45:17 2023
 Copyright (c) 1985-1991  Texas Instruments Incorporated 

announcer speech etc...                                              PAGE   49

    2265 0000f880     1820          movk    1,a0
    2266 0000f890     0580          move    a0,@sound_ram2+30h
         0000f8a0 00000200- 
    2267                    
    2268 0000f8c0     09e0          movi    wingame,a0
         0000f8d0 00001140' 
    2269 0000f8f0     9a04          move    *a0+,*a4+,L
    2270 0000f900     9a04          move    *a0+,*a4+,L
    2271                    
    2272 0000f910     09e0          movi    sound_ram2,a0
         0000f920 000001d0- 
    2273 0000f940     0d3f          callr   speech_play
         0000f950     f8f6  
    2274                    
    2275 0000f960     0960          rets
    2276                    
    2277                    
    2278                    
    2279                            .ref    player_names,tm1set,tm2set,name_sort
    2280                    
    2281 0000f970            SUBR   setup_speech
    2282                    
    2283 0000f970     09ea          movi    player_names,a10
         0000f980 00000000! 
    2284 0000f9a0     05a2          move    @team1,a2
         0000f9b0 00000000! 
    2285                    
    2286                    
    2287 0000f9d0     0b42  cxjylp3 cmpi    0,a2
         0000f9e0     ffff  
    2288 0000f9f0     ca04          jrz     cxjyout3
    2289 0000fa00     0b0a          addi    20*64,a10
         0000fa10     0500  
    2290 0000fa20     1422          dec     a2
    2291 0000fa30     c0f9          jruc    cxjylp3
    2292 0000fa40           cxjyout3
    2293 0000fa40     05a0          move    @team1,a0
         0000fa50 00000000! 
    2294 0000fa70     2480          sll     4,a0
    2295 0000fa80     0b20          addi    tm1set,a0
         0000fa90 00000000! 
    2296 0000fab0     840e          move    *a0,a14
    2297 0000fac0     24ce          sll     6,a14
    2298 0000fad0     41ca          add     a14,a10
    2299                    
    2300 0000fae0     8740          move    *a10,a0,L
    2301 0000faf0     09ee          movi    name_sort,a14
         0000fb00 00000000! 
    2302 0000fb20     09ca          movi    -1,a10
         0000fb30     ffff  
    2303 0000fb40           cxjylp4
    2304 0000fb40     102a          inc     a10
    2305 0000fb50     97c1          move    *a14+,a1,L
    2306 0000fb60     4820          cmp     a1,a0
    2307 0000fb70     cbfc          jrnz    cxjylp4
TMS340 COFF Macro Assembler Version 6.10     Tue Dec 19 01:45:17 2023
 Copyright (c) 1985-1991  Texas Instruments Incorporated 

announcer speech etc...                                              PAGE   50

    2308                    
    2309 0000fb80     24ca          sll     6,a10
    2310 0000fb90     4d40          move    a10,a0
    2311 0000fba0     0b2a          addi    name_speech,a10
         0000fbb0 00003dc0' 
    2312 0000fbd0     0b20          addi    pass_speech,a0
         0000fbe0 00001bc0' 
    2313                    
    2314 0000fc00     05ae          move    @special_heads,a14
         0000fc10 00000000! 
    2315 0000fc30     ce05          jrn     cxjytag1
    2316 0000fc40     24ce          sll     6,a14
    2317 0000fc50     0b2e          addi    special_name_speech,a14
         0000fc60 00005fc0' 
    2318 0000fc80     4dca          move    a14,a10
    2319 0000fc90           cxjytag1
    2320 0000fc90     05ae          move    @special_heads,a14
         0000fca0 00000000! 
    2321 0000fcc0     ce05          jrn     cxjytag2
    2322 0000fcd0     24ce          sll     6,a14
    2323 0000fce0     0b2e          addi    special_pass_speech,a14
         0000fcf0 000070c0' 
    2324 0000fd10     4dc0          move    a14,a0
    2325 0000fd20           cxjytag2
    2326                    
    2327 0000fd20     078a          move    a10,@spch_name_ram,L
         0000fd30 000002e0- 
    2328 0000fd50     0780          move    a0,@spch_pass_ram+32,L
         0000fd60 00000380- 
    2329                    
    2330                    
    2331                    
    2332 0000fd80     09ea          movi    player_names,a10
         0000fd90 00000000! 
    2333 0000fdb0     05a2          move    @team1,a2
         0000fdc0 00000000! 
    2334                    
    2335                    
    2336                    
    2337                    
    2338                    
    2339                    
    2340 0000fde0     0b42  ilvblp3 cmpi    0,a2
         0000fdf0     ffff  
    2341 0000fe00     ca04          jrz     ilvbout3
    2342 0000fe10     0b0a          addi    20*64,a10
         0000fe20     0500  
    2343 0000fe30     1422          dec     a2
    2344 0000fe40     c0f9          jruc    ilvblp3
    2345 0000fe50           ilvbout3
    2346 0000fe50     05a0          move    @team1,a0
         0000fe60 00000000! 
    2347 0000fe80     2480          sll     4,a0
    2348 0000fe90     0b20          addi    tm1set,a0
         0000fea0 00000000! 
TMS340 COFF Macro Assembler Version 6.10     Tue Dec 19 01:45:17 2023
 Copyright (c) 1985-1991  Texas Instruments Incorporated 

announcer speech etc...                                              PAGE   51

    2349 0000fec0     840e          move    *a0,a14
    2350 0000fed0     24ce          sll     6,a14
    2351 0000fee0     41ca          add     a14,a10
    2352                    
    2353 0000fef0     100a          addk    32,a10
    2354                    
    2355 0000ff00     8740          move    *a10,a0,L
    2356 0000ff10     09ee          movi    name_sort,a14
         0000ff20 00000000! 
    2357 0000ff40     09ca          movi    -1,a10
         0000ff50     ffff  
    2358 0000ff60           ilvblp4
    2359 0000ff60     102a          inc     a10
    2360 0000ff70     97c1          move    *a14+,a1,L
    2361 0000ff80     4820          cmp     a1,a0
    2362 0000ff90     cbfc          jrnz    ilvblp4
    2363                    
    2364 0000ffa0     24ca          sll     6,a10
    2365 0000ffb0     4d40          move    a10,a0
    2366 0000ffc0     0b2a          addi    name_speech,a10
         0000ffd0 00003dc0' 
    2367 0000fff0     0b20          addi    pass_speech,a0
         00010000 00001bc0' 
    2368                    
    2369 00010020     05ae          move    @special_heads+10h,a14
         00010030 00000010! 
    2370 00010050     ce05          jrn     ilvbtag1a
    2371 00010060     24ce          sll     6,a14
    2372 00010070     0b2e          addi    special_name_speech,a14
         00010080 00005fc0' 
    2373 000100a0     4dca          move    a14,a10
    2374 000100b0           ilvbtag1a
    2375 000100b0     05ae          move    @special_heads+10h,a14
         000100c0 00000010! 
    2376 000100e0     ce05          jrn     ilvbtag2a
    2377 000100f0     24ce          sll     6,a14
    2378 00010100     0b2e          addi    special_pass_speech,a14
         00010110 000070c0' 
    2379 00010130     4dc0          move    a14,a0
    2380 00010140           ilvbtag2a
    2381                    
    2382                    
    2383 00010140     078a          move    a10,@spch_name_ram+32,L
         00010150 00000300- 
    2384 00010170     0780          move    a0,@spch_pass_ram,L
         00010180 00000360- 
    2385                    
    2386                    
    2387                    
    2388 000101a0     09ea          movi    player_names,a10
         000101b0 00000000! 
    2389 000101d0     05a2          move    @team2,a2
         000101e0 00000000! 
    2390 00010200     0b42  rxwjlp3 cmpi    0,a2
         00010210     ffff  
TMS340 COFF Macro Assembler Version 6.10     Tue Dec 19 01:45:17 2023
 Copyright (c) 1985-1991  Texas Instruments Incorporated 

announcer speech etc...                                              PAGE   52

    2391 00010220     ca04          jrz     rxwjout3
    2392 00010230     0b0a          addi    20*64,a10
         00010240     0500  
    2393 00010250     1422          dec     a2
    2394 00010260     c0f9          jruc    rxwjlp3
    2395 00010270           rxwjout3
    2396 00010270     05a0          move    @team2,a0
         00010280 00000000! 
    2397 000102a0     2480          sll     4,a0
    2398 000102b0     0b20          addi    tm2set,a0
         000102c0 00000000! 
    2399 000102e0     840e          move    *a0,a14
    2400 000102f0     24ce          sll     6,a14
    2401 00010300     41ca          add     a14,a10
    2402                    
    2403 00010310     8740          move    *a10,a0,L
    2404 00010320     09ee          movi    name_sort,a14
         00010330 00000000! 
    2405 00010350     09ca          movi    -1,a10
         00010360     ffff  
    2406 00010370           rxwjlp4
    2407 00010370     102a          inc     a10
    2408 00010380     97c1          move    *a14+,a1,L
    2409 00010390     4820          cmp     a1,a0
    2410 000103a0     cbfc          jrnz    rxwjlp4
    2411                    
    2412 000103b0     24ca          sll     6,a10
    2413 000103c0     4d40          move    a10,a0
    2414 000103d0     0b2a          addi    name_speech,a10
         000103e0 00003dc0' 
    2415 00010400     0b20          addi    pass_speech,a0
         00010410 00001bc0' 
    2416                    
    2417 00010430     05ae          move    @special_heads+20h,a14
         00010440 00000020! 
    2418 00010460     ce05          jrn     rxwjtag1b
    2419 00010470     24ce          sll     6,a14
    2420 00010480     0b2e          addi    special_name_speech,a14
         00010490 00005fc0' 
    2421 000104b0     4dca          move    a14,a10
    2422 000104c0           rxwjtag1b
    2423 000104c0     05ae          move    @special_heads+20h,a14
         000104d0 00000020! 
    2424 000104f0     ce05          jrn     rxwjtag2b
    2425 00010500     24ce          sll     6,a14
    2426 00010510     0b2e          addi    special_pass_speech,a14
         00010520 000070c0' 
    2427 00010540     4dc0          move    a14,a0
    2428 00010550           rxwjtag2b
    2429                    
    2430 00010550     078a          move    a10,@spch_name_ram+64,L
         00010560 00000320- 
    2431 00010580     0780          move    a0,@spch_pass_ram+96,L
         00010590 000003c0- 
    2432                    
TMS340 COFF Macro Assembler Version 6.10     Tue Dec 19 01:45:17 2023
 Copyright (c) 1985-1991  Texas Instruments Incorporated 

announcer speech etc...                                              PAGE   53

    2433                    
    2434                    
    2435 000105b0     09ea          movi    player_names,a10
         000105c0 00000000! 
    2436 000105e0     05a2          move    @team2,a2
         000105f0 00000000! 
    2437 00010610     0b42  qlswlp3 cmpi    0,a2
         00010620     ffff  
    2438 00010630     ca04          jrz     qlswout3
    2439 00010640     0b0a          addi    20*64,a10
         00010650     0500  
    2440 00010660     1422          dec     a2
    2441 00010670     c0f9          jruc    qlswlp3
    2442 00010680           qlswout3
    2443 00010680     05a0          move    @team2,a0
         00010690 00000000! 
    2444 000106b0     2480          sll     4,a0
    2445 000106c0     0b20          addi    tm2set,a0
         000106d0 00000000! 
    2446 000106f0     840e          move    *a0,a14
    2447 00010700     24ce          sll     6,a14
    2448 00010710     41ca          add     a14,a10
    2449                    
    2450 00010720     100a          addk    32,a10
    2451                    
    2452 00010730     8740          move    *a10,a0,L
    2453 00010740     09ee          movi    name_sort,a14
         00010750 00000000! 
    2454 00010770     09ca          movi    -1,a10
         00010780     ffff  
    2455 00010790           qlswlp4
    2456 00010790     102a          inc     a10
    2457 000107a0     97c1          move    *a14+,a1,L
    2458 000107b0     4820          cmp     a1,a0
    2459 000107c0     cbfc          jrnz    qlswlp4
    2460                    
    2461 000107d0     24ca          sll     6,a10
    2462 000107e0     4d40          move    a10,a0
    2463 000107f0     0b2a          addi    name_speech,a10
         00010800 00003dc0' 
    2464 00010820     0b20          addi    pass_speech,a0
         00010830 00001bc0' 
    2465                    
    2466 00010850     05ae          move    @special_heads+30h,a14
         00010860 00000030! 
    2467 00010880     ce05          jrn     qlswtag1c
    2468 00010890     24ce          sll     6,a14
    2469 000108a0     0b2e          addi    special_name_speech,a14
         000108b0 00005fc0' 
    2470 000108d0     4dca          move    a14,a10
    2471 000108e0           qlswtag1c
    2472 000108e0     05ae          move    @special_heads+30h,a14
         000108f0 00000030! 
    2473 00010910     ce05          jrn     qlswtag2c
    2474 00010920     24ce          sll     6,a14
TMS340 COFF Macro Assembler Version 6.10     Tue Dec 19 01:45:17 2023
 Copyright (c) 1985-1991  Texas Instruments Incorporated 

announcer speech etc...                                              PAGE   54

    2475 00010930     0b2e          addi    special_pass_speech,a14
         00010940 000070c0' 
    2476 00010960     4dc0          move    a14,a0
    2477 00010970           qlswtag2c
    2478                    
    2479 00010970     078a          move    a10,@spch_name_ram+96,L
         00010980 00000340- 
    2480 000109a0     0780          move    a0,@spch_pass_ram+64,L
         000109b0 000003a0- 
    2481                    
    2482 000109d0     0960          rets
    2483                    
    2484                            .end

 No Errors,  No Warnings
